Microsoft (R) COFF/PE Dumper Version 14.42.34435.0
Copyright (C) Microsoft Corporation.  All rights reserved.


Dump of file juce_dll.dll

File Type: DLL

  Section contains the following exports for juce_dll.dll

    00000000 characteristics
    FFFFFFFF time date stamp
        0.00 version
           1 ordinal base
       11862 number of functions
       11862 number of names

    ordinal hint RVA      name

          1    0 007BF010 ?$TSS0@?1???1ScopedTimeMeasurement@juce@@QEAA@XZ@4HA
          2    1 0000F1C0 ??0?$IIRFilterBase@VDummyCriticalSection@juce@@@juce@@QEAA@AEBV01@@Z
          3    2 00010760 ??0?$IIRFilterBase@VDummyCriticalSection@juce@@@juce@@QEAA@XZ
          4    3 0000ED10 ??0?$IIRFilterBase@VSpinLock@juce@@@juce@@QEAA@AEBV01@@Z
          5    4 00010740 ??0?$IIRFilterBase@VSpinLock@juce@@@juce@@QEAA@XZ
          6    5 0007B690 ??0?$OptionsBuilder@VOptions@WebBrowserComponent@juce@@@@QEAA@AEBV0@@Z
          7    6 0007B690 ??0?$OptionsBuilder@VOptions@WebBrowserComponent@juce@@@@QEAA@XZ
          8    7 0007F8A0 ??0?$SliderListener@VSlider@juce@@@juce@@QEAA@AEBV01@@Z
          9    8 0007F8A0 ??0?$SliderListener@VSlider@juce@@@juce@@QEAA@XZ
         10    9 0007B6A0 ??0?$SliderListener@VWebSliderRelay@juce@@@juce@@QEAA@AEBV01@@Z
         11    A 0007B6A0 ??0?$SliderListener@VWebSliderRelay@juce@@@juce@@QEAA@XZ
         12    B 00031D80 ??0?$StackBasedLowLevelGraphicsContext@VSoftwareRendererSavedState@RenderingHelpers@juce@@@RenderingHelpers@juce@@IEAA@PEAVSoftwareRendererSavedState@12@@Z
         13    C 00023F50 ??0?$StackBasedLowLevelGraphicsContext@VSoftwareRendererSavedState@RenderingHelpers@juce@@@RenderingHelpers@juce@@IEAA@XZ
         14    D 00032EA0 ??0?$StackBasedLowLevelGraphicsContext@VSoftwareRendererSavedState@RenderingHelpers@juce@@@RenderingHelpers@juce@@QEAA@_K@Z
         15    E 0007B8F0 ??0AAXClientExtensions@juce@@QEAA@AEBU01@@Z
         16    F 0007B8F0 ??0AAXClientExtensions@juce@@QEAA@XZ
         17   10 00009910 ??0ADSR@juce@@QEAA@XZ
         18   11 003116E0 ??0AbstractFifo@juce@@QEAA@H@Z
         19   12 00075890 ??0AccessibilityActions@juce@@QEAA@$$QEAV01@@Z
         20   13 00075830 ??0AccessibilityActions@juce@@QEAA@AEBV01@@Z
         21   14 000757F0 ??0AccessibilityActions@juce@@QEAA@XZ
         22   15 00075330 ??0AccessibilityCellInterface@juce@@QEAA@AEBV01@@Z
         23   16 00075330 ??0AccessibilityCellInterface@juce@@QEAA@XZ
         24   17 004B3E30 ??0AccessibilityHandler@juce@@QEAA@AEAVComponent@1@W4AccessibilityRole@1@VAccessibilityActions@1@UInterfaces@01@@Z
         25   18 000755C0 ??0AccessibilityNumericValueInterface@juce@@QEAA@$$QEAV01@@Z
         26   19 000755C0 ??0AccessibilityNumericValueInterface@juce@@QEAA@AEBV01@@Z
         27   1A 000755C0 ??0AccessibilityNumericValueInterface@juce@@QEAA@XZ
         28   1B 000755D0 ??0AccessibilityRangedNumericValueInterface@juce@@QEAA@$$QEAV01@@Z
         29   1C 000755D0 ??0AccessibilityRangedNumericValueInterface@juce@@QEAA@AEBV01@@Z
         30   1D 000755D0 ??0AccessibilityRangedNumericValueInterface@juce@@QEAA@XZ
         31   1E 00075340 ??0AccessibilityTableInterface@juce@@QEAA@AEBV01@@Z
         32   1F 00075340 ??0AccessibilityTableInterface@juce@@QEAA@XZ
         33   20 000753B0 ??0AccessibilityTextInterface@juce@@QEAA@AEBV01@@Z
         34   21 000753B0 ??0AccessibilityTextInterface@juce@@QEAA@XZ
         35   22 00075540 ??0AccessibilityTextValueInterface@juce@@QEAA@$$QEAV01@@Z
         36   23 00075540 ??0AccessibilityTextValueInterface@juce@@QEAA@AEBV01@@Z
         37   24 00075540 ??0AccessibilityTextValueInterface@juce@@QEAA@XZ
         38   25 00075440 ??0AccessibilityValueInterface@juce@@QEAA@AEBV01@@Z
         39   26 00075440 ??0AccessibilityValueInterface@juce@@QEAA@XZ
         40   27 00006BF0 ??0AccessibleState@juce@@QEAA@XZ
         41   28 000753C0 ??0AccessibleValueRange@AccessibilityValueInterface@juce@@QEAA@UMinAndMax@012@N@Z
         42   29 000753E0 ??0AccessibleValueRange@AccessibilityValueInterface@juce@@QEAA@XZ
         43   2A 0032B940 ??0ActionBroadcaster@juce@@QEAA@XZ
         44   2B 0001EF60 ??0ActionListener@juce@@QEAA@AEBV01@@Z
         45   2C 0001EF60 ??0ActionListener@juce@@QEAA@XZ
         46   2D 004C3B40 ??0ActiveXControlComponent@juce@@QEAA@XZ
         47   2E 000232C0 ??0AffineTransform@juce@@QEAA@AEBV01@@Z
         48   2F 003A0930 ??0AffineTransform@juce@@QEAA@MMMMMM@Z
         49   30 0001F9B0 ??0AffineTransform@juce@@QEAA@XZ
         50   31 0028B080 ??0AiffAudioFormat@juce@@QEAA@XZ
         51   32 004B4B60 ??0AlertWindow@juce@@QEAA@AEBVString@1@0W4MessageBoxIconType@1@PEAVComponent@1@@Z
         52   33 000080E0 ??0AndroidDocumentInputSource@juce@@QEAA@$$QEAV01@@Z
         53   34 000080B0 ??0AndroidDocumentInputSource@juce@@QEAA@AEBV01@@Z
         54   35 00007EC0 ??0AndroidDocumentInputSource@juce@@QEAA@AEBVAndroidDocument@1@@Z
         55   36 004C2FE0 ??0AnimatedAppComponent@juce@@QEAA@XZ
         56   37 00074C20 ??0ApplicationCommandInfo@juce@@QEAA@$$QEAU01@@Z
         57   38 00074BA0 ??0ApplicationCommandInfo@juce@@QEAA@AEBU01@@Z
         58   39 0049F010 ??0ApplicationCommandInfo@juce@@QEAA@H@Z
         59   3A 0049ED60 ??0ApplicationCommandManager@juce@@QEAA@XZ
         60   3B 00074F00 ??0ApplicationCommandManagerListener@juce@@QEAA@AEBV01@@Z
         61   3C 00074F00 ??0ApplicationCommandManagerListener@juce@@QEAA@XZ
         62   3D 0049DCC0 ??0ApplicationCommandTarget@juce@@QEAA@XZ
         63   3E 00073C80 ??0ApplicationProperties@juce@@QEAA@XZ
         64   3F 004A3880 ??0ArrowButton@juce@@QEAA@AEBVString@1@MVColour@1@@Z
         65   40 0032E700 ??0AsyncUpdater@juce@@QEAA@XZ
         66   41 000211D0 ??0Attribute@AttributedString@juce@@QEAA@$$QEAV012@@Z
         67   42 000211A0 ??0Attribute@AttributedString@juce@@QEAA@AEBV012@@Z
         68   43 00355CA0 ??0Attribute@AttributedString@juce@@QEAA@V?$Range@H@2@AEBVFont@2@VColour@2@@Z
         69   44 00021100 ??0Attribute@AttributedString@juce@@QEAA@XZ
         70   45 004D9470 ??0Attribute@OpenGLShaderProgram@juce@@QEAA@AEBV12@PEBD@Z
         71   46 00021390 ??0AttributedString@juce@@QEAA@$$QEAV01@@Z
         72   47 00021340 ??0AttributedString@juce@@QEAA@AEBV01@@Z
         73   48 00021070 ??0AttributedString@juce@@QEAA@AEBVString@1@@Z
         74   49 000212B0 ??0AttributedString@juce@@QEAA@XZ
         75   4A 002AFDA0 ??0AudioAppComponent@juce@@QEAA@AEAVAudioDeviceManager@1@@Z
         76   4B 002AFE10 ??0AudioAppComponent@juce@@QEAA@XZ
         77   4C 002313E0 ??0AudioChannelSet@juce@@AEAA@AEBV?$initializer_list@W4ChannelType@AudioChannelSet@juce@@@std@@@Z
         78   4D 00231560 ??0AudioChannelSet@juce@@AEAA@I@Z
         79   4E 00008360 ??0AudioChannelSet@juce@@QEAA@$$QEAV01@@Z
         80   4F 00008340 ??0AudioChannelSet@juce@@QEAA@AEBV01@@Z
         81   50 00008300 ??0AudioChannelSet@juce@@QEAA@XZ
         82   51 0023E950 ??0AudioDeviceManager@juce@@QEAA@XZ
         83   52 002BA080 ??0AudioDeviceSelectorComponent@juce@@QEAA@AEAVAudioDeviceManager@1@HHHH_N111@Z
         84   53 00078710 ??0AudioDeviceSelectorComponentMethods@ExtraLookAndFeelBaseClasses@juce@@QEAA@AEBU012@@Z
         85   54 00078710 ??0AudioDeviceSelectorComponentMethods@ExtraLookAndFeelBaseClasses@juce@@QEAA@XZ
         86   55 00024CC0 ??0AudioDeviceSetup@AudioDeviceManager@juce@@QEAA@$$QEAU012@@Z
         87   56 00024C30 ??0AudioDeviceSetup@AudioDeviceManager@juce@@QEAA@AEBU012@@Z
         88   57 00024B50 ??0AudioDeviceSetup@AudioDeviceManager@juce@@QEAA@XZ
         89   58 00290B80 ??0AudioFormat@juce@@IEAA@VString@1@VStringArray@1@@Z
         90   59 00290B30 ??0AudioFormat@juce@@IEAA@VStringRef@1@0@Z
         91   5A 0005BC70 ??0AudioFormat@juce@@QEAA@AEBV01@@Z
         92   5B 002907A0 ??0AudioFormatManager@juce@@QEAA@XZ
         93   5C 0028FDE0 ??0AudioFormatReader@juce@@IEAA@PEAVInputStream@1@AEBVString@1@@Z
         94   5D 0028EBE0 ??0AudioFormatReaderSource@juce@@QEAA@PEAVAudioFormatReader@1@_N@Z
         95   5E 0028E8B0 ??0AudioFormatWriter@juce@@IEAA@PEAVOutputStream@1@AEBVString@1@NAEBVAudioChannelSet@1@I@Z
         96   5F 0028E940 ??0AudioFormatWriter@juce@@IEAA@PEAVOutputStream@1@AEBVString@1@NII@Z
         97   60 002A4360 ??0AudioGraphIOProcessor@AudioProcessorGraph@juce@@QEAA@W4IODeviceType@012@@Z
         98   61 00236CF0 ??0AudioIODevice@juce@@IEAA@AEBVString@1@0@Z
         99   62 000246E0 ??0AudioIODevice@juce@@QEAA@AEBV01@@Z
        100   63 00024690 ??0AudioIODeviceCallback@juce@@QEAA@AEBV01@@Z
        101   64 00024690 ??0AudioIODeviceCallback@juce@@QEAA@XZ
        102   65 00236BD0 ??0AudioIODeviceType@juce@@IEAA@AEBVString@1@@Z
        103   66 0007E9E0 ??0AudioParameterBool@juce@@QEAA@AEBVParameterID@1@AEBVString@1@_N1V?$function@$$A6A?AVString@juce@@_NH@Z@std@@V?$function@$$A6A_NAEBVString@juce@@@Z@5@@Z
        104   67 00299820 ??0AudioParameterBool@juce@@QEAA@AEBVParameterID@1@AEBVString@1@_NAEBVAudioParameterBoolAttributes@1@@Z
        105   68 0007F0F0 ??0AudioParameterChoice@juce@@QEAA@AEBVParameterID@1@AEBVString@1@AEBVStringArray@1@H1V?$function@$$A6A?AVString@juce@@HH@Z@std@@V?$function@$$A6AHAEBVString@juce@@@Z@6@@Z
        106   69 00298D20 ??0AudioParameterChoice@juce@@QEAA@AEBVParameterID@1@AEBVString@1@AEBVStringArray@1@HAEBVAudioParameterChoiceAttributes@1@@Z
        107   6A 0029A6A0 ??0AudioParameterFloat@juce@@QEAA@AEBVParameterID@1@AEBVString@1@MMM@Z
        108   6B 0007D720 ??0AudioParameterFloat@juce@@QEAA@AEBVParameterID@1@AEBVString@1@V?$NormalisableRange@M@1@M1W4Category@AudioProcessorParameter@1@V?$function@$$A6A?AVString@juce@@MH@Z@std@@V?$function@$$A6AMAEBVString@juce@@@Z@8@@Z
        109   6C 0029AB50 ??0AudioParameterFloat@juce@@QEAA@AEBVParameterID@1@AEBVString@1@V?$NormalisableRange@M@1@MAEBVAudioParameterFloatAttributes@1@@Z
        110   6D 0007E260 ??0AudioParameterInt@juce@@QEAA@AEBVParameterID@1@AEBVString@1@HHH1V?$function@$$A6A?AVString@juce@@HH@Z@std@@V?$function@$$A6AHAEBVString@juce@@@Z@5@@Z
        111   6E 00299FE0 ??0AudioParameterInt@juce@@QEAA@AEBVParameterID@1@AEBVString@1@HHHAEBVAudioParameterIntAttributes@1@@Z
        112   6F 0000B9A0 ??0AudioPlayHead@juce@@IEAA@XZ
        113   70 0000B9A0 ??0AudioPlayHead@juce@@QEAA@AEBV01@@Z
        114   71 002AD180 ??0AudioPluginFormat@juce@@IEAA@XZ
        115   72 002ACAE0 ??0AudioPluginFormatManager@juce@@QEAA@XZ
        116   73 0007C990 ??0AudioPluginInstance@juce@@IEAA@AEBUBusesProperties@AudioProcessor@1@@Z
        117   74 0007C9C0 ??0AudioPluginInstance@juce@@IEAA@XZ
        118   75 0022B5D0 ??0AudioProcessLoadMeasurer@juce@@QEAA@XZ
        119   76 002ABD00 ??0AudioProcessor@juce@@IEAA@AEBUBusesProperties@01@@Z
        120   77 0007BEA0 ??0AudioProcessor@juce@@IEAA@AEBV?$initializer_list@$$BY01$$CBF@std@@@Z
        121   78 002ABE70 ??0AudioProcessor@juce@@IEAA@XZ
        122   79 002A5B40 ??0AudioProcessorEditor@juce@@IEAA@AEAVAudioProcessor@1@@Z
        123   7A 002A5A70 ??0AudioProcessorEditor@juce@@IEAA@PEAVAudioProcessor@1@@Z
        124   7B 002A5070 ??0AudioProcessorGraph@juce@@QEAA@XZ
        125   7C 0007BDD0 ??0AudioProcessorListener@juce@@QEAA@AEBV01@@Z
        126   7D 0007BDD0 ??0AudioProcessorListener@juce@@QEAA@XZ
        127   7E 0007B900 ??0AudioProcessorParameter@juce@@QEAA@H@Z
        128   7F 0007B960 ??0AudioProcessorParameter@juce@@QEAA@XZ
        129   80 0029B940 ??0AudioProcessorParameterGroup@juce@@QEAA@$$QEAV01@@Z
        130   81 0029BA80 ??0AudioProcessorParameterGroup@juce@@QEAA@VString@1@00@Z
        131   82 0029BB60 ??0AudioProcessorParameterGroup@juce@@QEAA@XZ
        132   83 0007D390 ??0AudioProcessorParameterWithID@juce@@QEAA@AEBVParameterID@1@AEBVString@1@1W4Category@AudioProcessorParameter@1@@Z
        133   84 0029B140 ??0AudioProcessorParameterWithID@juce@@QEAA@AEBVParameterID@1@AEBVString@1@AEBVAudioProcessorParameterWithIDAttributes@1@@Z
        134   85 002AEA00 ??0AudioProcessorPlayer@juce@@QEAA@_N@Z
        135   86 00294D90 ??0AudioProcessorValueTreeState@juce@@QEAA@AEAVAudioProcessor@1@PEAVUndoManager@1@@Z
        136   87 00295270 ??0AudioProcessorValueTreeState@juce@@QEAA@AEAVAudioProcessor@1@PEAVUndoManager@1@AEBVIdentifier@1@VParameterLayout@01@@Z
        137   88 0000A640 ??0AudioSource@juce@@IEAA@XZ
        138   89 0000A640 ??0AudioSource@juce@@QEAA@AEBV01@@Z
        139   8A 0000A5E0 ??0AudioSourceChannelInfo@juce@@QEAA@AEAV?$AudioBuffer@M@1@@Z
        140   8B 0000A5D0 ??0AudioSourceChannelInfo@juce@@QEAA@PEAV?$AudioBuffer@M@1@HH@Z
        141   8C 00235EE0 ??0AudioSourcePlayer@juce@@QEAA@XZ
        142   8D 0028DCC0 ??0AudioSubsectionReader@juce@@QEAA@PEAVAudioFormatReader@1@_J1_N@Z
        143   8E 002B96E0 ??0AudioThumbnail@juce@@QEAA@HAEAVAudioFormatManager@1@AEAVAudioThumbnailCache@1@@Z
        144   8F 0009CCE0 ??0AudioThumbnailBase@juce@@QEAA@XZ
        145   90 002B7B70 ??0AudioThumbnailCache@juce@@QEAA@H@Z
        146   91 00235410 ??0AudioTransportSource@juce@@QEAA@XZ
        147   92 002B7130 ??0AudioVisualiserComponent@juce@@QEAA@H@Z
        148   93 004928A0 ??0BailOutChecker@Component@juce@@QEAA@PEAV12@@Z
        149   94 00316070 ??0BigInteger@juce@@QEAA@$$QEAV01@@Z
        150   95 00315F70 ??0BigInteger@juce@@QEAA@AEBV01@@Z
        151   96 00310B60 ??0BigInteger@juce@@QEAA@H@Z
        152   97 00302100 ??0BigInteger@juce@@QEAA@I@Z
        153   98 00315EC0 ??0BigInteger@juce@@QEAA@XZ
        154   99 00315EF0 ??0BigInteger@juce@@QEAA@_J@Z
        155   9A 00392940 ??0BitmapData@Image@juce@@QEAA@AEAV12@HHHHW4ReadWriteMode@012@@Z
        156   9B 003928F0 ??0BitmapData@Image@juce@@QEAA@AEBV12@HHHH@Z
        157   9C 003A7760 ??0BitmapData@Image@juce@@QEAA@AEBV12@W4ReadWriteMode@012@@Z
        158   9D 0031E220 ??0BlowFish@juce@@QEAA@AEBV01@@Z
        159   9E 0031E2C0 ??0BlowFish@juce@@QEAA@PEBXH@Z
        160   9F 004311F0 ??0BooleanPropertyComponent@juce@@IEAA@AEBVString@1@00@Z
        161   A0 00431010 ??0BooleanPropertyComponent@juce@@QEAA@AEBVValue@1@AEBVString@1@1@Z
        162   A1 000744C0 ??0BorderedComponentBoundsConstrainer@juce@@QEAA@XZ
        163   A2 0043ACD0 ??0BubbleComponent@juce@@IEAA@XZ
        164   A3 004D53E0 ??0BubbleMessageComponent@juce@@QEAA@H@Z
        165   A4 0030C7C0 ??0BufferedInputStream@juce@@QEAA@AEAVInputStream@1@H@Z
        166   A5 002F18D0 ??0BufferedInputStream@juce@@QEAA@PEAVInputStream@1@H_N@Z
        167   A6 0028D9E0 ??0BufferingAudioReader@juce@@QEAA@PEAVAudioFormatReader@1@AEAVTimeSliceThread@1@H@Z
        168   A7 0021C1F0 ??0BufferingAudioSource@juce@@QEAA@PEAVPositionableAudioSource@1@AEAVTimeSliceThread@1@_NHH2@Z
        169   A8 002CA820 ??0Builder@ZipFile@juce@@QEAA@XZ
        170   A9 004AF7C0 ??0Button@juce@@IEAA@AEBVString@1@@Z
        171   AA 002930B0 ??0ButtonAttachment@AudioProcessorValueTreeState@juce@@QEAA@AEAV12@AEBVString@2@AEAVButton@2@@Z
        172   AB 00430C60 ??0ButtonPropertyComponent@juce@@QEAA@AEBVString@1@_N@Z
        173   AC 00079AD0 ??0CPlusPlusCodeTokeniser@juce@@QEAA@AEBV01@@Z
        174   AD 004C8320 ??0CPlusPlusCodeTokeniser@juce@@QEAA@XZ
        175   AE 00073F70 ??0CachedComponentImage@juce@@QEAA@AEBV01@@Z
        176   AF 00073F70 ??0CachedComponentImage@juce@@QEAA@XZ
        177   B0 0040CB80 ??0CallOutBox@juce@@QEAA@AEAVComponent@1@V?$Rectangle@H@1@PEAV21@@Z
        178   B1 00073F50 ??0Callback@ModalComponentManager@juce@@QEAA@AEBV012@@Z
        179   B2 00073F50 ??0Callback@ModalComponentManager@juce@@QEAA@XZ
        180   B3 0001EF10 ??0CallbackMessage@juce@@QEAA@XZ
        181   B4 0047DC50 ??0CaretComponent@juce@@QEAA@PEAVComponent@1@@Z
        182   B5 0032F310 ??0ChangeBroadcaster@juce@@QEAA@XZ
        183   B6 00006BF0 ??0ChangeDetails@AudioProcessorListener@juce@@QEAA@XZ
        184   B7 0001EF70 ??0ChangeListener@juce@@QEAA@AEBV01@@Z
        185   B8 0001EF70 ??0ChangeListener@juce@@QEAA@XZ
        186   B9 002BEB30 ??0ChildProcess@juce@@QEAA@XZ
        187   BA 00329370 ??0ChildProcessCoordinator@juce@@QEAA@XZ
        188   BB 0001F310 ??0ChildProcessManager@juce@@AEAA@XZ
        189   BC 00329170 ??0ChildProcessWorker@juce@@QEAA@XZ
        190   BD 00430A20 ??0ChoicePropertyComponent@juce@@AEAA@AEBVString@1@AEBVStringArray@1@AEBV?$Array@Vvar@juce@@VDummyCriticalSection@2@$0A@@1@@Z
        191   BE 00430AD0 ??0ChoicePropertyComponent@juce@@IEAA@AEBVString@1@@Z
        192   BF 004307D0 ??0ChoicePropertyComponent@juce@@QEAA@AEBVValue@1@AEBVString@1@AEBVStringArray@1@AEBV?$Array@Vvar@juce@@VDummyCriticalSection@2@$0A@@1@@Z
        193   C0 0042FE10 ??0ChoicePropertyComponent@juce@@QEAA@AEBVValueTreePropertyWithDefault@1@AEBVString@1@@Z
        194   C1 00430480 ??0ChoicePropertyComponent@juce@@QEAA@AEBVValueTreePropertyWithDefault@1@AEBVString@1@AEBVStringArray@1@AEBV?$Array@Vvar@juce@@VDummyCriticalSection@2@$0A@@1@@Z
        195   C2 004332F0 ??0CloseSubPath@RelativePointPath@juce@@QEAA@XZ
        196   C3 004D3A50 ??0CodeDocument@juce@@QEAA@XZ
        197   C4 004D0A80 ??0CodeEditorComponent@juce@@QEAA@AEAVCodeDocument@1@PEAVCodeTokeniser@1@@Z
        198   C5 00079AC0 ??0CodeTokeniser@juce@@QEAA@AEBV01@@Z
        199   C6 00079AC0 ??0CodeTokeniser@juce@@QEAA@XZ
        200   C7 0000A000 ??0Colour@juce@@QEAA@AEBV01@@Z
        201   C8 003A3060 ??0Colour@juce@@QEAA@EEE@Z
        202   C9 003A3020 ??0Colour@juce@@QEAA@EEEE@Z
        203   CA 003A2F80 ??0Colour@juce@@QEAA@EEEM@Z
        204   CB 003A8270 ??0Colour@juce@@QEAA@I@Z
        205   CC 003A2D20 ??0Colour@juce@@QEAA@MMME@Z
        206   CD 003A2DF0 ??0Colour@juce@@QEAA@MMMM@Z
        207   CE 003A2D10 ??0Colour@juce@@QEAA@VPixelARGB@1@@Z
        208   CF 003A2C70 ??0Colour@juce@@QEAA@VPixelAlpha@1@@Z
        209   D0 003A2CB0 ??0Colour@juce@@QEAA@VPixelRGB@1@@Z
        210   D1 00006BF0 ??0Colour@juce@@QEAA@XZ
        211   D2 003A1C40 ??0ColourGradient@juce@@QEAA@$$QEAV01@@Z
        212   D3 003A7570 ??0ColourGradient@juce@@QEAA@AEBV01@@Z
        213   D4 003A1A90 ??0ColourGradient@juce@@QEAA@VColour@1@MM0MM_N@Z
        214   D5 003A3AD0 ??0ColourGradient@juce@@QEAA@VColour@1@V?$Point@M@1@01_N@Z
        215   D6 003A1C90 ??0ColourGradient@juce@@QEAA@XZ
        216   D7 00005DD0 ??0ColourScheme@CodeEditorComponent@juce@@QEAA@$$QEAU012@@Z
        217   D8 000799B0 ??0ColourScheme@CodeEditorComponent@juce@@QEAA@AEBU012@@Z
        218   D9 00006720 ??0ColourScheme@CodeEditorComponent@juce@@QEAA@XZ
        219   DA 004D65A0 ??0ColourSelector@juce@@QEAA@HHH@Z
        220   DB 004BA850 ??0ComboBox@juce@@QEAA@AEBVString@1@@Z
        221   DC 00293200 ??0ComboBoxAttachment@AudioProcessorValueTreeState@juce@@QEAA@AEAV12@AEBVString@2@AEAVComboBox@2@@Z
        222   DD 0049B330 ??0Component@juce@@QEAA@AEBVString@1@@Z
        223   DE 004BE1B0 ??0Component@juce@@QEAA@XZ
        224   DF 0047C780 ??0ComponentAnimator@juce@@QEAA@XZ
        225   E0 004B7490 ??0ComponentBoundsConstrainer@juce@@QEAA@XZ
        226   E1 0047ACD0 ??0ComponentBuilder@juce@@QEAA@AEBVValueTree@1@@Z
        227   E2 0047AD40 ??0ComponentBuilder@juce@@QEAA@XZ
        228   E3 00439480 ??0ComponentDragger@juce@@QEAA@XZ
        229   E4 00073F60 ??0ComponentListener@juce@@QEAA@AEBV01@@Z
        230   E5 00073F60 ??0ComponentListener@juce@@QEAA@XZ
        231   E6 00479FD0 ??0ComponentMovementWatcher@juce@@QEAA@PEAVComponent@1@@Z
        232   E7 0040BAC0 ??0ComponentPeer@juce@@QEAA@AEAVComponent@1@H@Z
        233   E8 00073EB0 ??0ComponentTraverser@juce@@QEAA@AEBV01@@Z
        234   E9 00073EB0 ??0ComponentTraverser@juce@@QEAA@XZ
        235   EA 00479AA0 ??0ConcertinaPanel@juce@@QEAA@XZ
        236   EB 00007170 ??0Connection@AudioProcessorGraph@juce@@QEAA@AEBU012@@Z
        237   EC 002A52C0 ??0Connection@AudioProcessorGraph@juce@@QEAA@VNodeAndChannel@12@0@Z
        238   ED 00006720 ??0Connection@AudioProcessorGraph@juce@@QEAA@XZ
        239   EE 003199C0 ??0CriticalSection@juce@@QEAA@XZ
        240   EF 00432EB0 ??0CubicTo@RelativePointPath@juce@@QEAA@AEBVRelativePoint@2@00@Z
        241   F0 0000B880 ??0CurrentPositionInfo@AudioPlayHead@juce@@QEAA@XZ
        242   F1 0043B140 ??0CustomCallback@PopupMenu@juce@@QEAA@XZ
        243   F2 0043B2E0 ??0CustomComponent@PopupMenu@juce@@QEAA@XZ
        244   F3 0043B280 ??0CustomComponent@PopupMenu@juce@@QEAA@_N@Z
        245   F4 00074130 ??0DarkModeSettingListener@juce@@QEAA@AEBV01@@Z
        246   F5 00074130 ??0DarkModeSettingListener@juce@@QEAA@XZ
        247   F6 00007240 ??0DatagramSocket@juce@@QEAA@XZ
        248   F7 00007210 ??0DatagramSocket@juce@@QEAA@_N@Z
        249   F8 003152A0 ??0DatagramSocket@juce@@QEAA@_NAEBVSocketOptions@1@@Z
        250   F9 0032E140 ??0DeletedAtShutdown@juce@@IEAA@XZ
        251   FA 00491A00 ??0Desktop@juce@@AEAA@XZ
        252   FB 00409630 ??0DialogWindow@juce@@QEAA@AEBVString@1@VColour@1@_N2M@Z
        253   FC 00488CA0 ??0DirectoryContentsDisplayComponent@juce@@QEAA@AEAVDirectoryContentsList@1@@Z
        254   FD 00488860 ??0DirectoryContentsList@juce@@QEAA@PEBVFileFilter@1@AEAVTimeSliceThread@1@@Z
        255   FE 00006200 ??0DirectoryIterator@juce@@AEAA@AEBVFile@1@_NAEBVString@1@HW4FollowSymlinks@21@PEAV?$set@VFile@juce@@U?$less@VFile@juce@@@std@@V?$allocator@VFile@juce@@@4@@std@@@Z
        256   FF 000061D0 ??0DirectoryIterator@juce@@QEAA@AEBVFile@1@_NAEBVString@1@HW4FollowSymlinks@21@@Z
        257  100 00074180 ??0Display@Displays@juce@@QEAA@XZ
        258  101 00490200 ??0Displays@juce@@AEAA@AEAVDesktop@1@@Z
        259  102 000742E0 ??0Displays@juce@@QEAA@$$QEAV01@@Z
        260  103 00074240 ??0Displays@juce@@QEAA@AEBV01@@Z
        261  104 00408FE0 ??0DocumentWindow@juce@@QEAA@AEBVString@1@VColour@1@H_N@Z
        262  105 002C4A70 ??0DownloadTask@URL@juce@@IEAA@XZ
        263  106 000075C0 ??0DownloadTaskListener@URL@juce@@QEAA@AEBU012@@Z
        264  107 000075C0 ??0DownloadTaskListener@URL@juce@@QEAA@XZ
        265  108 00439150 ??0DragAndDropContainer@juce@@QEAA@XZ
        266  109 00074760 ??0DragAndDropTarget@juce@@QEAA@AEBV01@@Z
        267  10A 00074760 ??0DragAndDropTarget@juce@@QEAA@XZ
        268  10B 0048E0C0 ??0Drawable@juce@@IEAA@AEBV01@@Z
        269  10C 0048E2B0 ??0Drawable@juce@@IEAA@XZ
        270  10D 004A2110 ??0DrawableButton@juce@@QEAA@AEBVString@1@W4ButtonStyle@01@@Z
        271  10E 0048D050 ??0DrawableComposite@juce@@QEAA@AEBV01@@Z
        272  10F 0048D170 ??0DrawableComposite@juce@@QEAA@XZ
        273  110 0048C370 ??0DrawableImage@juce@@QEAA@AEBV01@@Z
        274  111 0048C300 ??0DrawableImage@juce@@QEAA@AEBVImage@1@@Z
        275  112 0048C420 ??0DrawableImage@juce@@QEAA@XZ
        276  113 0048B8E0 ??0DrawablePath@juce@@QEAA@AEBV01@@Z
        277  114 0048B960 ??0DrawablePath@juce@@QEAA@XZ
        278  115 0048B660 ??0DrawableRectangle@juce@@QEAA@AEBV01@@Z
        279  116 0048B6F0 ??0DrawableRectangle@juce@@QEAA@XZ
        280  117 0048B0F0 ??0DrawableShape@juce@@IEAA@AEBV01@@Z
        281  118 0048B1D0 ??0DrawableShape@juce@@IEAA@XZ
        282  119 0048A3E0 ??0DrawableText@juce@@QEAA@AEBV01@@Z
        283  11A 0048A510 ??0DrawableText@juce@@QEAA@XZ
        284  11B 003411A0 ??0DropShadow@juce@@QEAA@VColour@1@HV?$Point@H@1@@Z
        285  11C 00024070 ??0DropShadow@juce@@QEAA@XZ
        286  11D 000240B0 ??0DropShadowEffect@juce@@QEAA@AEBV01@@Z
        287  11E 00340560 ??0DropShadowEffect@juce@@QEAA@XZ
        288  11F 0043A4E0 ??0DropShadower@juce@@QEAA@AEBUDropShadow@1@@Z
        289  120 00006B80 ??0DynamicLibrary@juce@@QEAA@$$QEAV01@@Z
        290  121 00006B50 ??0DynamicLibrary@juce@@QEAA@AEBVString@1@@Z
        291  122 000060C0 ??0DynamicLibrary@juce@@QEAA@XZ
        292  123 002DB6D0 ??0DynamicObject@juce@@QEAA@AEBV01@@Z
        293  124 0030F810 ??0DynamicObject@juce@@QEAA@XZ
        294  125 0001FF90 ??0EdgeTable@juce@@QEAA@$$QEAV01@@Z
        295  126 0001FF20 ??0EdgeTable@juce@@QEAA@AEBV01@@Z
        296  127 003A6370 ??0EdgeTable@juce@@QEAA@AEBV?$RectangleList@H@1@@Z
        297  128 003A6520 ??0EdgeTable@juce@@QEAA@AEBV?$RectangleList@M@1@@Z
        298  129 003A6060 ??0EdgeTable@juce@@QEAA@V?$Rectangle@H@1@@Z
        299  12A 003A5BD0 ??0EdgeTable@juce@@QEAA@V?$Rectangle@H@1@AEBVPath@1@AEBVAffineTransform@1@@Z
        300  12B 003A6100 ??0EdgeTable@juce@@QEAA@V?$Rectangle@M@1@@Z
        301  12C 004334E0 ??0ElementBase@RelativePointPath@juce@@QEAA@W4ElementType@12@@Z
        302  12D 002FD550 ??0Expression@juce@@AEAA@PEAVTerm@01@@Z
        303  12E 002FD460 ??0Expression@juce@@QEAA@$$QEAV01@@Z
        304  12F 002FD4D0 ??0Expression@juce@@QEAA@AEBV01@@Z
        305  130 002FD360 ??0Expression@juce@@QEAA@AEBVString@1@AEAV21@@Z
        306  131 002FD4F0 ??0Expression@juce@@QEAA@N@Z
        307  132 002FD590 ??0Expression@juce@@QEAA@XZ
        308  133 0030D9C0 ??0File@juce@@QEAA@$$QEAV01@@Z
        309  134 003151E0 ??0File@juce@@QEAA@AEBV01@@Z
        310  135 0030D9A0 ??0File@juce@@QEAA@AEBVString@1@@Z
        311  136 00005FE0 ??0File@juce@@QEAA@XZ
        312  137 004D5290 ??0FileBasedDocument@juce@@QEAA@AEBVString@1@000@Z
        313  138 00486EB0 ??0FileBrowserComponent@juce@@QEAA@HAEBVFile@1@PEBVFileFilter@1@PEAVFilePreviewComponent@1@@Z
        314  139 00078330 ??0FileBrowserListener@juce@@QEAA@AEBV01@@Z
        315  13A 00078330 ??0FileBrowserListener@juce@@QEAA@XZ
        316  13B 00484020 ??0FileChooser@juce@@QEAA@AEBVString@1@AEBVFile@1@0_N2PEAVComponent@1@@Z
        317  13C 00483390 ??0FileChooserDialogBox@juce@@QEAA@AEBVString@1@0AEAVFileBrowserComponent@1@_NVColour@1@PEAVComponent@1@@Z
        318  13D 000748E0 ??0FileDragAndDropTarget@juce@@QEAA@AEBV01@@Z
        319  13E 000748E0 ??0FileDragAndDropTarget@juce@@QEAA@XZ
        320  13F 000067B0 ??0FileFilter@juce@@QEAA@AEBV01@@Z
        321  140 002CA2F0 ??0FileFilter@juce@@QEAA@AEBVString@1@@Z
        322  141 002F1410 ??0FileInputSource@juce@@QEAA@AEBVFile@1@_N@Z
        323  142 00303DA0 ??0FileInputStream@juce@@QEAA@AEBVFile@1@@Z
        324  143 004821E0 ??0FileListComponent@juce@@QEAA@AEAVDirectoryContentsList@1@@Z
        325  144 00302DF0 ??0FileLogger@juce@@QEAA@AEBVFile@1@AEBVString@1@_J@Z
        326  145 00311A50 ??0FileOutputStream@juce@@QEAA@AEBVFile@1@_K@Z
        327  146 004836D0 ??0FilePreviewComponent@juce@@QEAA@XZ
        328  147 0030FB50 ??0FileSearchPath@juce@@QEAA@AEBV01@@Z
        329  148 0030FB20 ??0FileSearchPath@juce@@QEAA@AEBVString@1@@Z
        330  149 00006720 ??0FileSearchPath@juce@@QEAA@XZ
        331  14A 004B1EE0 ??0FileSearchPathListComponent@juce@@QEAA@XZ
        332  14B 00480450 ??0FileTreeComponent@juce@@QEAA@AEAVDirectoryContentsList@1@@Z
        333  14C 0047FD80 ??0FilenameComponent@juce@@QEAA@AEBVString@1@AEBVFile@1@_N22000@Z
        334  14D 00078420 ??0FilenameComponentListener@juce@@QEAA@AEBV01@@Z
        335  14E 00078420 ??0FilenameComponentListener@juce@@QEAA@XZ
        336  14F 003A0E70 ??0FillType@juce@@QEAA@$$QEAV01@@Z
        337  150 003A0EF0 ??0FillType@juce@@QEAA@$$QEAVColourGradient@1@@Z
        338  151 003A54F0 ??0FillType@juce@@QEAA@AEBV01@@Z
        339  152 003A0F90 ??0FillType@juce@@QEAA@AEBVColourGradient@1@@Z
        340  153 003A0EB0 ??0FillType@juce@@QEAA@AEBVImage@1@AEBVAffineTransform@1@@Z
        341  154 003A54C0 ??0FillType@juce@@QEAA@VColour@1@@Z
        342  155 003A1030 ??0FillType@juce@@QEAA@XZ
        343  156 0026BBE0 ??0FlacAudioFormat@juce@@QEAA@XZ
        344  157 00078880 ??0FlexBox@juce@@QEAA@$$QEAV01@@Z
        345  158 00078840 ??0FlexBox@juce@@QEAA@AEBV01@@Z
        346  159 00478D10 ??0FlexBox@juce@@QEAA@W4Direction@01@W4Wrap@01@W4AlignContent@01@W4AlignItems@01@W4JustifyContent@01@@Z
        347  15A 00478D40 ??0FlexBox@juce@@QEAA@W4JustifyContent@01@@Z
        348  15B 00078820 ??0FlexBox@juce@@QEAA@XZ
        349  15C 00478750 ??0FlexItem@juce@@QEAA@AEAVComponent@1@@Z
        350  15D 004786F0 ??0FlexItem@juce@@QEAA@AEAVFlexBox@1@@Z
        351  15E 00478870 ??0FlexItem@juce@@QEAA@MM@Z
        352  15F 00478810 ??0FlexItem@juce@@QEAA@MMAEAVComponent@1@@Z
        353  160 004787B0 ??0FlexItem@juce@@QEAA@MMAEAVFlexBox@1@@Z
        354  161 004788D0 ??0FlexItem@juce@@QEAA@XZ
        355  162 00074120 ??0FocusChangeListener@juce@@QEAA@AEBV01@@Z
        356  163 00074120 ??0FocusChangeListener@juce@@QEAA@XZ
        357  164 00439AD0 ??0FocusOutline@juce@@QEAA@V?$unique_ptr@UOutlineWindowProperties@FocusOutline@juce@@U?$default_delete@UOutlineWindowProperties@FocusOutline@juce@@@std@@@std@@@Z
        358  165 00073EC0 ??0FocusTraverser@juce@@QEAA@AEBV01@@Z
        359  166 00073EC0 ??0FocusTraverser@juce@@QEAA@XZ
        360  167 003A73A0 ??0Font@juce@@QEAA@$$QEAV01@@Z
        361  168 003A7380 ??0Font@juce@@QEAA@AEBV01@@Z
        362  169 00352CD0 ??0Font@juce@@QEAA@AEBV?$ReferenceCountedObjectPtr@VTypeface@juce@@@1@@Z
        363  16A 00352B60 ??0Font@juce@@QEAA@AEBVString@1@0M@Z
        364  16B 00352BE0 ??0Font@juce@@QEAA@AEBVString@1@MH@Z
        365  16C 00352C60 ??0Font@juce@@QEAA@MH@Z
        366  16D 003A71C0 ??0Font@juce@@QEAA@VFontOptions@1@@Z
        367  16E 00352D40 ??0Font@juce@@QEAA@XZ
        368  16F 00020E10 ??0FontOptions@juce@@QEAA@$$QEAV01@@Z
        369  170 00020D70 ??0FontOptions@juce@@QEAA@AEBV01@@Z
        370  171 00353AD0 ??0FontOptions@juce@@QEAA@AEBV?$ReferenceCountedObjectPtr@VTypeface@juce@@@1@@Z
        371  172 00353B60 ??0FontOptions@juce@@QEAA@AEBVString@1@0M@Z
        372  173 00353BF0 ??0FontOptions@juce@@QEAA@AEBVString@1@MH@Z
        373  174 003A3FB0 ??0FontOptions@juce@@QEAA@M@Z
        374  175 003A5050 ??0FontOptions@juce@@QEAA@MH@Z
        375  176 003A82A0 ??0FontOptions@juce@@QEAA@XZ
        376  177 0000B130 ??0FrameRate@AudioPlayHead@juce@@QEAA@W4FrameRateType@12@@Z
        377  178 0000B820 ??0FrameRate@AudioPlayHead@juce@@QEAA@XZ
        378  179 000202C0 ??0GIFImageFormat@juce@@QEAA@AEBV01@@Z
        379  17A 0038FF80 ??0GIFImageFormat@juce@@QEAA@XZ
        380  17B 002CC4D0 ??0GZIPCompressorOutputStream@juce@@QEAA@AEAVOutputStream@1@HH@Z
        381  17C 002CC3D0 ??0GZIPCompressorOutputStream@juce@@QEAA@PEAVOutputStream@1@H_NH@Z
        382  17D 002CC850 ??0GZIPDecompressorInputStream@juce@@QEAA@AEAVInputStream@1@@Z
        383  17E 002CC930 ??0GZIPDecompressorInputStream@juce@@QEAA@PEAVInputStream@1@_NW4Format@01@_J@Z
        384  17F 002A3D20 ??0GenericAudioProcessorEditor@juce@@QEAA@AEAVAudioProcessor@1@@Z
        385  180 0007CF10 ??0GenericAudioProcessorEditor@juce@@QEAA@PEAVAudioProcessor@1@@Z
        386  181 00024190 ??0GlowEffect@juce@@QEAA@AEBV01@@Z
        387  182 00340520 ??0GlowEffect@juce@@QEAA@XZ
        388  183 00343610 ??0Glyph@TextLayout@juce@@QEAA@HV?$Point@M@2@M@Z
        389  184 00005DD0 ??0GlyphArrangement@juce@@QEAA@$$QEAV01@@Z
        390  185 00021A20 ??0GlyphArrangement@juce@@QEAA@AEBV01@@Z
        391  186 003A98F0 ??0GlyphArrangement@juce@@QEAA@XZ
        392  187 003976E0 ??0Graphics@juce@@QEAA@AEAVLowLevelGraphicsContext@1@@Z
        393  188 00397700 ??0Graphics@juce@@QEAA@AEBVImage@1@@Z
        394  189 000791B0 ??0Grid@juce@@QEAA@$$QEAV01@@Z
        395  18A 00079040 ??0Grid@juce@@QEAA@AEBV01@@Z
        396  18B 00078F60 ??0Grid@juce@@QEAA@XZ
        397  18C 00078B70 ??0GridItem@juce@@QEAA@$$QEAV01@@Z
        398  18D 00477D10 ??0GridItem@juce@@QEAA@AEAVComponent@1@@Z
        399  18E 000789F0 ??0GridItem@juce@@QEAA@AEBV01@@Z
        400  18F 00477C60 ??0GridItem@juce@@QEAA@PEAVComponent@1@@Z
        401  190 00477DC0 ??0GridItem@juce@@QEAA@XZ
        402  191 004B9960 ??0GroupComponent@juce@@QEAA@AEBVString@1@0@Z
        403  192 004C0A70 ??0HWNDComponent@juce@@QEAA@XZ
        404  193 002C4DB0 ??0HighResolutionTimer@juce@@IEAA@XZ
        405  194 0007BB10 ??0HostedAudioProcessorParameter@juce@@QEAA@H@Z
        406  195 0007BA60 ??0HostedAudioProcessorParameter@juce@@QEAA@XZ
        407  196 004A1400 ??0HyperlinkButton@juce@@QEAA@AEBVString@1@AEBVURL@1@@Z
        408  197 004A1230 ??0HyperlinkButton@juce@@QEAA@XZ
        409  198 0022B170 ??0IIRCoefficients@juce@@QEAA@AEBV01@@Z
        410  199 0022B0E0 ??0IIRCoefficients@juce@@QEAA@NNNNNN@Z
        411  19A 0022B1A0 ??0IIRCoefficients@juce@@QEAA@XZ
        412  19B 0021AE60 ??0IIRFilterAudioSource@juce@@QEAA@PEAVAudioSource@1@_N@Z
        413  19C 002F2FB0 ??0IPAddress@juce@@QEAA@AEBVString@1@@Z
        414  19D 002F39A0 ??0IPAddress@juce@@QEAA@EEEE@Z
        415  19E 002F3920 ??0IPAddress@juce@@QEAA@GGGGGGGG@Z
        416  19F 002F38E0 ??0IPAddress@juce@@QEAA@I@Z
        417  1A0 002F3A50 ??0IPAddress@juce@@QEAA@PEBE_N@Z
        418  1A1 002F39D0 ??0IPAddress@juce@@QEAA@PEBG@Z
        419  1A2 002F3AC0 ??0IPAddress@juce@@QEAA@XZ
        420  1A3 0030DB90 ??0Identifier@juce@@QEAA@$$QEAV01@@Z
        421  1A4 0030DB60 ??0Identifier@juce@@QEAA@AEBV01@@Z
        422  1A5 002EF740 ??0Identifier@juce@@QEAA@AEBVString@1@@Z
        423  1A6 003153E0 ??0Identifier@juce@@QEAA@PEBD@Z
        424  1A7 002EF6F0 ??0Identifier@juce@@QEAA@VCharPointer_UTF8@1@0@Z
        425  1A8 0030DB40 ??0Identifier@juce@@QEAA@XZ
        426  1A9 003A7A10 ??0Image@juce@@QEAA@$$QEAV01@@Z
        427  1AA 003A79F0 ??0Image@juce@@QEAA@AEBV01@@Z
        428  1AB 003931C0 ??0Image@juce@@QEAA@V?$ReferenceCountedObjectPtr@VImagePixelData@juce@@@1@@Z
        429  1AC 003A79A0 ??0Image@juce@@QEAA@W4PixelFormat@01@HH_N@Z
        430  1AD 00393180 ??0Image@juce@@QEAA@W4PixelFormat@01@HH_NAEBVImageType@1@@Z
        431  1AE 003A7980 ??0Image@juce@@QEAA@XZ
        432  1AF 004B7C30 ??0ImageButton@juce@@QEAA@AEBVString@1@@Z
        433  1B0 004BBC60 ??0ImageComponent@juce@@QEAA@AEBVString@1@@Z
        434  1B1 00390CA0 ??0ImageConvolutionKernel@juce@@QEAA@H@Z
        435  1B2 00024060 ??0ImageEffectFilter@juce@@QEAA@AEBV01@@Z
        436  1B3 00024060 ??0ImageEffectFilter@juce@@QEAA@XZ
        437  1B4 00020150 ??0ImageFileFormat@juce@@IEAA@XZ
        438  1B5 00020150 ??0ImageFileFormat@juce@@QEAA@AEBV01@@Z
        439  1B6 003935D0 ??0ImagePixelData@juce@@QEAA@W4PixelFormat@Image@1@HH@Z
        440  1B7 0047E600 ??0ImagePreviewComponent@juce@@QEAA@XZ
        441  1B8 000750E0 ??0ImageProvider@ComponentBuilder@juce@@QEAA@AEBV012@@Z
        442  1B9 000750E0 ??0ImageProvider@ComponentBuilder@juce@@QEAA@XZ
        443  1BA 000203C0 ??0ImageType@juce@@QEAA@AEBV01@@Z
        444  1BB 00393440 ??0ImageType@juce@@QEAA@XZ
        445  1BC 0005B9E0 ??0IncomingDataReceiver@ThreadedWriter@AudioFormatWriter@juce@@QEAA@AEBV0123@@Z
        446  1BD 0005B9E0 ??0IncomingDataReceiver@ThreadedWriter@AudioFormatWriter@juce@@QEAA@XZ
        447  1BE 00076E40 ??0InputFilter@TextEditor@juce@@QEAA@AEBV012@@Z
        448  1BF 00076E40 ??0InputFilter@TextEditor@juce@@QEAA@XZ
        449  1C0 000061C0 ??0InputSource@juce@@QEAA@AEBV01@@Z
        450  1C1 000061C0 ??0InputSource@juce@@QEAA@XZ
        451  1C2 000060D0 ??0InputStream@juce@@IEAA@XZ
        452  1C3 00007540 ??0InputStreamOptions@URL@juce@@QEAA@$$QEAV012@@Z
        453  1C4 00007490 ??0InputStreamOptions@URL@juce@@QEAA@AEBV012@@Z
        454  1C5 002C1750 ??0InputStreamOptions@URL@juce@@QEAA@W4ParameterHandling@12@@Z
        455  1C6 002C5D80 ??0InterProcessLock@juce@@QEAA@AEBVString@1@@Z
        456  1C7 00075DC0 ??0Interfaces@AccessibilityHandler@juce@@QEAA@$$QEAU012@@Z
        457  1C8 00075BA0 ??0Interfaces@AccessibilityHandler@juce@@QEAA@V?$unique_ptr@VAccessibilityCellInterface@juce@@U?$default_delete@VAccessibilityCellInterface@juce@@@std@@@std@@@Z
        458  1C9 00075B60 ??0Interfaces@AccessibilityHandler@juce@@QEAA@V?$unique_ptr@VAccessibilityTableInterface@juce@@U?$default_delete@VAccessibilityTableInterface@juce@@@std@@@std@@@Z
        459  1CA 00075B20 ??0Interfaces@AccessibilityHandler@juce@@QEAA@V?$unique_ptr@VAccessibilityTextInterface@juce@@U?$default_delete@VAccessibilityTextInterface@juce@@@std@@@std@@@Z
        460  1CB 00075AE0 ??0Interfaces@AccessibilityHandler@juce@@QEAA@V?$unique_ptr@VAccessibilityValueInterface@juce@@U?$default_delete@VAccessibilityValueInterface@juce@@@std@@@std@@@Z
        461  1CC 00075BE0 ??0Interfaces@AccessibilityHandler@juce@@QEAA@V?$unique_ptr@VAccessibilityValueInterface@juce@@U?$default_delete@VAccessibilityValueInterface@juce@@@std@@@std@@V?$unique_ptr@VAccessibilityTextInterface@juce@@U?$default_delete@VAccessibilityTextInterface@juce@@@std@@@4@V?$unique_ptr@VAccessibilityTableInterface@juce@@U?$default_delete@VAccessibilityTableInterface@juce@@@std@@@4@V?$unique_ptr@VAccessibilityCellInterface@juce@@U?$default_delete@VAccessibilityCellInterface@juce@@@std@@@4@@Z
        462  1CD 00075D40 ??0Interfaces@AccessibilityHandler@juce@@QEAA@XZ
        463  1CE 0032E980 ??0InterprocessConnection@juce@@QEAA@_NI@Z
        464  1CF 00329770 ??0InterprocessConnectionServer@juce@@QEAA@XZ
        465  1D0 0049D680 ??0InvocationInfo@ApplicationCommandTarget@juce@@QEAA@H@Z
        466  1D1 004B6560 ??0Item@PopupMenu@juce@@QEAA@$$QEAU012@@Z
        467  1D2 0043DDB0 ??0Item@PopupMenu@juce@@QEAA@AEBU012@@Z
        468  1D3 004B64D0 ??0Item@PopupMenu@juce@@QEAA@VString@2@@Z
        469  1D4 0043E0F0 ??0Item@PopupMenu@juce@@QEAA@XZ
        470  1D5 001EF360 ??0Iterator@CodeDocument@juce@@QEAA@AEBV012@@Z
        471  1D6 004D4950 ??0Iterator@CodeDocument@juce@@QEAA@AEBV12@@Z
        472  1D7 004D4840 ??0Iterator@CodeDocument@juce@@QEAA@VPosition@12@@Z
        473  1D8 004D4820 ??0Iterator@CodeDocument@juce@@QEAA@XZ
        474  1D9 00229EC0 ??0Iterator@MidiBuffer@juce@@QEAA@AEBV12@@Z
        475  1DA 0039AD60 ??0Iterator@Path@juce@@QEAA@AEBV12@@Z
        476  1DB 00020200 ??0JPEGImageFormat@juce@@QEAA@AEBV01@@Z
        477  1DC 00372420 ??0JPEGImageFormat@juce@@QEAA@XZ
        478  1DD 004A3E30 ??0JUCEApplication@juce@@QEAA@XZ
        479  1DE 0032D510 ??0JUCEApplicationBase@juce@@IEAA@XZ
        480  1DF 00006D90 ??0JobSelector@ThreadPool@juce@@QEAA@AEBV012@@Z
        481  1E0 00006D90 ??0JobSelector@ThreadPool@juce@@QEAA@XZ
        482  1E1 00073EA0 ??0KeyListener@juce@@QEAA@AEBV01@@Z
        483  1E2 00073EA0 ??0KeyListener@juce@@QEAA@XZ
        484  1E3 004C62F0 ??0KeyMappingEditorComponent@juce@@QEAA@AEAVKeyPressMappingSet@1@_N@Z
        485  1E4 00078700 ??0KeyMappingEditorComponentMethods@ExtraLookAndFeelBaseClasses@juce@@QEAA@AEBU012@@Z
        486  1E5 00078700 ??0KeyMappingEditorComponentMethods@ExtraLookAndFeelBaseClasses@juce@@QEAA@XZ
        487  1E6 000A6000 ??0KeyPress@juce@@QEAA@AEBV01@@Z
        488  1E7 004BBC40 ??0KeyPress@juce@@QEAA@H@Z
        489  1E8 004B1600 ??0KeyPress@juce@@QEAA@HVModifierKeys@1@I@Z
        490  1E9 00073E70 ??0KeyPress@juce@@QEAA@XZ
        491  1EA 0049D520 ??0KeyPressMappingSet@juce@@QEAA@AEAVApplicationCommandManager@1@@Z
        492  1EB 0049D3C0 ??0KeyPressMappingSet@juce@@QEAA@AEBV01@@Z
        493  1EC 002B6260 ??0KeyboardComponentBase@juce@@QEAA@W4Orientation@01@@Z
        494  1ED 00074AA0 ??0KeyboardFocusTraverser@juce@@QEAA@AEBV01@@Z
        495  1EE 00074AA0 ??0KeyboardFocusTraverser@juce@@QEAA@XZ
        496  1EF 002A2410 ??0KnownPluginList@juce@@QEAA@XZ
        497  1F0 004BB6C0 ??0Label@juce@@QEAA@AEBVString@1@0@Z
        498  1F1 000786F0 ??0LassoComponentMethods@ExtraLookAndFeelBaseClasses@juce@@QEAA@AEBU012@@Z
        499  1F2 000786F0 ??0LassoComponentMethods@ExtraLookAndFeelBaseClasses@juce@@QEAA@XZ
        500  1F3 004094A0 ??0LaunchOptions@DialogWindow@juce@@QEAA@XZ
        501  1F4 0041E210 ??0LengthAndCharacterRestriction@TextEditor@juce@@QEAA@HAEBVString@2@@Z
        502  1F5 000223B0 ??0Line@TextLayout@juce@@QEAA@$$QEAV012@@Z
        503  1F6 00343370 ??0Line@TextLayout@juce@@QEAA@AEBV012@@Z
        504  1F7 003434C0 ??0Line@TextLayout@juce@@QEAA@V?$Range@H@2@V?$Point@M@2@MMMH@Z
        505  1F8 00022360 ??0Line@TextLayout@juce@@QEAA@XZ
        506  1F9 00433260 ??0LineTo@RelativePointPath@juce@@QEAA@AEBVRelativePoint@2@@Z
        507  1FA 004B8E10 ??0ListBox@juce@@QEAA@AEBVString@1@PEAVListBoxModel@1@@Z
        508  1FB 00077190 ??0ListBoxModel@juce@@QEAA@AEBV01@@Z
        509  1FC 000770D0 ??0ListBoxModel@juce@@QEAA@XZ
        510  1FD 0007B950 ??0Listener@AudioProcessorParameter@juce@@QEAA@AEBV012@@Z
        511  1FE 0007B950 ??0Listener@AudioProcessorParameter@juce@@QEAA@XZ
        512  1FF 00080240 ??0Listener@AudioProcessorValueTreeState@juce@@QEAA@AEBU012@@Z
        513  200 00080240 ??0Listener@AudioProcessorValueTreeState@juce@@QEAA@XZ
        514  201 00075050 ??0Listener@Button@juce@@QEAA@AEBV012@@Z
        515  202 00075050 ??0Listener@Button@juce@@QEAA@XZ
        516  203 00079730 ??0Listener@CodeDocument@juce@@QEAA@AEBV012@@Z
        517  204 00079730 ??0Listener@CodeDocument@juce@@QEAA@XZ
        518  205 00077020 ??0Listener@ComboBox@juce@@QEAA@AEBV012@@Z
        519  206 00077020 ??0Listener@ComboBox@juce@@QEAA@XZ
        520  207 00076F40 ??0Listener@Label@juce@@QEAA@AEBV012@@Z
        521  208 00076F40 ??0Listener@Label@juce@@QEAA@XZ
        522  209 0000A1D0 ??0Listener@MPEInstrument@juce@@QEAA@AEBV012@@Z
        523  20A 0000A1D0 ??0Listener@MPEInstrument@juce@@QEAA@XZ
        524  20B 00076610 ??0Listener@MarkerList@juce@@QEAA@AEBV012@@Z
        525  20C 00076610 ??0Listener@MarkerList@juce@@QEAA@XZ
        526  20D 000764F0 ??0Listener@MenuBarModel@juce@@QEAA@AEBV012@@Z
        527  20E 000764F0 ??0Listener@MenuBarModel@juce@@QEAA@XZ
        528  20F 00009F50 ??0Listener@MidiKeyboardState@juce@@QEAA@AEBV012@@Z
        529  210 00009F50 ??0Listener@MidiKeyboardState@juce@@QEAA@XZ
        530  211 00075220 ??0Listener@ScrollBar@juce@@QEAA@AEBV012@@Z
        531  212 00075220 ??0Listener@ScrollBar@juce@@QEAA@XZ
        532  213 00077460 ??0Listener@TableHeaderComponent@juce@@QEAA@AEBV012@@Z
        533  214 00077460 ??0Listener@TableHeaderComponent@juce@@QEAA@XZ
        534  215 00076E30 ??0Listener@TextEditor@juce@@QEAA@AEBV012@@Z
        535  216 00076E30 ??0Listener@TextEditor@juce@@QEAA@XZ
        536  217 000786D0 ??0Listener@TextPropertyComponent@juce@@QEAA@AEBV012@@Z
        537  218 000786D0 ??0Listener@TextPropertyComponent@juce@@QEAA@XZ
        538  219 00006C60 ??0Listener@Thread@juce@@QEAA@AEBV012@@Z
        539  21A 00006C60 ??0Listener@Thread@juce@@QEAA@XZ
        540  21B 000722E0 ??0Listener@Value@juce@@QEAA@AEBV012@@Z
        541  21C 000722E0 ??0Listener@Value@juce@@QEAA@XZ
        542  21D 00072300 ??0Listener@ValueTree@juce@@QEAA@AEBV012@@Z
        543  21E 00072300 ??0Listener@ValueTree@juce@@QEAA@XZ
        544  21F 00007A70 ??0Listener@WebInputStream@juce@@QEAA@AEBV012@@Z
        545  220 00007A70 ??0Listener@WebInputStream@juce@@QEAA@XZ
        546  221 002EF500 ??0LocalisedStrings@juce@@QEAA@AEBV01@@Z
        547  222 002EF5C0 ??0LocalisedStrings@juce@@QEAA@AEBVFile@1@_N@Z
        548  223 002EF670 ??0LocalisedStrings@juce@@QEAA@AEBVString@1@_N@Z
        549  224 0032C3D0 ??0Lock@MessageManager@juce@@QEAA@XZ
        550  225 0032B4B0 ??0LockingAsyncUpdater@juce@@QEAA@$$QEAV01@@Z
        551  226 0032DC40 ??0LockingAsyncUpdater@juce@@QEAA@V?$function@$$A6AXXZ@std@@@Z
        552  227 00302200 ??0Logger@juce@@IEAA@XZ
        553  228 00005860 ??0Logger@juce@@QEAA@AEBV01@@Z
        554  229 00468B30 ??0LookAndFeel@juce@@QEAA@XZ
        555  22A 00077C50 ??0LookAndFeelMethods@AlertWindow@juce@@QEAA@AEBU012@@Z
        556  22B 00077C50 ??0LookAndFeelMethods@AlertWindow@juce@@QEAA@XZ
        557  22C 000786E0 ??0LookAndFeelMethods@BubbleComponent@juce@@QEAA@AEBU012@@Z
        558  22D 000786E0 ??0LookAndFeelMethods@BubbleComponent@juce@@QEAA@XZ
        559  22E 00075060 ??0LookAndFeelMethods@Button@juce@@QEAA@AEBU012@@Z
        560  22F 00075060 ??0LookAndFeelMethods@Button@juce@@QEAA@XZ
        561  230 00077C60 ??0LookAndFeelMethods@CallOutBox@juce@@QEAA@AEBU012@@Z
        562  231 00077C60 ??0LookAndFeelMethods@CallOutBox@juce@@QEAA@XZ
        563  232 00077030 ??0LookAndFeelMethods@ComboBox@juce@@QEAA@AEBU012@@Z
        564  233 00077030 ??0LookAndFeelMethods@ComboBox@juce@@QEAA@XZ
        565  234 00075100 ??0LookAndFeelMethods@ConcertinaPanel@juce@@QEAA@AEBU012@@Z
        566  235 00075100 ??0LookAndFeelMethods@ConcertinaPanel@juce@@QEAA@XZ
        567  236 000780F0 ??0LookAndFeelMethods@DocumentWindow@juce@@QEAA@AEBU012@@Z
        568  237 000780F0 ??0LookAndFeelMethods@DocumentWindow@juce@@QEAA@XZ
        569  238 00078410 ??0LookAndFeelMethods@FileBrowserComponent@juce@@QEAA@AEBU012@@Z
        570  239 00078410 ??0LookAndFeelMethods@FileBrowserComponent@juce@@QEAA@XZ
        571  23A 00078430 ??0LookAndFeelMethods@FilenameComponent@juce@@QEAA@AEBU012@@Z
        572  23B 00078430 ??0LookAndFeelMethods@FilenameComponent@juce@@QEAA@XZ
        573  23C 00075120 ??0LookAndFeelMethods@GroupComponent@juce@@QEAA@AEBU012@@Z
        574  23D 00075120 ??0LookAndFeelMethods@GroupComponent@juce@@QEAA@XZ
        575  23E 000750B0 ??0LookAndFeelMethods@ImageButton@juce@@QEAA@AEBU012@@Z
        576  23F 000750B0 ??0LookAndFeelMethods@ImageButton@juce@@QEAA@XZ
        577  240 00076F50 ??0LookAndFeelMethods@Label@juce@@QEAA@AEBU012@@Z
        578  241 00076F50 ??0LookAndFeelMethods@Label@juce@@QEAA@XZ
        579  242 000764C0 ??0LookAndFeelMethods@PopupMenu@juce@@QEAA@AEBU012@@Z
        580  243 000764C0 ??0LookAndFeelMethods@PopupMenu@juce@@QEAA@XZ
        581  244 00077390 ??0LookAndFeelMethods@ProgressBar@juce@@QEAA@AEBU012@@Z
        582  245 00077390 ??0LookAndFeelMethods@ProgressBar@juce@@QEAA@XZ
        583  246 00078650 ??0LookAndFeelMethods@PropertyComponent@juce@@QEAA@AEBU012@@Z
        584  247 00078650 ??0LookAndFeelMethods@PropertyComponent@juce@@QEAA@XZ
        585  248 000780E0 ??0LookAndFeelMethods@ResizableWindow@juce@@QEAA@AEBU012@@Z
        586  249 000780E0 ??0LookAndFeelMethods@ResizableWindow@juce@@QEAA@XZ
        587  24A 00075230 ??0LookAndFeelMethods@ScrollBar@juce@@QEAA@AEBU012@@Z
        588  24B 00075230 ??0LookAndFeelMethods@ScrollBar@juce@@QEAA@XZ
        589  24C 00078320 ??0LookAndFeelMethods@SidePanel@juce@@QEAA@AEBU012@@Z
        590  24D 00078320 ??0LookAndFeelMethods@SidePanel@juce@@QEAA@XZ
        591  24E 00077450 ??0LookAndFeelMethods@Slider@juce@@QEAA@AEBU012@@Z
        592  24F 00077450 ??0LookAndFeelMethods@Slider@juce@@QEAA@XZ
        593  250 00075240 ??0LookAndFeelMethods@StretchableLayoutResizerBar@juce@@QEAA@AEBU012@@Z
        594  251 00075240 ??0LookAndFeelMethods@StretchableLayoutResizerBar@juce@@QEAA@XZ
        595  252 000752D0 ??0LookAndFeelMethods@TabbedButtonBar@juce@@QEAA@AEBU012@@Z
        596  253 000752D0 ??0LookAndFeelMethods@TabbedButtonBar@juce@@QEAA@XZ
        597  254 00077470 ??0LookAndFeelMethods@TableHeaderComponent@juce@@QEAA@AEBU012@@Z
        598  255 00077470 ??0LookAndFeelMethods@TableHeaderComponent@juce@@QEAA@XZ
        599  256 00076E50 ??0LookAndFeelMethods@TextEditor@juce@@QEAA@AEBU012@@Z
        600  257 00076E50 ??0LookAndFeelMethods@TextEditor@juce@@QEAA@XZ
        601  258 00077500 ??0LookAndFeelMethods@Toolbar@juce@@QEAA@AEBU012@@Z
        602  259 00077500 ??0LookAndFeelMethods@Toolbar@juce@@QEAA@XZ
        603  25A 000781D0 ??0LookAndFeelMethods@TooltipWindow@juce@@QEAA@AEBU012@@Z
        604  25B 000781D0 ??0LookAndFeelMethods@TooltipWindow@juce@@QEAA@XZ
        605  25C 00077670 ??0LookAndFeelMethods@TreeView@juce@@QEAA@AEBU012@@Z
        606  25D 00077670 ??0LookAndFeelMethods@TreeView@juce@@QEAA@XZ
        607  25E 00467FA0 ??0LookAndFeel_V1@juce@@QEAA@XZ
        608  25F 00463840 ??0LookAndFeel_V2@juce@@QEAA@XZ
        609  260 0044F910 ??0LookAndFeel_V3@juce@@QEAA@XZ
        610  261 0044ACA0 ??0LookAndFeel_V4@juce@@QEAA@VColourScheme@01@@Z
        611  262 0044AE60 ??0LookAndFeel_V4@juce@@QEAA@XZ
        612  263 00006720 ??0LoopPoints@AudioPlayHead@juce@@QEAA@XZ
        613  264 00022CE0 ??0LowLevelGraphicsContext@juce@@IEAA@XZ
        614  265 00022CE0 ??0LowLevelGraphicsContext@juce@@QEAA@AEBV01@@Z
        615  266 003937C0 ??0LowLevelGraphicsSoftwareRenderer@juce@@QEAA@AEBVImage@1@@Z
        616  267 00393670 ??0LowLevelGraphicsSoftwareRenderer@juce@@QEAA@AEBVImage@1@V?$Point@H@1@AEBV?$RectangleList@H@1@@Z
        617  268 004C7EC0 ??0LuaTokeniser@juce@@QEAA@XZ
        618  269 002F9190 ??0MACAddress@juce@@QEAA@AEBV01@@Z
        619  26A 002F9150 ??0MACAddress@juce@@QEAA@QEBE@Z
        620  26B 002F90F0 ??0MACAddress@juce@@QEAA@VStringRef@1@@Z
        621  26C 002F91B0 ??0MACAddress@juce@@QEAA@XZ
        622  26D 0031A7A0 ??0MD5@juce@@QEAA@AEAVInputStream@1@_J@Z
        623  26E 0031AB20 ??0MD5@juce@@QEAA@AEBV01@@Z
        624  26F 0031A6B0 ??0MD5@juce@@QEAA@AEBVFile@1@@Z
        625  270 0031AA00 ??0MD5@juce@@QEAA@AEBVMemoryBlock@1@@Z
        626  271 0031AA30 ??0MD5@juce@@QEAA@PEBX_K@Z
        627  272 0031A9B0 ??0MD5@juce@@QEAA@VCharPointer_UTF8@1@@Z
        628  273 0031AB40 ??0MD5@juce@@QEAA@XZ
        629  274 00221C70 ??0MPEInstrument@juce@@QEAA@VMPEZoneLayout@1@@Z
        630  275 00221D50 ??0MPEInstrument@juce@@QEAA@XZ
        631  276 002B25F0 ??0MPEKeyboardComponent@juce@@QEAA@AEAVMPEInstrument@1@W4Orientation@KeyboardComponentBase@1@@Z
        632  277 00222970 ??0MPENote@juce@@QEAA@HHVMPEValue@1@000W4KeyState@01@@Z
        633  278 00222940 ??0MPENote@juce@@QEAA@XZ
        634  279 0021DA40 ??0MPESynthesiser@juce@@QEAA@AEAVMPEInstrument@1@@Z
        635  27A 0021DAC0 ??0MPESynthesiser@juce@@QEAA@XZ
        636  27B 0021DFB0 ??0MPESynthesiserBase@juce@@QEAA@AEAVMPEInstrument@1@@Z
        637  27C 0021E110 ??0MPESynthesiserBase@juce@@QEAA@XZ
        638  27D 0021DC30 ??0MPESynthesiserVoice@juce@@QEAA@XZ
        639  27E 00222BA0 ??0MPEValue@juce@@AEAA@H@Z
        640  27F 00222BB0 ??0MPEValue@juce@@QEAA@XZ
        641  280 00222740 ??0MPEZoneLayout@juce@@QEAA@AEBV01@@Z
        642  281 00222850 ??0MPEZoneLayout@juce@@QEAA@UMPEZone@1@0@Z
        643  282 002227A0 ??0MPEZoneLayout@juce@@QEAA@UMPEZone@1@@Z
        644  283 0000A140 ??0MPEZoneLayout@juce@@QEAA@XZ
        645  284 00436670 ??0Marker@MarkerList@juce@@QEAA@AEBV012@@Z
        646  285 00436630 ??0Marker@MarkerList@juce@@QEAA@AEBVString@2@AEBVRelativeCoordinate@2@@Z
        647  286 00436ED0 ??0MarkerList@juce@@QEAA@AEBV01@@Z
        648  287 00436F10 ??0MarkerList@juce@@QEAA@XZ
        649  288 0021A990 ??0MemoryAudioSource@juce@@QEAA@AEAV?$AudioBuffer@M@1@_N1@Z
        650  289 00316B20 ??0MemoryBlock@juce@@QEAA@$$QEAV01@@Z
        651  28A 00316AC0 ??0MemoryBlock@juce@@QEAA@AEBV01@@Z
        652  28B 00311520 ??0MemoryBlock@juce@@QEAA@PEBX_K@Z
        653  28C 00316AA0 ??0MemoryBlock@juce@@QEAA@XZ
        654  28D 00313D30 ??0MemoryBlock@juce@@QEAA@_K_N@Z
        655  28E 002F1170 ??0MemoryInputStream@juce@@QEAA@$$QEAVMemoryBlock@1@@Z
        656  28F 0030C8D0 ??0MemoryInputStream@juce@@QEAA@AEBVMemoryBlock@1@_N@Z
        657  290 0030C810 ??0MemoryInputStream@juce@@QEAA@PEBX_K_N@Z
        658  291 0028EF80 ??0MemoryMappedAudioFormatReader@juce@@IEAA@AEBVFile@1@AEBVAudioFormatReader@1@_J2H@Z
        659  292 00311BD0 ??0MemoryMappedFile@juce@@QEAA@AEBVFile@1@AEBV?$Range@_J@1@W4AccessMode@01@_N@Z
        660  293 00303E00 ??0MemoryMappedFile@juce@@QEAA@AEBVFile@1@W4AccessMode@01@_N@Z
        661  294 003117D0 ??0MemoryOutputStream@juce@@QEAA@AEAVMemoryBlock@1@_N@Z
        662  295 002F0FC0 ??0MemoryOutputStream@juce@@QEAA@PEAX_K@Z
        663  296 00316C60 ??0MemoryOutputStream@juce@@QEAA@_K@Z
        664  297 004BB920 ??0MenuBarComponent@juce@@QEAA@PEAVMenuBarModel@1@@Z
        665  298 0043E740 ??0MenuBarModel@juce@@QEAA@XZ
        666  299 000763F0 ??0MenuItemIterator@PopupMenu@juce@@QEAA@AEBV012@@Z
        667  29A 0043B060 ??0MenuItemIterator@PopupMenu@juce@@QEAA@AEBV12@_N@Z
        668  29B 0032DDA0 ??0Message@juce@@QEAA@XZ
        669  29C 0001EE80 ??0MessageBase@MessageManager@juce@@QEAA@XZ
        670  29D 00077A30 ??0MessageBoxOptions@juce@@QEAA@AEBV01@@Z
        671  29E 00077940 ??0MessageBoxOptions@juce@@QEAA@XZ
        672  29F 0032DAA0 ??0MessageListener@juce@@QEAA@XZ
        673  2A0 0032CB00 ??0MessageManager@juce@@AEAA@XZ
        674  2A1 0032E1F0 ??0MessageManagerLock@juce@@QEAA@PEAVThread@1@@Z
        675  2A2 0032BC20 ??0MessageManagerLock@juce@@QEAA@PEAVThreadPoolJob@1@@Z
        676  2A3 00005DD0 ??0MidiBuffer@juce@@QEAA@$$QEAV01@@Z
        677  2A4 00009DE0 ??0MidiBuffer@juce@@QEAA@AEBV01@@Z
        678  2A5 0022A440 ??0MidiBuffer@juce@@QEAA@AEBVMidiMessage@1@@Z
        679  2A6 00006720 ??0MidiBuffer@juce@@QEAA@XZ
        680  2A7 00009DA0 ??0MidiBufferIterator@juce@@QEAA@PEBE@Z
        681  2A8 000060C0 ??0MidiBufferIterator@juce@@QEAA@XZ
        682  2A9 002293C0 ??0MidiFile@juce@@QEAA@$$QEAV01@@Z
        683  2AA 00229450 ??0MidiFile@juce@@QEAA@AEBV01@@Z
        684  2AB 00229480 ??0MidiFile@juce@@QEAA@XZ
        685  2AC 0023FB60 ??0MidiInput@juce@@AEAA@AEBVString@1@0@Z
        686  2AD 00024400 ??0MidiInputCallback@juce@@QEAA@AEBV01@@Z
        687  2AE 00024400 ??0MidiInputCallback@juce@@QEAA@XZ
        688  2AF 002B4720 ??0MidiKeyboardComponent@juce@@QEAA@AEAVMidiKeyboardState@1@W4Orientation@KeyboardComponentBase@1@@Z
        689  2B0 002287D0 ??0MidiKeyboardState@juce@@QEAA@XZ
        690  2B1 002274E0 ??0MidiMessage@juce@@QEAA@$$QEAV01@@Z
        691  2B2 00227810 ??0MidiMessage@juce@@QEAA@AEBV01@@Z
        692  2B3 002277A0 ??0MidiMessage@juce@@QEAA@AEBV01@N@Z
        693  2B4 00227880 ??0MidiMessage@juce@@QEAA@HHHN@Z
        694  2B5 002278B0 ??0MidiMessage@juce@@QEAA@HHN@Z
        695  2B6 002278D0 ??0MidiMessage@juce@@QEAA@HN@Z
        696  2B7 002275C0 ??0MidiMessage@juce@@QEAA@PEBXHAEAHEN_N@Z
        697  2B8 002278F0 ??0MidiMessage@juce@@QEAA@PEBXHN@Z
        698  2B9 00227950 ??0MidiMessage@juce@@QEAA@XZ
        699  2BA 002366B0 ??0MidiMessageCollector@juce@@QEAA@XZ
        700  2BB 00224660 ??0MidiMessageSequence@juce@@QEAA@$$QEAV01@@Z
        701  2BC 00224700 ??0MidiMessageSequence@juce@@QEAA@AEBV01@@Z
        702  2BD 00224870 ??0MidiMessageSequence@juce@@QEAA@XZ
        703  2BE 0023F250 ??0MidiOutput@juce@@AEAA@AEBVString@1@0@Z
        704  2BF 00009FA0 ??0MidiRPNDetector@juce@@QEAA@XZ
        705  2C0 0021A670 ??0MixerAudioSource@juce@@QEAA@XZ
        706  2C1 004B5B50 ??0ModalComponentManager@juce@@IEAA@XZ
        707  2C2 0000A000 ??0ModifierKeys@juce@@QEAA@AEBV01@@Z
        708  2C3 004B3020 ??0ModifierKeys@juce@@QEAA@H@Z
        709  2C4 00006BF0 ??0ModifierKeys@juce@@QEAA@XZ
        710  2C5 00327900 ??0MountedVolumeListChangeDetector@juce@@QEAA@XZ
        711  2C6 004A55B0 ??0MouseCursor@juce@@QEAA@$$QEAV01@@Z
        712  2C7 004A56D0 ??0MouseCursor@juce@@QEAA@AEBV01@@Z
        713  2C8 004A5840 ??0MouseCursor@juce@@QEAA@AEBVImage@1@HH@Z
        714  2C9 004A57C0 ??0MouseCursor@juce@@QEAA@AEBVImage@1@HHM@Z
        715  2CA 004A5700 ??0MouseCursor@juce@@QEAA@AEBVScaledImage@1@V?$Point@H@1@@Z
        716  2CB 004A58C0 ??0MouseCursor@juce@@QEAA@W4StandardCursorType@01@@Z
        717  2CC 004A59C0 ??0MouseCursor@juce@@QEAA@XZ
        718  2CD 00073DE0 ??0MouseEvent@juce@@QEAA@$$QEAV01@@Z
        719  2CE 00073DE0 ??0MouseEvent@juce@@QEAA@AEBV01@@Z
        720  2CF 004382C0 ??0MouseEvent@juce@@QEAA@VMouseInputSource@1@V?$Point@M@1@VModifierKeys@1@MMMMMPEAVComponent@1@3VTime@1@14H_N@Z
        721  2D0 00437A90 ??0MouseInactivityDetector@juce@@QEAA@AEAVComponent@1@@Z
        722  2D1 004377D0 ??0MouseInputSource@juce@@AEAA@PEAVMouseInputSourceImpl@detail@1@@Z
        723  2D2 004B71E0 ??0MouseInputSource@juce@@QEAA@AEBV01@@Z
        724  2D3 00073CD0 ??0MouseListener@juce@@QEAA@AEBV01@@Z
        725  2D4 00073CD0 ??0MouseListener@juce@@QEAA@XZ
        726  2D5 00476E00 ??0MultiDocumentPanel@juce@@QEAA@XZ
        727  2D6 004770D0 ??0MultiDocumentPanelWindow@juce@@QEAA@VColour@1@@Z
        728  2D7 0032B1E0 ??0MultiTimer@juce@@IEAA@AEBV01@@Z
        729  2D8 0032B210 ??0MultiTimer@juce@@IEAA@XZ
        730  2D9 002F5860 ??0NamedPipe@juce@@QEAA@XZ
        731  2DA 0030C480 ??0NamedValue@NamedValueSet@juce@@QEAA@$$QEAU012@@Z
        732  2DB 0030C400 ??0NamedValue@NamedValueSet@juce@@QEAA@$$QEAVIdentifier@2@$$QEAVvar@2@@Z
        733  2DC 0030C4C0 ??0NamedValue@NamedValueSet@juce@@QEAA@AEBU012@@Z
        734  2DD 0030C440 ??0NamedValue@NamedValueSet@juce@@QEAA@AEBVIdentifier@2@$$QEAVvar@2@@Z
        735  2DE 0030C510 ??0NamedValue@NamedValueSet@juce@@QEAA@AEBVIdentifier@2@AEBVvar@2@@Z
        736  2DF 0030C5C0 ??0NamedValue@NamedValueSet@juce@@QEAA@XZ
        737  2E0 0030C2F0 ??0NamedValueSet@juce@@QEAA@$$QEAV01@@Z
        738  2E1 0030C320 ??0NamedValueSet@juce@@QEAA@AEBV01@@Z
        739  2E2 0030C210 ??0NamedValueSet@juce@@QEAA@V?$initializer_list@UNamedValue@NamedValueSet@juce@@@std@@@Z
        740  2E3 0030DBF0 ??0NamedValueSet@juce@@QEAA@XZ
        741  2E4 002DC310 ??0NativeFunctionArgs@var@juce@@QEAA@AEBV12@PEBV12@H@Z
        742  2E5 00020500 ??0NativeImageType@juce@@QEAA@AEBV01@@Z
        743  2E6 00393400 ??0NativeImageType@juce@@QEAA@XZ
        744  2E7 0007CBD0 ??0Node@AudioProcessorGraph@juce@@QEAA@UNodeID@12@V?$unique_ptr@VAudioProcessor@juce@@U?$default_delete@VAudioProcessor@juce@@@std@@@std@@@Z
        745  2E8 00246500 ??0OggVorbisAudioFormat@juce@@QEAA@XZ
        746  2E9 004D7180 ??0OpenGLAppComponent@juce@@QEAA@XZ
        747  2EA 004D8850 ??0OpenGLContext@juce@@QEAA@XZ
        748  2EB 004DBFB0 ??0OpenGLFrameBuffer@juce@@QEAA@XZ
        749  2EC 004DB250 ??0OpenGLGraphicsContextCustomShader@juce@@QEAA@AEBVString@1@@Z
        750  2ED 00202970 ??0OpenGLImageType@juce@@QEAA@AEBV01@@Z
        751  2EE 004DA390 ??0OpenGLImageType@juce@@QEAA@XZ
        752  2EF 004DA1C0 ??0OpenGLPixelFormat@juce@@QEAA@HHHH@Z
        753  2F0 00202960 ??0OpenGLRenderer@juce@@QEAA@AEBV01@@Z
        754  2F1 00202960 ??0OpenGLRenderer@juce@@QEAA@XZ
        755  2F2 004DA060 ??0OpenGLShaderProgram@juce@@QEAA@AEBVOpenGLContext@1@@Z
        756  2F3 004D9240 ??0OpenGLTexture@juce@@QEAA@XZ
        757  2F4 0040FEF0 ??0OpennessRestorer@TreeViewItem@juce@@QEAA@AEAV12@@Z
        758  2F5 00077CF0 ??0OptionalBorderSize@ComponentPeer@juce@@QEAA@V?$BorderSize@H@2@@Z
        759  2F6 00077CD0 ??0OptionalBorderSize@ComponentPeer@juce@@QEAA@XZ
        760  2F7 00076200 ??0Options@PopupMenu@juce@@QEAA@AEBV012@@Z
        761  2F8 004B63A0 ??0Options@PopupMenu@juce@@QEAA@XZ
        762  2F9 00073A60 ??0Options@PropertiesFile@juce@@QEAA@$$QEAU012@@Z
        763  2FA 000739D0 ??0Options@PropertiesFile@juce@@QEAA@AEBU012@@Z
        764  2FB 003275B0 ??0Options@PropertiesFile@juce@@QEAA@XZ
        765  2FC 0007ADC0 ??0Options@WebBrowserComponent@juce@@QEAA@$$QEAV012@@Z
        766  2FD 0007A9D0 ??0Options@WebBrowserComponent@juce@@QEAA@AEBV012@@Z
        767  2FE 0007A800 ??0Options@WebBrowserComponent@juce@@QEAA@XZ
        768  2FF 000775E0 ??0OutlineWindowProperties@FocusOutline@juce@@QEAA@AEBU012@@Z
        769  300 000775E0 ??0OutlineWindowProperties@FocusOutline@juce@@QEAA@XZ
        770  301 002E8080 ??0OutputStream@juce@@IEAA@XZ
        771  302 00020160 ??0PNGImageFormat@juce@@QEAA@AEBV01@@Z
        772  303 003566F0 ??0PNGImageFormat@juce@@QEAA@XZ
        773  304 00080160 ??0ParameterLayout@AudioProcessorValueTreeState@juce@@QEAA@$$QEAV012@@Z
        774  305 00009960 ??0Parameters@ADSR@juce@@QEAA@MMMM@Z
        775  306 00009C50 ??0Parameters@ADSR@juce@@QEAA@XZ
        776  307 003A9640 ??0Path@juce@@QEAA@$$QEAV01@@Z
        777  308 0039F390 ??0Path@juce@@QEAA@AEBV01@@Z
        778  309 003A9620 ??0Path@juce@@QEAA@XZ
        779  30A 0039AB50 ??0PathFlatteningIterator@juce@@QEAA@AEBVPath@1@AEBVAffineTransform@1@M@Z
        780  30B 00399D00 ??0PathStrokeType@juce@@QEAA@AEBV01@@Z
        781  30C 003A50F0 ??0PathStrokeType@juce@@QEAA@M@Z
        782  30D 00399D20 ??0PathStrokeType@juce@@QEAA@MW4JointStyle@01@W4EndCapStyle@01@@Z
        783  30E 002E3660 ??0PerformanceCounter@juce@@QEAA@AEBVString@1@HAEBVFile@1@@Z
        784  30F 0001FD10 ??0PixelARGB@juce@@AEAA@I@Z
        785  310 0001FA00 ??0PixelARGB@juce@@QEAA@EEEE@Z
        786  311 0001FEE0 ??0PixelAlpha@juce@@AEAA@I@Z
        787  312 0001FE00 ??0PixelRGB@juce@@AEAA@I@Z
        788  313 0007C650 ??0PluginDescription@juce@@QEAA@$$QEAV01@@Z
        789  314 0007C570 ??0PluginDescription@juce@@QEAA@AEBV01@@Z
        790  315 0007C430 ??0PluginDescription@juce@@QEAA@XZ
        791  316 0029FDD0 ??0PluginDirectoryScanner@juce@@QEAA@AEAVKnownPluginList@1@AEAVAudioPluginFormat@1@VFileSearchPath@1@_NAEBVFile@1@3@Z
        792  317 0029EDA0 ??0PluginListComponent@juce@@QEAA@AEAVAudioPluginFormatManager@1@AEAVKnownPluginList@1@AEBVFile@1@PEAVPropertiesFile@1@_N@Z
        793  318 004B6F00 ??0PopupMenu@juce@@QEAA@$$QEAV01@@Z
        794  319 004B6EC0 ??0PopupMenu@juce@@QEAA@AEBV01@@Z
        795  31A 000764D0 ??0PopupMenu@juce@@QEAA@XZ
        796  31B 004D54F0 ??0Position@CodeDocument@juce@@QEAA@AEBV012@@Z
        797  31C 004D54C0 ??0Position@CodeDocument@juce@@QEAA@AEBV12@H@Z
        798  31D 004D4030 ??0Position@CodeDocument@juce@@QEAA@AEBV12@HH@Z
        799  31E 004D4070 ??0Position@CodeDocument@juce@@QEAA@XZ
        800  31F 0000A650 ??0PositionableAudioSource@juce@@IEAA@XZ
        801  320 0000A650 ??0PositionableAudioSource@juce@@QEAA@AEBV01@@Z
        802  321 00021730 ??0PositionedGlyph@juce@@QEAA@$$QEAV01@@Z
        803  322 000216F0 ??0PositionedGlyph@juce@@QEAA@AEBV01@@Z
        804  323 003483D0 ??0PositionedGlyph@juce@@QEAA@AEBVFont@1@IHMMM_N@Z
        805  324 00348420 ??0PositionedGlyph@juce@@QEAA@XZ
        806  325 00497670 ??0Positioner@Component@juce@@QEAA@AEAV12@@Z
        807  326 004C5CF0 ??0PreferencesPanel@juce@@QEAA@XZ
        808  327 00426D60 ??0ProgressBar@juce@@QEAA@AEAN@Z
        809  328 00426E70 ??0ProgressBar@juce@@QEAA@AEANV?$optional@W4Style@ProgressBar@juce@@@std@@@Z
        810  329 003205E0 ??0PropertiesFile@juce@@QEAA@AEBUOptions@01@@Z
        811  32A 00320730 ??0PropertiesFile@juce@@QEAA@AEBVFile@1@AEBUOptions@01@@Z
        812  32B 0042E920 ??0PropertyComponent@juce@@QEAA@AEBVString@1@H@Z
        813  32C 0042E660 ??0PropertyPanel@juce@@QEAA@AEBVString@1@@Z
        814  32D 0042E6D0 ??0PropertyPanel@juce@@QEAA@XZ
        815  32E 0030B310 ??0PropertySet@juce@@QEAA@AEBV01@@Z
        816  32F 003167F0 ??0PropertySet@juce@@QEAA@_N@Z
        817  330 004D6150 ??0PushNotifications@juce@@AEAA@XZ
        818  331 004330C0 ??0QuadraticTo@RelativePointPath@juce@@QEAA@AEBVRelativePoint@2@0@Z
        819  332 000BFAF0 ??0RSAKey@juce@@QEAA@$$QEAV01@@Z
        820  333 000BFAC0 ??0RSAKey@juce@@QEAA@AEBV01@@Z
        821  334 0031B8B0 ??0RSAKey@juce@@QEAA@AEBVString@1@@Z
        822  335 0031BAA0 ??0RSAKey@juce@@QEAA@XZ
        823  336 002FC6C0 ??0Random@juce@@QEAA@XZ
        824  337 002FC6F0 ??0Random@juce@@QEAA@_J@Z
        825  338 0007D610 ??0RangedAudioParameter@juce@@QEAA@AEBVParameterID@1@AEBVString@1@1W4Category@AudioProcessorParameter@1@@Z
        826  339 0007D640 ??0RangedAudioParameter@juce@@QEAA@AEBVParameterID@1@AEBVString@1@AEBVAudioProcessorParameterWithIDAttributes@1@@Z
        827  33A 002E5BF0 ??0ReadWriteLock@juce@@QEAA@XZ
        828  33B 00079D80 ??0RecentlyOpenedFilesList@juce@@QEAA@$$QEAV01@@Z
        829  33C 00079D40 ??0RecentlyOpenedFilesList@juce@@QEAA@AEBV01@@Z
        830  33D 004C4A70 ??0RecentlyOpenedFilesList@juce@@QEAA@XZ
        831  33E 0000A000 ??0RectanglePlacement@juce@@QEAA@AEBV01@@Z
        832  33F 0001FD10 ??0RectanglePlacement@juce@@QEAA@H@Z
        833  340 00020140 ??0RectanglePlacement@juce@@QEAA@XZ
        834  341 000059C0 ??0ReferenceCountedObject@juce@@IEAA@$$QEAV01@@Z
        835  342 000059C0 ??0ReferenceCountedObject@juce@@IEAA@AEBV01@@Z
        836  343 000059C0 ??0ReferenceCountedObject@juce@@IEAA@XZ
        837  344 004B8920 ??0RelativeCoordinate@juce@@QEAA@$$QEAV01@@Z
        838  345 004B8900 ??0RelativeCoordinate@juce@@QEAA@AEBV01@@Z
        839  346 00436300 ??0RelativeCoordinate@juce@@QEAA@AEBVExpression@1@@Z
        840  347 00436140 ??0RelativeCoordinate@juce@@QEAA@AEBVString@1@@Z
        841  348 004362A0 ??0RelativeCoordinate@juce@@QEAA@N@Z
        842  349 00436320 ??0RelativeCoordinate@juce@@QEAA@XZ
        843  34A 00435BC0 ??0RelativeCoordinatePositionerBase@juce@@QEAA@AEAVComponent@1@@Z
        844  34B 000769F0 ??0RelativeParallelogram@juce@@QEAA@AEBV01@@Z
        845  34C 004354F0 ??0RelativeParallelogram@juce@@QEAA@AEBV?$Rectangle@M@1@@Z
        846  34D 00435480 ??0RelativeParallelogram@juce@@QEAA@AEBVRelativePoint@1@00@Z
        847  34E 00435420 ??0RelativeParallelogram@juce@@QEAA@AEBVString@1@00@Z
        848  34F 00435570 ??0RelativeParallelogram@juce@@QEAA@XZ
        849  350 000766A0 ??0RelativePoint@juce@@QEAA@$$QEAV01@@Z
        850  351 00076670 ??0RelativePoint@juce@@QEAA@AEBV01@@Z
        851  352 00434450 ??0RelativePoint@juce@@QEAA@AEBVRelativeCoordinate@1@0@Z
        852  353 00434090 ??0RelativePoint@juce@@QEAA@AEBVString@1@@Z
        853  354 00434480 ??0RelativePoint@juce@@QEAA@MM@Z
        854  355 00434530 ??0RelativePoint@juce@@QEAA@V?$Point@M@1@@Z
        855  356 004345D0 ??0RelativePoint@juce@@QEAA@XZ
        856  357 00433BD0 ??0RelativePointPath@juce@@QEAA@AEBV01@@Z
        857  358 00433770 ??0RelativePointPath@juce@@QEAA@AEBVPath@1@@Z
        858  359 00433CD0 ??0RelativePointPath@juce@@QEAA@XZ
        859  35A 00076850 ??0RelativeRectangle@juce@@QEAA@$$QEAV01@@Z
        860  35B 00076800 ??0RelativeRectangle@juce@@QEAA@AEBV01@@Z
        861  35C 00432750 ??0RelativeRectangle@juce@@QEAA@AEBV?$Rectangle@M@1@@Z
        862  35D 00432A00 ??0RelativeRectangle@juce@@QEAA@AEBVRelativeCoordinate@1@000@Z
        863  35E 00431EC0 ??0RelativeRectangle@juce@@QEAA@AEBVString@1@@Z
        864  35F 00432A50 ??0RelativeRectangle@juce@@QEAA@XZ
        865  360 002E2BB0 ??0RelativeTime@juce@@QEAA@AEBV01@@Z
        866  361 00316450 ??0RelativeTime@juce@@QEAA@N@Z
        867  362 00219C00 ??0ResamplingAudioSource@juce@@QEAA@PEAVAudioSource@1@_NH@Z
        868  363 00474730 ??0ResizableBorderComponent@juce@@QEAA@PEAVComponent@1@PEAVComponentBoundsConstrainer@1@@Z
        869  364 004B97C0 ??0ResizableCornerComponent@juce@@QEAA@PEAVComponent@1@PEAVComponentBoundsConstrainer@1@@Z
        870  365 00473A40 ??0ResizableEdgeComponent@juce@@QEAA@PEAVComponent@1@PEAVComponentBoundsConstrainer@1@W4Edge@01@@Z
        871  366 00406A10 ??0ResizableWindow@juce@@QEAA@AEBVString@1@VColour@1@_N@Z
        872  367 00406B60 ??0ResizableWindow@juce@@QEAA@AEBVString@1@_N@Z
        873  368 002FB2A0 ??0Result@juce@@AEAA@AEBVString@1@@Z
        874  369 00318F80 ??0Result@juce@@AEAA@XZ
        875  36A 002FB1F0 ??0Result@juce@@QEAA@$$QEAV01@@Z
        876  36B 002FB270 ??0Result@juce@@QEAA@AEBV01@@Z
        877  36C 00218890 ??0ReverbAudioSource@juce@@QEAA@PEAVAudioSource@1@_N@Z
        878  36D 00022190 ??0Run@TextLayout@juce@@QEAA@$$QEAV012@@Z
        879  36E 000220F0 ??0Run@TextLayout@juce@@QEAA@AEBV012@@Z
        880  36F 00343580 ??0Run@TextLayout@juce@@QEAA@V?$Range@H@2@H@Z
        881  370 00022040 ??0Run@TextLayout@juce@@QEAA@XZ
        882  371 0031A230 ??0SHA256@juce@@QEAA@AEAVInputStream@1@_J@Z
        883  372 0031A380 ??0SHA256@juce@@QEAA@AEBV01@@Z
        884  373 0031A0C0 ??0SHA256@juce@@QEAA@AEBVFile@1@@Z
        885  374 0031A300 ??0SHA256@juce@@QEAA@AEBVMemoryBlock@1@@Z
        886  375 0031A2D0 ??0SHA256@juce@@QEAA@PEBX_K@Z
        887  376 0031A080 ??0SHA256@juce@@QEAA@VCharPointer_UTF8@1@@Z
        888  377 0031A3B0 ??0SHA256@juce@@QEAA@XZ
        889  378 0028CF60 ??0SamplerSound@juce@@QEAA@AEBVString@1@AEAVAudioFormatReader@1@AEBVBigInteger@1@HNNN@Z
        890  379 0005C3D0 ??0SamplerVoice@juce@@QEAA@AEBV01@@Z
        891  37A 0028CDD0 ??0SamplerVoice@juce@@QEAA@XZ
        892  37B 00078080 ??0ScaleFactorListener@ComponentPeer@juce@@QEAA@AEBU012@@Z
        893  37C 00078080 ??0ScaleFactorListener@ComponentPeer@juce@@QEAA@XZ
        894  37D 00022E00 ??0ScaledImage@juce@@QEAA@$$QEAV01@@Z
        895  37E 00022DE0 ??0ScaledImage@juce@@QEAA@AEBV01@@Z
        896  37F 00022CF0 ??0ScaledImage@juce@@QEAA@AEBVImage@1@@Z
        897  380 00022D20 ??0ScaledImage@juce@@QEAA@AEBVImage@1@N@Z
        898  381 00022DC0 ??0ScaledImage@juce@@QEAA@XZ
        899  382 00006AB0 ??0Scope@Expression@juce@@QEAA@AEBV012@@Z
        900  383 002FC700 ??0Scope@Expression@juce@@QEAA@XZ
        901  384 004A9D50 ??0ScopedDPIAwarenessDisabler@juce@@QEAA@XZ
        902  385 00426140 ??0ScopedDragNotification@Slider@juce@@QEAA@AEAV12@@Z
        903  386 0032B9C0 ??0ScopedJuceInitialiser_GUI@juce@@QEAA@XZ
        904  387 00404940 ??0ScopedMessageBox@juce@@QEAA@$$QEAV01@@Z
        905  388 00404970 ??0ScopedMessageBox@juce@@QEAA@V?$shared_ptr@VScopedMessageBoxImpl@detail@juce@@@std@@@Z
        906  389 004BBC20 ??0ScopedMessageBox@juce@@QEAA@XZ
        907  38A 00006E70 ??0ScopedReadLock@juce@@QEAA@AEBVReadWriteLock@1@@Z
        908  38B 00007A80 ??0ScopedTimeMeasurement@juce@@QEAA@AEAN@Z
        909  38C 0022B2A0 ??0ScopedTimer@AudioProcessLoadMeasurer@juce@@QEAA@AEAV12@@Z
        910  38D 0022B240 ??0ScopedTimer@AudioProcessLoadMeasurer@juce@@QEAA@AEAV12@H@Z
        911  38E 00006EF0 ??0ScopedTryReadLock@juce@@QEAA@AEAVReadWriteLock@1@@Z
        912  38F 00006F10 ??0ScopedTryReadLock@juce@@QEAA@AEAVReadWriteLock@1@_N@Z
        913  390 00006FC0 ??0ScopedTryWriteLock@juce@@QEAA@AEAVReadWriteLock@1@@Z
        914  391 00006FE0 ??0ScopedTryWriteLock@juce@@QEAA@AEAVReadWriteLock@1@_N@Z
        915  392 00006F90 ??0ScopedWriteLock@juce@@QEAA@AEBVReadWriteLock@1@@Z
        916  393 004732C0 ??0ScrollBar@juce@@QEAA@_N@Z
        917  394 00074970 ??0SettableTooltipClient@juce@@IEAA@XZ
        918  395 000749C0 ??0SettableTooltipClient@juce@@QEAA@AEBV01@@Z
        919  396 0049FF90 ??0ShapeButton@juce@@QEAA@AEBVString@1@VColour@1@11@Z
        920  397 000D8DC0 ??0ShapedText@juce@@QEAA@$$QEAV01@@Z
        921  398 000D8D90 ??0ShapedText@juce@@QEAA@AEBV01@@Z
        922  399 003487E0 ??0ShapedText@juce@@QEAA@VString@1@@Z
        923  39A 00348630 ??0ShapedText@juce@@QEAA@VString@1@VShapedTextOptions@1@@Z
        924  39B 00348890 ??0ShapedText@juce@@QEAA@XZ
        925  39C 00005AE0 ??0SingleThreadedReferenceCountedObject@juce@@IEAA@$$QEAV01@@Z
        926  39D 00005AE0 ??0SingleThreadedReferenceCountedObject@juce@@IEAA@AEBV01@@Z
        927  39E 00005AE0 ??0SingleThreadedReferenceCountedObject@juce@@IEAA@XZ
        928  39F 00425F60 ??0Slider@juce@@QEAA@AEBVString@1@@Z
        929  3A0 004BB1D0 ??0Slider@juce@@QEAA@W4SliderStyle@01@W4TextEntryBoxPosition@01@@Z
        930  3A1 00425FF0 ??0Slider@juce@@QEAA@XZ
        931  3A2 00293350 ??0SliderAttachment@AudioProcessorValueTreeState@juce@@QEAA@AEAV12@AEBVString@2@AEAVSlider@2@@Z
        932  3A3 0042D200 ??0SliderPropertyComponent@juce@@IEAA@AEBVString@1@NNNN_N@Z
        933  3A4 0042CF60 ??0SliderPropertyComponent@juce@@QEAA@AEBVValue@1@AEBVString@1@NNNN_N@Z
        934  3A5 00007150 ??0SocketOptions@juce@@QEAA@XZ
        935  3A6 00020460 ??0SoftwareImageType@juce@@QEAA@AEBV01@@Z
        936  3A7 00393420 ??0SoftwareImageType@juce@@QEAA@XZ
        937  3A8 002AF550 ??0SoundPlayer@juce@@QEAA@XZ
        938  3A9 00074640 ??0SourceDetails@DragAndDropTarget@juce@@QEAA@$$QEAV012@@Z
        939  3AA 000745F0 ??0SourceDetails@DragAndDropTarget@juce@@QEAA@AEBV012@@Z
        940  3AB 004383A0 ??0SourceDetails@DragAndDropTarget@juce@@QEAA@AEBVvar@2@PEAVComponent@2@V?$Point@H@2@@Z
        941  3AC 00006BF0 ??0SpinLock@juce@@QEAA@XZ
        942  3AD 004C4260 ??0SplashScreen@juce@@IEAA@AEBVString@1@HH_N@Z
        943  3AE 004C4350 ??0SplashScreen@juce@@QEAA@AEBVString@1@AEBVImage@1@_N@Z
        944  3AF 00433420 ??0StartSubPath@RelativePointPath@juce@@QEAA@AEBVRelativePoint@2@@Z
        945  3B0 002F4800 ??0StreamingSocket@juce@@AEAA@AEBVString@1@HHAEBVSocketOptions@1@@Z
        946  3B1 00007190 ??0StreamingSocket@juce@@QEAA@AEBVSocketOptions@1@@Z
        947  3B2 002F48C0 ??0StreamingSocket@juce@@QEAA@XZ
        948  3B3 004703A0 ??0StretchableLayoutManager@juce@@QEAA@XZ
        949  3B4 0046EDB0 ??0StretchableLayoutResizerBar@juce@@QEAA@PEAVStretchableLayoutManager@1@H_N@Z
        950  3B5 002EE7A0 ??0String@juce@@AEAA@AEBUPreallocationBytes@01@@Z
        951  3B6 00318740 ??0String@juce@@QEAA@$$QEAV01@@Z
        952  3B7 00318710 ??0String@juce@@QEAA@AEBV01@@Z
        953  3B8 002EE130 ??0String@juce@@QEAA@AEBV?$basic_string@DU?$char_traits@D@std@@V?$allocator@D@2@@std@@@Z
        954  3B9 00312250 ??0String@juce@@QEAA@F@Z
        955  3BA 003122B0 ??0String@juce@@QEAA@G@Z
        956  3BB 00318840 ??0String@juce@@QEAA@H@Z
        957  3BC 00312230 ??0String@juce@@QEAA@I@Z
        958  3BD 002ED8F0 ??0String@juce@@QEAA@J@Z
        959  3BE 002ED860 ??0String@juce@@QEAA@K@Z
        960  3BF 00312330 ??0String@juce@@QEAA@M@Z
        961  3C0 0030F750 ??0String@juce@@QEAA@MH_N@Z
        962  3C1 0030F720 ??0String@juce@@QEAA@N@Z
        963  3C2 0030CBA0 ??0String@juce@@QEAA@NH_N@Z
        964  3C3 00318760 ??0String@juce@@QEAA@PEBD@Z
        965  3C4 002EE690 ??0String@juce@@QEAA@PEBD_K@Z
        966  3C5 00314030 ??0String@juce@@QEAA@PEB_W@Z
        967  3C6 002EE380 ??0String@juce@@QEAA@PEB_W_K@Z
        968  3C7 002EE630 ??0String@juce@@QEAA@VCharPointer_ASCII@1@@Z
        969  3C8 002EE250 ??0String@juce@@QEAA@VCharPointer_UTF16@1@0@Z
        970  3C9 002EE670 ??0String@juce@@QEAA@VCharPointer_UTF16@1@@Z
        971  3CA 002EE4A0 ??0String@juce@@QEAA@VCharPointer_UTF16@1@_K@Z
        972  3CB 002EE160 ??0String@juce@@QEAA@VCharPointer_UTF32@1@0@Z
        973  3CC 002EE650 ??0String@juce@@QEAA@VCharPointer_UTF32@1@@Z
        974  3CD 002EE3A0 ??0String@juce@@QEAA@VCharPointer_UTF32@1@_K@Z
        975  3CE 00318780 ??0String@juce@@QEAA@VCharPointer_UTF8@1@0@Z
        976  3CF 00312210 ??0String@juce@@QEAA@VCharPointer_UTF8@1@@Z
        977  3D0 002EE4C0 ??0String@juce@@QEAA@VCharPointer_UTF8@1@_K@Z
        978  3D1 00318820 ??0String@juce@@QEAA@VStringRef@1@@Z
        979  3D2 003186F0 ??0String@juce@@QEAA@XZ
        980  3D3 003122D0 ??0String@juce@@QEAA@_J@Z
        981  3D4 002ED950 ??0String@juce@@QEAA@_K@Z
        982  3D5 00319740 ??0StringArray@juce@@QEAA@$$QEAV01@@Z
        983  3D6 002E77B0 ??0StringArray@juce@@QEAA@$$QEAV?$Array@VString@juce@@VDummyCriticalSection@2@$0A@@1@@Z
        984  3D7 00319710 ??0StringArray@juce@@QEAA@AEBV01@@Z
        985  3D8 003128A0 ??0StringArray@juce@@QEAA@AEBV?$initializer_list@PEBD@std@@@Z
        986  3D9 00314DA0 ??0StringArray@juce@@QEAA@AEBVString@1@@Z
        987  3DA 00312940 ??0StringArray@juce@@QEAA@PEBQEBD@Z
        988  3DB 002E7750 ??0StringArray@juce@@QEAA@PEBQEBDH@Z
        989  3DC 002E7700 ??0StringArray@juce@@QEAA@PEBQEB_W@Z
        990  3DD 002E76D0 ??0StringArray@juce@@QEAA@PEBQEB_WH@Z
        991  3DE 002E7780 ??0StringArray@juce@@QEAA@PEBVString@1@H@Z
        992  3DF 003196F0 ??0StringArray@juce@@QEAA@XZ
        993  3E0 00311420 ??0StringPairArray@juce@@QEAA@AEBV01@@Z
        994  3E1 003167B0 ??0StringPairArray@juce@@QEAA@_N@Z
        995  3E2 002E69E0 ??0StringPool@juce@@QEAA@XZ
        996  3E3 002E8B50 ??0StringRef@juce@@QEAA@AEBV?$basic_string@DU?$char_traits@D@std@@V?$allocator@D@2@@std@@@Z
        997  3E4 003156D0 ??0StringRef@juce@@QEAA@AEBVString@1@@Z
        998  3E5 003156C0 ??0StringRef@juce@@QEAA@PEBD@Z
        999  3E6 002E8B70 ??0StringRef@juce@@QEAA@VCharPointer_UTF8@1@@Z
       1000  3E7 0030DBD0 ??0StringRef@juce@@QEAA@XZ
       1001  3E8 002F0AF0 ??0SubregionStream@juce@@QEAA@PEAVInputStream@1@_J1_N@Z
       1002  3E9 00217B30 ??0Synthesiser@juce@@QEAA@XZ
       1003  3EA 002181C0 ??0SynthesiserSound@juce@@IEAA@XZ
       1004  3EB 0000ABA0 ??0SynthesiserSound@juce@@QEAA@AEBV01@@Z
       1005  3EC 0000AD30 ??0SynthesiserVoice@juce@@QEAA@AEBV01@@Z
       1006  3ED 00218140 ??0SynthesiserVoice@juce@@QEAA@XZ
       1007  3EE 004C3150 ??0SystemTrayIconComponent@juce@@QEAA@XZ
       1008  3EF 0046E690 ??0TabBarButton@juce@@QEAA@AEBVString@1@AEAVTabbedButtonBar@1@@Z
       1009  3F0 0046DB40 ??0TabbedButtonBar@juce@@QEAA@W4Orientation@01@@Z
       1010  3F1 0046BD80 ??0TabbedComponent@juce@@QEAA@W4Orientation@TabbedButtonBar@1@@Z
       1011  3F2 00424210 ??0TableHeaderComponent@juce@@QEAA@XZ
       1012  3F3 004B7040 ??0TableListBox@juce@@QEAA@AEBVString@1@PEAVTableListBoxModel@1@@Z
       1013  3F4 00077480 ??0TableListBoxModel@juce@@QEAA@AEBV01@@Z
       1014  3F5 00077480 ??0TableListBoxModel@juce@@QEAA@XZ
       1015  3F6 003030D0 ??0TemporaryFile@juce@@QEAA@AEBVFile@1@0@Z
       1016  3F7 003102E0 ??0TemporaryFile@juce@@QEAA@AEBVFile@1@H@Z
       1017  3F8 00314E10 ??0TemporaryFile@juce@@QEAA@AEBVString@1@H@Z
       1018  3F9 004AE9D0 ??0TextButton@juce@@QEAA@AEBVString@1@0@Z
       1019  3FA 004B2F00 ??0TextButton@juce@@QEAA@AEBVString@1@@Z
       1020  3FB 004B2EB0 ??0TextButton@juce@@QEAA@XZ
       1021  3FC 00005DD0 ??0TextDiff@juce@@QEAA@$$QEAV01@@Z
       1022  3FD 00005DB0 ??0TextDiff@juce@@QEAA@AEBV01@@Z
       1023  3FE 002E6220 ??0TextDiff@juce@@QEAA@AEBVString@1@0@Z
       1024  3FF 00074910 ??0TextDragAndDropTarget@juce@@QEAA@AEBV01@@Z
       1025  400 00074910 ??0TextDragAndDropTarget@juce@@QEAA@XZ
       1026  401 004B7510 ??0TextEditor@juce@@QEAA@AEBVString@1@I@Z
       1027  402 00007CE0 ??0TextFormat@XmlElement@juce@@QEAA@$$QEAU012@@Z
       1028  403 00007C80 ??0TextFormat@XmlElement@juce@@QEAA@AEBU012@@Z
       1029  404 00310BE0 ??0TextFormat@XmlElement@juce@@QEAA@XZ
       1030  405 00074AF0 ??0TextInputTarget@juce@@QEAA@AEBV01@@Z
       1031  406 00074AF0 ??0TextInputTarget@juce@@QEAA@XZ
       1032  407 00343030 ??0TextLayout@juce@@QEAA@$$QEAV01@@Z
       1033  408 00343070 ??0TextLayout@juce@@QEAA@AEBV01@@Z
       1034  409 003AB350 ??0TextLayout@juce@@QEAA@XZ
       1035  40A 0042CE00 ??0TextPropertyComponent@juce@@IEAA@AEBVString@1@H_N1@Z
       1036  40B 0042CD80 ??0TextPropertyComponent@juce@@QEAA@AEBVValue@1@AEBVString@1@H_N2@Z
       1037  40C 0042CA60 ??0TextPropertyComponent@juce@@QEAA@AEBVValueTreePropertyWithDefault@1@AEBVString@1@H_N2@Z
       1038  40D 00314330 ??0Thread@juce@@QEAA@AEBVString@1@_K@Z
       1039  40E 00319010 ??0ThreadPool@juce@@QEAA@AEBUThreadPoolOptions@1@@Z
       1040  40F 002E50A0 ??0ThreadPool@juce@@QEAA@H_KW4Priority@Thread@1@@Z
       1041  410 00006D10 ??0ThreadPool@juce@@QEAA@XZ
       1042  411 0030DA90 ??0ThreadPoolJob@juce@@QEAA@AEBVString@1@@Z
       1043  412 00404540 ??0ThreadWithProgressWindow@juce@@QEAA@AEBVString@1@_N1H0PEAVComponent@1@@Z
       1044  413 00005850 ??0Time@juce@@QEAA@AEBV01@@Z
       1045  414 002E16D0 ??0Time@juce@@QEAA@HHHHHHH_N@Z
       1046  415 000060C0 ??0Time@juce@@QEAA@XZ
       1047  416 0030DBB0 ??0Time@juce@@QEAA@_J@Z
       1048  417 0000B850 ??0TimeSignature@AudioPlayHead@juce@@QEAA@XZ
       1049  418 00006DC0 ??0TimeSliceClient@juce@@QEAA@AEBV01@@Z
       1050  419 00006DA0 ??0TimeSliceClient@juce@@QEAA@XZ
       1051  41A 0030CA40 ??0TimeSliceThread@juce@@QEAA@AEBVString@1@@Z
       1052  41B 0032AD60 ??0Timer@juce@@IEAA@AEBV01@@Z
       1053  41C 0032E5A0 ??0Timer@juce@@IEAA@XZ
       1054  41D 0049F690 ??0ToggleButton@juce@@QEAA@AEBVString@1@@Z
       1055  41E 004BA000 ??0ToggleButton@juce@@QEAA@XZ
       1056  41F 00218480 ??0ToneGeneratorAudioSource@juce@@QEAA@XZ
       1057  420 004162E0 ??0Toolbar@juce@@QEAA@XZ
       1058  421 0049F400 ??0ToolbarButton@juce@@QEAA@HAEBVString@1@V?$unique_ptr@VDrawable@juce@@U?$default_delete@VDrawable@juce@@@std@@@std@@1@Z
       1059  422 00414570 ??0ToolbarItemComponent@juce@@QEAA@HAEBVString@1@_N@Z
       1060  423 00077540 ??0ToolbarItemFactory@juce@@QEAA@AEBV01@@Z
       1061  424 00414600 ??0ToolbarItemFactory@juce@@QEAA@XZ
       1062  425 00413BF0 ??0ToolbarItemPalette@juce@@QEAA@AEAVToolbarItemFactory@1@AEAVToolbar@1@@Z
       1063  426 00074920 ??0TooltipClient@juce@@QEAA@AEBV01@@Z
       1064  427 00074920 ??0TooltipClient@juce@@QEAA@XZ
       1065  428 004B3030 ??0TooltipWindow@juce@@QEAA@PEAVComponent@1@H@Z
       1066  429 00403060 ??0TopLevelWindow@juce@@QEAA@AEBVString@1@_N@Z
       1067  42A 004B94D0 ??0TreeView@juce@@QEAA@AEBVString@1@@Z
       1068  42B 004B3B90 ??0TreeViewItem@juce@@QEAA@XZ
       1069  42C 0047A9B0 ??0TypeHandler@ComponentBuilder@juce@@QEAA@AEBVIdentifier@2@@Z
       1070  42D 00355400 ??0Typeface@juce@@QEAA@AEBVString@1@0@Z
       1071  42E 002C3D30 ??0URL@juce@@AEAA@AEBVString@1@H@Z
       1072  42F 00007770 ??0URL@juce@@QEAA@$$QEAV01@@Z
       1073  430 00007690 ??0URL@juce@@QEAA@AEBV01@@Z
       1074  431 002C4980 ??0URL@juce@@QEAA@AEBVString@1@@Z
       1075  432 002C4400 ??0URL@juce@@QEAA@VFile@1@@Z
       1076  433 002C49F0 ??0URL@juce@@QEAA@XZ
       1077  434 002BD8D0 ??0URLInputSource@juce@@QEAA@$$QEAVURL@1@@Z
       1078  435 002BD970 ??0URLInputSource@juce@@QEAA@AEBVURL@1@@Z
       1079  436 003274E0 ??0UndoManager@juce@@QEAA@HH@Z
       1080  437 00072230 ??0UndoableAction@juce@@IEAA@XZ
       1081  438 00072230 ??0UndoableAction@juce@@QEAA@AEBV01@@Z
       1082  439 004D9400 ??0Uniform@OpenGLShaderProgram@juce@@QEAA@AEBV12@PEBD@Z
       1083  43A 002DF7C0 ??0UnitTest@juce@@QEAA@AEBVString@1@0@Z
       1084  43B 002DF310 ??0UnitTestRunner@juce@@QEAA@XZ
       1085  43C 002FAE80 ??0Uuid@juce@@QEAA@AEBV01@@Z
       1086  43D 002FA8B0 ??0Uuid@juce@@QEAA@AEBVString@1@@Z
       1087  43E 002FA760 ??0Uuid@juce@@QEAA@PEBE@Z
       1088  43F 002FAEA0 ??0Uuid@juce@@QEAA@XZ
       1089  440 00402100 ??0VBlankAttachment@juce@@QEAA@$$QEAV01@@Z
       1090  441 00402180 ??0VBlankAttachment@juce@@QEAA@PEAVComponent@1@V?$function@$$A6AXN@Z@std@@@Z
       1091  442 004022B0 ??0VBlankAttachment@juce@@QEAA@PEAVComponent@1@V?$function@$$A6AXXZ@std@@@Z
       1092  443 00078200 ??0VBlankAttachment@juce@@QEAA@XZ
       1093  444 00078090 ??0VBlankListener@ComponentPeer@juce@@QEAA@AEBU012@@Z
       1094  445 00078090 ??0VBlankListener@ComponentPeer@juce@@QEAA@XZ
       1095  446 00326380 ??0Value@juce@@QEAA@$$QEAV01@@Z
       1096  447 00326400 ??0Value@juce@@QEAA@AEBV01@@Z
       1097  448 00326430 ??0Value@juce@@QEAA@AEBVvar@1@@Z
       1098  449 00327400 ??0Value@juce@@QEAA@PEAVValueSource@01@@Z
       1099  44A 00327360 ??0Value@juce@@QEAA@XZ
       1100  44B 00326F50 ??0ValueSource@Value@juce@@QEAA@XZ
       1101  44C 00325CF0 ??0ValueTree@juce@@AEAA@AEAVSharedObject@01@@Z
       1102  44D 00325D20 ??0ValueTree@juce@@AEAA@V?$ReferenceCountedObjectPtr@VSharedObject@ValueTree@juce@@@1@@Z
       1103  44E 00325C60 ??0ValueTree@juce@@QEAA@$$QEAV01@@Z
       1104  44F 00326DC0 ??0ValueTree@juce@@QEAA@AEBV01@@Z
       1105  450 00326D20 ??0ValueTree@juce@@QEAA@AEBVIdentifier@1@@Z
       1106  451 00325D90 ??0ValueTree@juce@@QEAA@AEBVIdentifier@1@V?$initializer_list@UNamedValue@NamedValueSet@juce@@@std@@V?$initializer_list@VValueTree@juce@@@4@@Z
       1107  452 00326CF0 ??0ValueTree@juce@@QEAA@XZ
       1108  453 00072310 ??0ValueTreePropertyWithDefault@juce@@QEAA@AEAVValueTree@1@AEBVIdentifier@1@PEAVUndoManager@1@@Z
       1109  454 000723E0 ??0ValueTreePropertyWithDefault@juce@@QEAA@AEAVValueTree@1@AEBVIdentifier@1@PEAVUndoManager@1@Vvar@1@@Z
       1110  455 00072520 ??0ValueTreePropertyWithDefault@juce@@QEAA@AEAVValueTree@1@AEBVIdentifier@1@PEAVUndoManager@1@Vvar@1@VStringRef@1@@Z
       1111  456 00072660 ??0ValueTreePropertyWithDefault@juce@@QEAA@AEBV01@@Z
       1112  457 00073760 ??0ValueTreePropertyWithDefault@juce@@QEAA@XZ
       1113  458 00323290 ??0ValueTreeSynchroniser@juce@@QEAA@AEBVValueTree@1@@Z
       1114  459 004E0100 ??0VideoComponent@juce@@QEAA@_N@Z
       1115  45A 004BBD30 ??0Viewport@juce@@QEAA@AEBVString@1@@Z
       1116  45B 003163C0 ??0WaitableEvent@juce@@QEAA@_N@Z
       1117  45C 00243080 ??0WavAudioFormat@juce@@QEAA@XZ
       1118  45D 004D5A20 ??0WebBrowserComponent@juce@@QEAA@AEBVOptions@01@@Z
       1119  45E 0007A6C0 ??0WebBrowserComponent@juce@@QEAA@XZ
       1120  45F 004C0E80 ??0WebComboBoxRelay@juce@@QEAA@VStringRef@1@@Z
       1121  460 0007B8C0 ??0WebControlParameterIndexReceiver@juce@@QEAA@$$QEAV01@@Z
       1122  461 0007B8C0 ??0WebControlParameterIndexReceiver@juce@@QEAA@AEBV01@@Z
       1123  462 0007B8A0 ??0WebControlParameterIndexReceiver@juce@@QEAA@XZ
       1124  463 002BE490 ??0WebInputStream@juce@@QEAA@AEBVURL@1@_N@Z
       1125  464 004C1960 ??0WebSliderRelay@juce@@QEAA@VStringRef@1@@Z
       1126  465 004C1350 ??0WebToggleButtonRelay@juce@@QEAA@VStringRef@1@@Z
       1127  466 00079E10 ??0WebViewLifetimeListener@juce@@QEAA@AEBV01@@Z
       1128  467 00079E10 ??0WebViewLifetimeListener@juce@@QEAA@XZ
       1129  468 00319D40 ??0Whirlpool@juce@@QEAA@AEAVInputStream@1@_J@Z
       1130  469 00319E50 ??0Whirlpool@juce@@QEAA@AEBV01@@Z
       1131  46A 00319BE0 ??0Whirlpool@juce@@QEAA@AEBVFile@1@@Z
       1132  46B 00319DF0 ??0Whirlpool@juce@@QEAA@AEBVMemoryBlock@1@@Z
       1133  46C 00319DD0 ??0Whirlpool@juce@@QEAA@PEBX_K@Z
       1134  46D 00319BB0 ??0Whirlpool@juce@@QEAA@VCharPointer_UTF8@1@@Z
       1135  46E 00319E90 ??0Whirlpool@juce@@QEAA@XZ
       1136  46F 000068F0 ??0WildcardFileFilter@juce@@QEAA@AEBV01@@Z
       1137  470 002C9EB0 ??0WildcardFileFilter@juce@@QEAA@AEBVString@1@00@Z
       1138  471 002DADB0 ??0XmlDocument@juce@@QEAA@AEBVFile@1@@Z
       1139  472 002DAE60 ??0XmlDocument@juce@@QEAA@AEBVString@1@@Z
       1140  473 002D5F90 ??0XmlElement@juce@@AEAA@H@Z
       1141  474 002D5EB0 ??0XmlElement@juce@@QEAA@$$QEAV01@@Z
       1142  475 00313BD0 ??0XmlElement@juce@@QEAA@AEBV01@@Z
       1143  476 002D6020 ??0XmlElement@juce@@QEAA@AEBVIdentifier@1@@Z
       1144  477 002D6060 ??0XmlElement@juce@@QEAA@AEBVString@1@@Z
       1145  478 003166E0 ??0XmlElement@juce@@QEAA@PEBD@Z
       1146  479 002D5FC0 ??0XmlElement@juce@@QEAA@VCharPointer_UTF8@1@0@Z
       1147  47A 003111D0 ??0XmlElement@juce@@QEAA@VStringRef@1@@Z
       1148  47B 004C82A0 ??0XmlTokeniser@juce@@QEAA@XZ
       1149  47C 002CBAD0 ??0ZipFile@juce@@QEAA@AEAVInputStream@1@@Z
       1150  47D 002CBA30 ??0ZipFile@juce@@QEAA@AEBVFile@1@@Z
       1151  47E 002CB9D0 ??0ZipFile@juce@@QEAA@PEAVInputSource@1@@Z
       1152  47F 002CBB30 ??0ZipFile@juce@@QEAA@PEAVInputStream@1@_N@Z
       1153  480 00317300 ??0this_will_fail_to_link_if_some_of_your_compile_units_are_built_in_release_mode@juce@@QEAA@XZ
       1154  481 002DE420 ??0var@juce@@AEAA@AEBUVariantType@01@@Z
       1155  482 0030E110 ??0var@juce@@QEAA@$$QEAV01@@Z
       1156  483 0030E170 ??0var@juce@@QEAA@$$QEAV?$Array@Vvar@juce@@VDummyCriticalSection@2@$0A@@1@@Z
       1157  484 002DD980 ??0var@juce@@QEAA@$$QEAVMemoryBlock@1@@Z
       1158  485 0030E140 ??0var@juce@@QEAA@$$QEAVString@1@@Z
       1159  486 0030DDC0 ??0var@juce@@QEAA@AEBV01@@Z
       1160  487 002DE2E0 ??0var@juce@@QEAA@AEBV?$Array@Vvar@juce@@VDummyCriticalSection@2@$0A@@1@@Z
       1161  488 002DE180 ??0var@juce@@QEAA@AEBVMemoryBlock@1@@Z
       1162  489 0030DE60 ??0var@juce@@QEAA@AEBVString@1@@Z
       1163  48A 0030DE90 ??0var@juce@@QEAA@AEBVStringArray@1@@Z
       1164  48B 0030DDF0 ??0var@juce@@QEAA@H@Z
       1165  48C 0030DE10 ??0var@juce@@QEAA@N@Z
       1166  48D 0030E0E0 ??0var@juce@@QEAA@PEAVReferenceCountedObject@1@@Z
       1167  48E 0030DE30 ??0var@juce@@QEAA@PEBD@Z
       1168  48F 002DE210 ??0var@juce@@QEAA@PEBX_K@Z
       1169  490 002DE2B0 ??0var@juce@@QEAA@PEB_W@Z
       1170  491 002DE350 ??0var@juce@@QEAA@V?$function@$$A6A?AVvar@juce@@AEBUNativeFunctionArgs@12@@Z@std@@@Z
       1171  492 0030DDA0 ??0var@juce@@QEAA@XZ
       1172  493 002DE400 ??0var@juce@@QEAA@_J@Z
       1173  494 002DE3E0 ??0var@juce@@QEAA@_N@Z
       1174  495 00005960 ??1?$IIRFilterBase@VDummyCriticalSection@juce@@@juce@@QEAA@XZ
       1175  496 00005960 ??1?$IIRFilterBase@VSpinLock@juce@@@juce@@QEAA@XZ
       1176  497 00005960 ??1?$OptionsBuilder@VOptions@WebBrowserComponent@juce@@@@UEAA@XZ
       1177  498 00005960 ??1?$SliderListener@VSlider@juce@@@juce@@UEAA@XZ
       1178  499 00005960 ??1?$SliderListener@VWebSliderRelay@juce@@@juce@@UEAA@XZ
       1179  49A 00024020 ??1?$StackBasedLowLevelGraphicsContext@VSoftwareRendererSavedState@RenderingHelpers@juce@@@RenderingHelpers@juce@@UEAA@XZ
       1180  49B 00005960 ??1AAXClientExtensions@juce@@UEAA@XZ
       1181  49C 00005960 ??1AbstractFifo@juce@@QEAA@XZ
       1182  49D 00025450 ??1AccessibilityActions@juce@@QEAA@XZ
       1183  49E 00005960 ??1AccessibilityCellInterface@juce@@UEAA@XZ
       1184  49F 004A5210 ??1AccessibilityHandler@juce@@UEAA@XZ
       1185  4A0 00005960 ??1AccessibilityNumericValueInterface@juce@@UEAA@XZ
       1186  4A1 00005960 ??1AccessibilityRangedNumericValueInterface@juce@@UEAA@XZ
       1187  4A2 00005960 ??1AccessibilityTableInterface@juce@@UEAA@XZ
       1188  4A3 00005960 ??1AccessibilityTextInterface@juce@@UEAA@XZ
       1189  4A4 00005960 ??1AccessibilityTextValueInterface@juce@@UEAA@XZ
       1190  4A5 00005960 ??1AccessibilityValueInterface@juce@@UEAA@XZ
       1191  4A6 0032B8D0 ??1ActionBroadcaster@juce@@UEAA@XZ
       1192  4A7 00005960 ??1ActionListener@juce@@UEAA@XZ
       1193  4A8 004C3A60 ??1ActiveXControlComponent@juce@@UEAA@XZ
       1194  4A9 0028B060 ??1AiffAudioFormat@juce@@UEAA@XZ
       1195  4AA 004B4990 ??1AlertWindow@juce@@UEAA@XZ
       1196  4AB 00008090 ??1AndroidDocumentInputSource@juce@@UEAA@XZ
       1197  4AC 0007B620 ??1AnimatedAppComponent@juce@@UEAA@XZ
       1198  4AD 00074B00 ??1ApplicationCommandInfo@juce@@QEAA@XZ
       1199  4AE 0049EC50 ??1ApplicationCommandManager@juce@@UEAA@XZ
       1200  4AF 00005960 ??1ApplicationCommandManagerListener@juce@@UEAA@XZ
       1201  4B0 0049DC70 ??1ApplicationCommandTarget@juce@@UEAA@XZ
       1202  4B1 00320E30 ??1ApplicationProperties@juce@@QEAA@XZ
       1203  4B2 004A3830 ??1ArrowButton@juce@@UEAA@XZ
       1204  4B3 0032E6B0 ??1AsyncUpdater@juce@@UEAA@XZ
       1205  4B4 00021170 ??1Attribute@AttributedString@juce@@QEAA@XZ
       1206  4B5 000212E0 ??1AttributedString@juce@@QEAA@XZ
       1207  4B6 002AFD50 ??1AudioAppComponent@juce@@UEAA@XZ
       1208  4B7 00008330 ??1AudioChannelSet@juce@@QEAA@XZ
       1209  4B8 0023E680 ??1AudioDeviceManager@juce@@UEAA@XZ
       1210  4B9 002B9ED0 ??1AudioDeviceSelectorComponent@juce@@UEAA@XZ
       1211  4BA 00005960 ??1AudioDeviceSelectorComponentMethods@ExtraLookAndFeelBaseClasses@juce@@UEAA@XZ
       1212  4BB 00024BB0 ??1AudioDeviceSetup@AudioDeviceManager@juce@@QEAA@XZ
       1213  4BC 00290AC0 ??1AudioFormat@juce@@UEAA@XZ
       1214  4BD 00290770 ??1AudioFormatManager@juce@@QEAA@XZ
       1215  4BE 0028FD50 ??1AudioFormatReader@juce@@UEAA@XZ
       1216  4BF 0028EB70 ??1AudioFormatReaderSource@juce@@UEAA@XZ
       1217  4C0 0028E840 ??1AudioFormatWriter@juce@@UEAA@XZ
       1218  4C1 002A4340 ??1AudioGraphIOProcessor@AudioProcessorGraph@juce@@UEAA@XZ
       1219  4C2 00236C70 ??1AudioIODevice@juce@@UEAA@XZ
       1220  4C3 00005960 ??1AudioIODeviceCallback@juce@@UEAA@XZ
       1221  4C4 00236B70 ??1AudioIODeviceType@juce@@UEAA@XZ
       1222  4C5 00299200 ??1AudioParameterBool@juce@@UEAA@XZ
       1223  4C6 00298AC0 ??1AudioParameterChoice@juce@@UEAA@XZ
       1224  4C7 0029A610 ??1AudioParameterFloat@juce@@UEAA@XZ
       1225  4C8 00299D80 ??1AudioParameterInt@juce@@UEAA@XZ
       1226  4C9 00005960 ??1AudioPlayHead@juce@@UEAA@XZ
       1227  4CA 002AD130 ??1AudioPluginFormat@juce@@UEAA@XZ
       1228  4CB 002ACAD0 ??1AudioPluginFormatManager@juce@@QEAA@XZ
       1229  4CC 0007C9F0 ??1AudioPluginInstance@juce@@UEAA@XZ
       1230  4CD 0022B5C0 ??1AudioProcessLoadMeasurer@juce@@QEAA@XZ
       1231  4CE 002ABBD0 ??1AudioProcessor@juce@@UEAA@XZ
       1232  4CF 002A5A00 ??1AudioProcessorEditor@juce@@UEAA@XZ
       1233  4D0 002A5000 ??1AudioProcessorGraph@juce@@UEAA@XZ
       1234  4D1 00005960 ??1AudioProcessorListener@juce@@UEAA@XZ
       1235  4D2 002A6BB0 ??1AudioProcessorParameter@juce@@UEAA@XZ
       1236  4D3 0029B9D0 ??1AudioProcessorParameterGroup@juce@@QEAA@XZ
       1237  4D4 0007D490 ??1AudioProcessorParameterWithID@juce@@UEAA@XZ
       1238  4D5 002AE8B0 ??1AudioProcessorPlayer@juce@@UEAA@XZ
       1239  4D6 00294C90 ??1AudioProcessorValueTreeState@juce@@UEAA@XZ
       1240  4D7 00005960 ??1AudioSource@juce@@UEAA@XZ
       1241  4D8 00235E60 ??1AudioSourcePlayer@juce@@UEAA@XZ
       1242  4D9 0028DC80 ??1AudioSubsectionReader@juce@@UEAA@XZ
       1243  4DA 002B9600 ??1AudioThumbnail@juce@@UEAA@XZ
       1244  4DB 0009CD50 ??1AudioThumbnailBase@juce@@UEAA@XZ
       1245  4DC 002B7B10 ??1AudioThumbnailCache@juce@@UEAA@XZ
       1246  4DD 00235360 ??1AudioTransportSource@juce@@UEAA@XZ
       1247  4DE 002B70B0 ??1AudioVisualiserComponent@juce@@UEAA@XZ
       1248  4DF 0000C000 ??1BailOutChecker@Component@juce@@QEAA@XZ
       1249  4E0 00315D70 ??1BigInteger@juce@@QEAA@XZ
       1250  4E1 003A7740 ??1BitmapData@Image@juce@@QEAA@XZ
       1251  4E2 0031E030 ??1BlowFish@juce@@QEAA@XZ
       1252  4E3 00430F50 ??1BooleanPropertyComponent@juce@@UEAA@XZ
       1253  4E4 000744F0 ??1BorderedComponentBoundsConstrainer@juce@@UEAA@XZ
       1254  4E5 0043ACB0 ??1BubbleComponent@juce@@UEAA@XZ
       1255  4E6 004C7C30 ??1BubbleMessageComponent@juce@@UEAA@XZ
       1256  4E7 0030C750 ??1BufferedInputStream@juce@@UEAA@XZ
       1257  4E8 0028D940 ??1BufferingAudioReader@juce@@UEAA@XZ
       1258  4E9 0021C150 ??1BufferingAudioSource@juce@@UEAA@XZ
       1259  4EA 002CA810 ??1Builder@ZipFile@juce@@QEAA@XZ
       1260  4EB 004AF580 ??1Button@juce@@UEAA@XZ
       1261  4EC 0000C0C0 ??1ButtonAttachment@AudioProcessorValueTreeState@juce@@QEAA@XZ
       1262  4ED 00430BD0 ??1ButtonPropertyComponent@juce@@UEAA@XZ
       1263  4EE 004D7060 ??1CPlusPlusCodeTokeniser@juce@@UEAA@XZ
       1264  4EF 00005960 ??1CachedComponentImage@juce@@UEAA@XZ
       1265  4F0 00077C70 ??1CallOutBox@juce@@UEAA@XZ
       1266  4F1 00005960 ??1Callback@ModalComponentManager@juce@@UEAA@XZ
       1267  4F2 000059E0 ??1CallbackMessage@juce@@UEAA@XZ
       1268  4F3 0047DC10 ??1CaretComponent@juce@@UEAA@XZ
       1269  4F4 0032F2E0 ??1ChangeBroadcaster@juce@@UEAA@XZ
       1270  4F5 00005960 ??1ChangeListener@juce@@UEAA@XZ
       1271  4F6 002BEB20 ??1ChildProcess@juce@@QEAA@XZ
       1272  4F7 00329300 ??1ChildProcessCoordinator@juce@@UEAA@XZ
       1273  4F8 0001F250 ??1ChildProcessManager@juce@@EEAA@XZ
       1274  4F9 00329150 ??1ChildProcessWorker@juce@@UEAA@XZ
       1275  4FA 00078660 ??1ChoicePropertyComponent@juce@@UEAA@XZ
       1276  4FB 00005960 ??1CloseSubPath@RelativePointPath@juce@@UEAA@XZ
       1277  4FC 004D39D0 ??1CodeDocument@juce@@QEAA@XZ
       1278  4FD 004D08A0 ??1CodeEditorComponent@juce@@UEAA@XZ
       1279  4FE 00005960 ??1CodeTokeniser@juce@@UEAA@XZ
       1280  4FF 0001FF00 ??1ColourGradient@juce@@QEAA@XZ
       1281  500 00005DA0 ??1ColourScheme@CodeEditorComponent@juce@@QEAA@XZ
       1282  501 004C7550 ??1ColourSelector@juce@@UEAA@XZ
       1283  502 004BA620 ??1ComboBox@juce@@UEAA@XZ
       1284  503 0000C0C0 ??1ComboBoxAttachment@AudioProcessorValueTreeState@juce@@QEAA@XZ
       1285  504 004BDE70 ??1Component@juce@@UEAA@XZ
       1286  505 0047C700 ??1ComponentAnimator@juce@@UEAA@XZ
       1287  506 004B7470 ??1ComponentBoundsConstrainer@juce@@UEAA@XZ
       1288  507 0047AC70 ??1ComponentBuilder@juce@@UEAA@XZ
       1289  508 00439460 ??1ComponentDragger@juce@@UEAA@XZ
       1290  509 00005960 ??1ComponentListener@juce@@UEAA@XZ
       1291  50A 00479F50 ??1ComponentMovementWatcher@juce@@UEAA@XZ
       1292  50B 0040B960 ??1ComponentPeer@juce@@UEAA@XZ
       1293  50C 00005960 ??1ComponentTraverser@juce@@UEAA@XZ
       1294  50D 00479A30 ??1ConcertinaPanel@juce@@UEAA@XZ
       1295  50E 003199B0 ??1CriticalSection@juce@@QEAA@XZ
       1296  50F 00076B20 ??1CubicTo@RelativePointPath@juce@@UEAA@XZ
       1297  510 0043B120 ??1CustomCallback@PopupMenu@juce@@UEAA@XZ
       1298  511 000764A0 ??1CustomComponent@PopupMenu@juce@@UEAA@XZ
       1299  512 00005960 ??1DarkModeSettingListener@juce@@UEAA@XZ
       1300  513 00315210 ??1DatagramSocket@juce@@QEAA@XZ
       1301  514 0032E050 ??1DeletedAtShutdown@juce@@MEAA@XZ
       1302  515 004917F0 ??1Desktop@juce@@EEAA@XZ
       1303  516 00409610 ??1DialogWindow@juce@@UEAA@XZ
       1304  517 00488C80 ??1DirectoryContentsDisplayComponent@juce@@UEAA@XZ
       1305  518 00488760 ??1DirectoryContentsList@juce@@UEAA@XZ
       1306  519 000065F0 ??1DirectoryIterator@juce@@QEAA@XZ
       1307  51A 00009DC0 ??1Displays@juce@@QEAA@XZ
       1308  51B 00408EE0 ??1DocumentWindow@juce@@UEAA@XZ
       1309  51C 002C4A30 ??1DownloadTask@URL@juce@@UEAA@XZ
       1310  51D 00005960 ??1DownloadTaskListener@URL@juce@@UEAA@XZ
       1311  51E 00439130 ??1DragAndDropContainer@juce@@UEAA@XZ
       1312  51F 00005960 ??1DragAndDropTarget@juce@@UEAA@XZ
       1313  520 0048E070 ??1Drawable@juce@@UEAA@XZ
       1314  521 004BA0A0 ??1DrawableButton@juce@@UEAA@XZ
       1315  522 0048CFC0 ??1DrawableComposite@juce@@UEAA@XZ
       1316  523 0048C280 ??1DrawableImage@juce@@UEAA@XZ
       1317  524 0048B940 ??1DrawablePath@juce@@UEAA@XZ
       1318  525 0048B6D0 ??1DrawableRectangle@juce@@UEAA@XZ
       1319  526 0048B040 ??1DrawableShape@juce@@UEAA@XZ
       1320  527 0048A310 ??1DrawableText@juce@@UEAA@XZ
       1321  528 003A7720 ??1DropShadowEffect@juce@@UEAA@XZ
       1322  529 0043A2F0 ??1DropShadower@juce@@UEAA@XZ
       1323  52A 00006BA0 ??1DynamicLibrary@juce@@QEAA@XZ
       1324  52B 00006040 ??1DynamicObject@juce@@UEAA@XZ
       1325  52C 00008330 ??1EdgeTable@juce@@QEAA@XZ
       1326  52D 00005960 ??1ElementBase@RelativePointPath@juce@@UEAA@XZ
       1327  52E 002FD570 ??1Expression@juce@@QEAA@XZ
       1328  52F 00005FF0 ??1File@juce@@QEAA@XZ
       1329  530 004D5230 ??1FileBasedDocument@juce@@UEAA@XZ
       1330  531 00486C40 ??1FileBrowserComponent@juce@@UEAA@XZ
       1331  532 004B3C30 ??1FileBrowserListener@juce@@UEAA@XZ
       1332  533 004B4E70 ??1FileChooser@juce@@QEAA@XZ
       1333  534 00483240 ??1FileChooserDialogBox@juce@@UEAA@XZ
       1334  535 00005960 ??1FileDragAndDropTarget@juce@@UEAA@XZ
       1335  536 00318F40 ??1FileFilter@juce@@UEAA@XZ
       1336  537 002F13D0 ??1FileInputSource@juce@@UEAA@XZ
       1337  538 002F7C40 ??1FileInputStream@juce@@UEAA@XZ
       1338  539 004820B0 ??1FileListComponent@juce@@UEAA@XZ
       1339  53A 00302D90 ??1FileLogger@juce@@UEAA@XZ
       1340  53B 00311980 ??1FileOutputStream@juce@@UEAA@XZ
       1341  53C 004836B0 ??1FilePreviewComponent@juce@@UEAA@XZ
       1342  53D 00005C30 ??1FileSearchPath@juce@@QEAA@XZ
       1343  53E 00078450 ??1FileSearchPathListComponent@juce@@UEAA@XZ
       1344  53F 00480370 ??1FileTreeComponent@juce@@UEAA@XZ
       1345  540 0047FB60 ??1FilenameComponent@juce@@UEAA@XZ
       1346  541 00005960 ??1FilenameComponentListener@juce@@UEAA@XZ
       1347  542 003A5350 ??1FillType@juce@@QEAA@XZ
       1348  543 0026BBC0 ??1FlacAudioFormat@juce@@UEAA@XZ
       1349  544 0001FF00 ??1FlexBox@juce@@QEAA@XZ
       1350  545 00005960 ??1FocusChangeListener@juce@@UEAA@XZ
       1351  546 00439A10 ??1FocusOutline@juce@@UEAA@XZ
       1352  547 00005960 ??1FocusTraverser@juce@@UEAA@XZ
       1353  548 003A70F0 ??1Font@juce@@QEAA@XZ
       1354  549 00020CE0 ??1FontOptions@juce@@QEAA@XZ
       1355  54A 003A7BC0 ??1GIFImageFormat@juce@@UEAA@XZ
       1356  54B 002CC2F0 ??1GZIPCompressorOutputStream@juce@@UEAA@XZ
       1357  54C 002CC7D0 ??1GZIPDecompressorInputStream@juce@@UEAA@XZ
       1358  54D 002A3CE0 ??1GenericAudioProcessorEditor@juce@@UEAA@XZ
       1359  54E 003A52A0 ??1GlowEffect@juce@@UEAA@XZ
       1360  54F 00021A00 ??1GlyphArrangement@juce@@QEAA@XZ
       1361  550 0000C0C0 ??1Graphics@juce@@QEAA@XZ
       1362  551 00078FE0 ??1Grid@juce@@QEAA@XZ
       1363  552 000789A0 ??1GridItem@juce@@QEAA@XZ
       1364  553 00477460 ??1GroupComponent@juce@@UEAA@XZ
       1365  554 004C0A30 ??1HWNDComponent@juce@@UEAA@XZ
       1366  555 002C4D60 ??1HighResolutionTimer@juce@@UEAA@XZ
       1367  556 0007BAC0 ??1HostedAudioProcessorParameter@juce@@UEAA@XZ
       1368  557 004A11C0 ??1HyperlinkButton@juce@@UEAA@XZ
       1369  558 0022B190 ??1IIRCoefficients@juce@@QEAA@XZ
       1370  559 0021ADF0 ??1IIRFilterAudioSource@juce@@UEAA@XZ
       1371  55A 003153B0 ??1Identifier@juce@@QEAA@XZ
       1372  55B 003A78D0 ??1Image@juce@@QEAA@XZ
       1373  55C 004A0990 ??1ImageButton@juce@@UEAA@XZ
       1374  55D 0042A2A0 ??1ImageComponent@juce@@UEAA@XZ
       1375  55E 00390C90 ??1ImageConvolutionKernel@juce@@QEAA@XZ
       1376  55F 00005960 ??1ImageEffectFilter@juce@@UEAA@XZ
       1377  560 00005960 ??1ImageFileFormat@juce@@UEAA@XZ
       1378  561 00393560 ??1ImagePixelData@juce@@UEAA@XZ
       1379  562 0047E520 ??1ImagePreviewComponent@juce@@UEAA@XZ
       1380  563 00005960 ??1ImageProvider@ComponentBuilder@juce@@UEAA@XZ
       1381  564 003A9D00 ??1ImageType@juce@@UEAA@XZ
       1382  565 00005960 ??1IncomingDataReceiver@ThreadedWriter@AudioFormatWriter@juce@@UEAA@XZ
       1383  566 00005960 ??1InputFilter@TextEditor@juce@@UEAA@XZ
       1384  567 00005960 ??1InputSource@juce@@UEAA@XZ
       1385  568 00005960 ??1InputStream@juce@@UEAA@XZ
       1386  569 00007400 ??1InputStreamOptions@URL@juce@@QEAA@XZ
       1387  56A 002C5D00 ??1InterProcessLock@juce@@QEAA@XZ
       1388  56B 00075D60 ??1Interfaces@AccessibilityHandler@juce@@QEAA@XZ
       1389  56C 0032AAC0 ??1InterprocessConnection@juce@@UEAA@XZ
       1390  56D 00329730 ??1InterprocessConnectionServer@juce@@UEAA@XZ
       1391  56E 00076070 ??1Item@PopupMenu@juce@@QEAA@XZ
       1392  56F 004D4810 ??1Iterator@CodeDocument@juce@@QEAA@XZ
       1393  570 003AB250 ??1JPEGImageFormat@juce@@UEAA@XZ
       1394  571 004A3D90 ??1JUCEApplication@juce@@UEAA@XZ
       1395  572 0032D4C0 ??1JUCEApplicationBase@juce@@UEAA@XZ
       1396  573 00005960 ??1JobSelector@ThreadPool@juce@@UEAA@XZ
       1397  574 00005960 ??1KeyListener@juce@@UEAA@XZ
       1398  575 004C5F60 ??1KeyMappingEditorComponent@juce@@UEAA@XZ
       1399  576 00005960 ??1KeyMappingEditorComponentMethods@ExtraLookAndFeelBaseClasses@juce@@UEAA@XZ
       1400  577 0049D300 ??1KeyPressMappingSet@juce@@UEAA@XZ
       1401  578 0009D100 ??1KeyboardComponentBase@juce@@UEAA@XZ
       1402  579 00005960 ??1KeyboardFocusTraverser@juce@@UEAA@XZ
       1403  57A 002A2370 ??1KnownPluginList@juce@@UEAA@XZ
       1404  57B 004BB4C0 ??1Label@juce@@UEAA@XZ
       1405  57C 00005960 ??1LassoComponentMethods@ExtraLookAndFeelBaseClasses@juce@@UEAA@XZ
       1406  57D 00078150 ??1LaunchOptions@DialogWindow@juce@@QEAA@XZ
       1407  57E 00074990 ??1LengthAndCharacterRestriction@TextEditor@juce@@UEAA@XZ
       1408  57F 00022380 ??1Line@TextLayout@juce@@QEAA@XZ
       1409  580 00076AA0 ??1LineTo@RelativePointPath@juce@@UEAA@XZ
       1410  581 004B8C60 ??1ListBox@juce@@UEAA@XZ
       1411  582 00077140 ??1ListBoxModel@juce@@UEAA@XZ
       1412  583 00005960 ??1Listener@AudioProcessorParameter@juce@@UEAA@XZ
       1413  584 00005960 ??1Listener@AudioProcessorValueTreeState@juce@@UEAA@XZ
       1414  585 00005960 ??1Listener@Button@juce@@UEAA@XZ
       1415  586 00005960 ??1Listener@CodeDocument@juce@@UEAA@XZ
       1416  587 00005960 ??1Listener@ComboBox@juce@@UEAA@XZ
       1417  588 00005960 ??1Listener@Label@juce@@UEAA@XZ
       1418  589 00005960 ??1Listener@MPEInstrument@juce@@UEAA@XZ
       1419  58A 00005960 ??1Listener@MarkerList@juce@@UEAA@XZ
       1420  58B 00005960 ??1Listener@MenuBarModel@juce@@UEAA@XZ
       1421  58C 00005960 ??1Listener@MidiKeyboardState@juce@@UEAA@XZ
       1422  58D 00005960 ??1Listener@ScrollBar@juce@@UEAA@XZ
       1423  58E 00005960 ??1Listener@TableHeaderComponent@juce@@UEAA@XZ
       1424  58F 00005960 ??1Listener@TextEditor@juce@@UEAA@XZ
       1425  590 00005960 ??1Listener@TextPropertyComponent@juce@@UEAA@XZ
       1426  591 00005960 ??1Listener@Thread@juce@@UEAA@XZ
       1427  592 00005960 ??1Listener@Value@juce@@UEAA@XZ
       1428  593 00005960 ??1Listener@ValueTree@juce@@UEAA@XZ
       1429  594 00005960 ??1Listener@WebInputStream@juce@@UEAA@XZ
       1430  595 00005F50 ??1LocalisedStrings@juce@@QEAA@XZ
       1431  596 0032C370 ??1Lock@MessageManager@juce@@QEAA@XZ
       1432  597 0032DBA0 ??1LockingAsyncUpdater@juce@@QEAA@XZ
       1433  598 00318EF0 ??1Logger@juce@@UEAA@XZ
       1434  599 004688C0 ??1LookAndFeel@juce@@UEAA@XZ
       1435  59A 00005960 ??1LookAndFeelMethods@AlertWindow@juce@@UEAA@XZ
       1436  59B 00005960 ??1LookAndFeelMethods@BubbleComponent@juce@@UEAA@XZ
       1437  59C 00005960 ??1LookAndFeelMethods@Button@juce@@UEAA@XZ
       1438  59D 00005960 ??1LookAndFeelMethods@CallOutBox@juce@@UEAA@XZ
       1439  59E 00005960 ??1LookAndFeelMethods@ComboBox@juce@@UEAA@XZ
       1440  59F 00005960 ??1LookAndFeelMethods@ConcertinaPanel@juce@@UEAA@XZ
       1441  5A0 00005960 ??1LookAndFeelMethods@DocumentWindow@juce@@UEAA@XZ
       1442  5A1 00005960 ??1LookAndFeelMethods@FileBrowserComponent@juce@@UEAA@XZ
       1443  5A2 00005960 ??1LookAndFeelMethods@FilenameComponent@juce@@UEAA@XZ
       1444  5A3 00005960 ??1LookAndFeelMethods@GroupComponent@juce@@UEAA@XZ
       1445  5A4 00005960 ??1LookAndFeelMethods@ImageButton@juce@@UEAA@XZ
       1446  5A5 00005960 ??1LookAndFeelMethods@Label@juce@@UEAA@XZ
       1447  5A6 00005960 ??1LookAndFeelMethods@PopupMenu@juce@@UEAA@XZ
       1448  5A7 00005960 ??1LookAndFeelMethods@ProgressBar@juce@@UEAA@XZ
       1449  5A8 00005960 ??1LookAndFeelMethods@PropertyComponent@juce@@UEAA@XZ
       1450  5A9 00005960 ??1LookAndFeelMethods@ResizableWindow@juce@@UEAA@XZ
       1451  5AA 00005960 ??1LookAndFeelMethods@ScrollBar@juce@@UEAA@XZ
       1452  5AB 00005960 ??1LookAndFeelMethods@SidePanel@juce@@UEAA@XZ
       1453  5AC 00005960 ??1LookAndFeelMethods@Slider@juce@@UEAA@XZ
       1454  5AD 00005960 ??1LookAndFeelMethods@StretchableLayoutResizerBar@juce@@UEAA@XZ
       1455  5AE 00005960 ??1LookAndFeelMethods@TabbedButtonBar@juce@@UEAA@XZ
       1456  5AF 00005960 ??1LookAndFeelMethods@TableHeaderComponent@juce@@UEAA@XZ
       1457  5B0 00005960 ??1LookAndFeelMethods@TextEditor@juce@@UEAA@XZ
       1458  5B1 00005960 ??1LookAndFeelMethods@Toolbar@juce@@UEAA@XZ
       1459  5B2 00005960 ??1LookAndFeelMethods@TooltipWindow@juce@@UEAA@XZ
       1460  5B3 00005960 ??1LookAndFeelMethods@TreeView@juce@@UEAA@XZ
       1461  5B4 00467E20 ??1LookAndFeel_V1@juce@@UEAA@XZ
       1462  5B5 00463680 ??1LookAndFeel_V2@juce@@UEAA@XZ
       1463  5B6 0044F760 ??1LookAndFeel_V3@juce@@UEAA@XZ
       1464  5B7 0044AB30 ??1LookAndFeel_V4@juce@@UEAA@XZ
       1465  5B8 00005960 ??1LowLevelGraphicsContext@juce@@UEAA@XZ
       1466  5B9 00393620 ??1LowLevelGraphicsSoftwareRenderer@juce@@UEAA@XZ
       1467  5BA 004C7EA0 ??1LuaTokeniser@juce@@UEAA@XZ
       1468  5BB 0031AB30 ??1MD5@juce@@QEAA@XZ
       1469  5BC 00221C10 ??1MPEInstrument@juce@@UEAA@XZ
       1470  5BD 002B24F0 ??1MPEKeyboardComponent@juce@@UEAA@XZ
       1471  5BE 0021D9B0 ??1MPESynthesiser@juce@@UEAA@XZ
       1472  5BF 0000A2D0 ??1MPESynthesiserBase@juce@@UEAA@XZ
       1473  5C0 0021DC10 ??1MPESynthesiserVoice@juce@@UEAA@XZ
       1474  5C1 0000A1C0 ??1MPEZoneLayout@juce@@QEAA@XZ
       1475  5C2 00076510 ??1Marker@MarkerList@juce@@QEAA@XZ
       1476  5C3 00436D00 ??1MarkerList@juce@@QEAA@XZ
       1477  5C4 0000A7E0 ??1MemoryAudioSource@juce@@UEAA@XZ
       1478  5C5 00316A90 ??1MemoryBlock@juce@@QEAA@XZ
       1479  5C6 0030C7F0 ??1MemoryInputStream@juce@@UEAA@XZ
       1480  5C7 0005BB40 ??1MemoryMappedAudioFormatReader@juce@@UEAA@XZ
       1481  5C8 00311B90 ??1MemoryMappedFile@juce@@QEAA@XZ
       1482  5C9 00316BD0 ??1MemoryOutputStream@juce@@UEAA@XZ
       1483  5CA 00440220 ??1MenuBarComponent@juce@@UEAA@XZ
       1484  5CB 0043E6B0 ??1MenuBarModel@juce@@UEAA@XZ
       1485  5CC 0043B020 ??1MenuItemIterator@PopupMenu@juce@@QEAA@XZ
       1486  5CD 0032DD50 ??1Message@juce@@UEAA@XZ
       1487  5CE 000059E0 ??1MessageBase@MessageManager@juce@@UEAA@XZ
       1488  5CF 00077970 ??1MessageBoxOptions@juce@@QEAA@XZ
       1489  5D0 0032DA50 ??1MessageListener@juce@@UEAA@XZ
       1490  5D1 0032CAA0 ??1MessageManager@juce@@QEAA@XZ
       1491  5D2 0032BAC0 ??1MessageManagerLock@juce@@UEAA@XZ
       1492  5D3 00009DC0 ??1MidiBuffer@juce@@QEAA@XZ
       1493  5D4 00009F20 ??1MidiFile@juce@@QEAA@XZ
       1494  5D5 0023FB30 ??1MidiInput@juce@@QEAA@XZ
       1495  5D6 00005960 ??1MidiInputCallback@juce@@UEAA@XZ
       1496  5D7 002B4630 ??1MidiKeyboardComponent@juce@@UEAA@XZ
       1497  5D8 00009F60 ??1MidiKeyboardState@juce@@QEAA@XZ
       1498  5D9 00227490 ??1MidiMessage@juce@@QEAA@XZ
       1499  5DA 00236660 ??1MidiMessageCollector@juce@@UEAA@XZ
       1500  5DB 00009EF0 ??1MidiMessageSequence@juce@@QEAA@XZ
       1501  5DC 0023F600 ??1MidiOutput@juce@@UEAA@XZ
       1502  5DD 0021A610 ??1MixerAudioSource@juce@@UEAA@XZ
       1503  5DE 00492470 ??1ModalComponentManager@juce@@MEAA@XZ
       1504  5DF 003278A0 ??1MountedVolumeListChangeDetector@juce@@UEAA@XZ
       1505  5E0 004A5670 ??1MouseCursor@juce@@QEAA@XZ
       1506  5E1 00005960 ??1MouseEvent@juce@@QEAA@XZ
       1507  5E2 004379E0 ??1MouseInactivityDetector@juce@@UEAA@XZ
       1508  5E3 004B71D0 ??1MouseInputSource@juce@@QEAA@XZ
       1509  5E4 00005960 ??1MouseListener@juce@@UEAA@XZ
       1510  5E5 00476D40 ??1MultiDocumentPanel@juce@@UEAA@XZ
       1511  5E6 004770B0 ??1MultiDocumentPanelWindow@juce@@UEAA@XZ
       1512  5E7 0032B130 ??1MultiTimer@juce@@UEAA@XZ
       1513  5E8 002F57F0 ??1NamedPipe@juce@@QEAA@XZ
       1514  5E9 0030C560 ??1NamedValue@NamedValueSet@juce@@QEAA@XZ
       1515  5EA 003156E0 ??1NamedValueSet@juce@@QEAA@XZ
       1516  5EB 003A7E00 ??1NativeImageType@juce@@UEAA@XZ
       1517  5EC 0007CC80 ??1Node@AudioProcessorGraph@juce@@UEAA@XZ
       1518  5ED 002464E0 ??1OggVorbisAudioFormat@juce@@UEAA@XZ
       1519  5EE 004D7110 ??1OpenGLAppComponent@juce@@UEAA@XZ
       1520  5EF 004D8820 ??1OpenGLContext@juce@@QEAA@XZ
       1521  5F0 004DBF60 ??1OpenGLFrameBuffer@juce@@QEAA@XZ
       1522  5F1 004DB190 ??1OpenGLGraphicsContextCustomShader@juce@@QEAA@XZ
       1523  5F2 004DA370 ??1OpenGLImageType@juce@@UEAA@XZ
       1524  5F3 00005960 ??1OpenGLRenderer@juce@@UEAA@XZ
       1525  5F4 004DA000 ??1OpenGLShaderProgram@juce@@QEAA@XZ
       1526  5F5 004D91E0 ??1OpenGLTexture@juce@@QEAA@XZ
       1527  5F6 0040FEA0 ??1OpennessRestorer@TreeViewItem@juce@@QEAA@XZ
       1528  5F7 00076160 ??1Options@PopupMenu@juce@@QEAA@XZ
       1529  5F8 00073920 ??1Options@PropertiesFile@juce@@QEAA@XZ
       1530  5F9 0007A8D0 ??1Options@WebBrowserComponent@juce@@QEAA@XZ
       1531  5FA 00005960 ??1OutlineWindowProperties@FocusOutline@juce@@UEAA@XZ
       1532  5FB 002E8040 ??1OutputStream@juce@@UEAA@XZ
       1533  5FC 003A8B80 ??1PNGImageFormat@juce@@UEAA@XZ
       1534  5FD 00080230 ??1ParameterLayout@AudioProcessorValueTreeState@juce@@QEAA@XZ
       1535  5FE 003A9600 ??1Path@juce@@QEAA@XZ
       1536  5FF 0039AB30 ??1PathFlatteningIterator@juce@@QEAA@XZ
       1537  600 003A50E0 ??1PathStrokeType@juce@@QEAA@XZ
       1538  601 002E35E0 ??1PerformanceCounter@juce@@QEAA@XZ
       1539  602 0007C470 ??1PluginDescription@juce@@QEAA@XZ
       1540  603 0029FD50 ??1PluginDirectoryScanner@juce@@QEAA@XZ
       1541  604 0029E8F0 ??1PluginListComponent@juce@@UEAA@XZ
       1542  605 004B6E70 ??1PopupMenu@juce@@QEAA@XZ
       1543  606 004D54B0 ??1Position@CodeDocument@juce@@QEAA@XZ
       1544  607 00005960 ??1PositionableAudioSource@juce@@UEAA@XZ
       1545  608 0000C000 ??1PositionedGlyph@juce@@QEAA@XZ
       1546  609 00005960 ??1Positioner@Component@juce@@UEAA@XZ
       1547  60A 004C5C70 ??1PreferencesPanel@juce@@UEAA@XZ
       1548  60B 000773A0 ??1ProgressBar@juce@@UEAA@XZ
       1549  60C 00320420 ??1PropertiesFile@juce@@UEAA@XZ
       1550  60D 004B9900 ??1PropertyComponent@juce@@UEAA@XZ
       1551  60E 0042E4C0 ??1PropertyPanel@juce@@UEAA@XZ
       1552  60F 0030B240 ??1PropertySet@juce@@UEAA@XZ
       1553  610 004C4DC0 ??1PushNotifications@juce@@EEAA@XZ
       1554  611 00076AF0 ??1QuadraticTo@RelativePointPath@juce@@UEAA@XZ
       1555  612 000BFA90 ??1RSAKey@juce@@QEAA@XZ
       1556  613 0007D600 ??1RangedAudioParameter@juce@@UEAA@XZ
       1557  614 002E5BD0 ??1ReadWriteLock@juce@@QEAA@XZ
       1558  615 00005C30 ??1RecentlyOpenedFilesList@juce@@QEAA@XZ
       1559  616 000059E0 ??1ReferenceCountedObject@juce@@MEAA@XZ
       1560  617 004B8870 ??1RelativeCoordinate@juce@@QEAA@XZ
       1561  618 00435B60 ??1RelativeCoordinatePositionerBase@juce@@UEAA@XZ
       1562  619 00435370 ??1RelativeParallelogram@juce@@QEAA@XZ
       1563  61A 00076620 ??1RelativePoint@juce@@QEAA@XZ
       1564  61B 00433760 ??1RelativePointPath@juce@@QEAA@XZ
       1565  61C 00076780 ??1RelativeRectangle@juce@@QEAA@XZ
       1566  61D 002E2BA0 ??1RelativeTime@juce@@QEAA@XZ
       1567  61E 00219B50 ??1ResamplingAudioSource@juce@@UEAA@XZ
       1568  61F 004746E0 ??1ResizableBorderComponent@juce@@UEAA@XZ
       1569  620 00474000 ??1ResizableCornerComponent@juce@@UEAA@XZ
       1570  621 004739F0 ??1ResizableEdgeComponent@juce@@UEAA@XZ
       1571  622 00406930 ??1ResizableWindow@juce@@UEAA@XZ
       1572  623 00005FF0 ??1Result@juce@@QEAA@XZ
       1573  624 002187E0 ??1ReverbAudioSource@juce@@UEAA@XZ
       1574  625 000220A0 ??1Run@TextLayout@juce@@QEAA@XZ
       1575  626 0031A3A0 ??1SHA256@juce@@QEAA@XZ
       1576  627 0028CED0 ??1SamplerSound@juce@@UEAA@XZ
       1577  628 0028CD70 ??1SamplerVoice@juce@@UEAA@XZ
       1578  629 00005960 ??1ScaleFactorListener@ComponentPeer@juce@@UEAA@XZ
       1579  62A 0000C000 ??1ScaledImage@juce@@QEAA@XZ
       1580  62B 003182E0 ??1Scope@Expression@juce@@UEAA@XZ
       1581  62C 004A9D20 ??1ScopedDPIAwarenessDisabler@juce@@QEAA@XZ
       1582  62D 00426080 ??1ScopedDragNotification@Slider@juce@@QEAA@XZ
       1583  62E 0032B990 ??1ScopedJuceInitialiser_GUI@juce@@QEAA@XZ
       1584  62F 004BBBC0 ??1ScopedMessageBox@juce@@QEAA@XZ
       1585  630 00006EE0 ??1ScopedReadLock@juce@@QEAA@XZ
       1586  631 00007AD0 ??1ScopedTimeMeasurement@juce@@QEAA@XZ
       1587  632 0022B1C0 ??1ScopedTimer@AudioProcessLoadMeasurer@juce@@QEAA@XZ
       1588  633 00006F50 ??1ScopedTryReadLock@juce@@QEAA@XZ
       1589  634 00007020 ??1ScopedTryWriteLock@juce@@QEAA@XZ
       1590  635 00006FB0 ??1ScopedWriteLock@juce@@QEAA@XZ
       1591  636 00473170 ??1ScrollBar@juce@@UEAA@XZ
       1592  637 00074990 ??1SettableTooltipClient@juce@@UEAA@XZ
       1593  638 0049FF30 ??1ShapeButton@juce@@UEAA@XZ
       1594  639 0000C7A0 ??1ShapedText@juce@@QEAA@XZ
       1595  63A 00005B00 ??1SingleThreadedReferenceCountedObject@juce@@MEAA@XZ
       1596  63B 004BB0A0 ??1Slider@juce@@UEAA@XZ
       1597  63C 0000C0C0 ??1SliderAttachment@AudioProcessorValueTreeState@juce@@QEAA@XZ
       1598  63D 0042CF20 ??1SliderPropertyComponent@juce@@UEAA@XZ
       1599  63E 003AB3F0 ??1SoftwareImageType@juce@@UEAA@XZ
       1600  63F 002AF410 ??1SoundPlayer@juce@@UEAA@XZ
       1601  640 000745B0 ??1SourceDetails@DragAndDropTarget@juce@@QEAA@XZ
       1602  641 00005960 ??1SpinLock@juce@@QEAA@XZ
       1603  642 004C4010 ??1SplashScreen@juce@@UEAA@XZ
       1604  643 00076AA0 ??1StartSubPath@RelativePointPath@juce@@UEAA@XZ
       1605  644 002F47A0 ??1StreamingSocket@juce@@QEAA@XZ
       1606  645 00470370 ??1StretchableLayoutManager@juce@@QEAA@XZ
       1607  646 0046ED90 ??1StretchableLayoutResizerBar@juce@@UEAA@XZ
       1608  647 003186C0 ??1String@juce@@QEAA@XZ
       1609  648 00005C30 ??1StringArray@juce@@QEAA@XZ
       1610  649 00005D40 ??1StringPairArray@juce@@QEAA@XZ
       1611  64A 00005C00 ??1StringPool@juce@@QEAA@XZ
       1612  64B 002F0A80 ??1SubregionStream@juce@@UEAA@XZ
       1613  64C 00217A90 ??1Synthesiser@juce@@UEAA@XZ
       1614  64D 002181A0 ??1SynthesiserSound@juce@@UEAA@XZ
       1615  64E 002180E0 ??1SynthesiserVoice@juce@@UEAA@XZ
       1616  64F 004C3110 ??1SystemTrayIconComponent@juce@@UEAA@XZ
       1617  650 0046E640 ??1TabBarButton@juce@@UEAA@XZ
       1618  651 0046DA40 ??1TabbedButtonBar@juce@@UEAA@XZ
       1619  652 0046BCD0 ??1TabbedComponent@juce@@UEAA@XZ
       1620  653 00424110 ??1TableHeaderComponent@juce@@UEAA@XZ
       1621  654 004B6FA0 ??1TableListBox@juce@@UEAA@XZ
       1622  655 00005960 ??1TableListBoxModel@juce@@UEAA@XZ
       1623  656 00310260 ??1TemporaryFile@juce@@QEAA@XZ
       1624  657 004B2E80 ??1TextButton@juce@@UEAA@XZ
       1625  658 00005DA0 ??1TextDiff@juce@@QEAA@XZ
       1626  659 00005960 ??1TextDragAndDropTarget@juce@@UEAA@XZ
       1627  65A 0041EED0 ??1TextEditor@juce@@UEAA@XZ
       1628  65B 00007BF0 ??1TextFormat@XmlElement@juce@@QEAA@XZ
       1629  65C 00005960 ??1TextInputTarget@juce@@UEAA@XZ
       1630  65D 003AB320 ??1TextLayout@juce@@QEAA@XZ
       1631  65E 0042C8C0 ??1TextPropertyComponent@juce@@UEAA@XZ
       1632  65F 003142B0 ??1Thread@juce@@UEAA@XZ
       1633  660 00318FC0 ??1ThreadPool@juce@@QEAA@XZ
       1634  661 0030DA30 ??1ThreadPoolJob@juce@@UEAA@XZ
       1635  662 00404490 ??1ThreadWithProgressWindow@juce@@UEAA@XZ
       1636  663 00005960 ??1TimeSliceClient@juce@@UEAA@XZ
       1637  664 0030C9D0 ??1TimeSliceThread@juce@@UEAA@XZ
       1638  665 0032E530 ??1Timer@juce@@UEAA@XZ
       1639  666 004B9FD0 ??1ToggleButton@juce@@UEAA@XZ
       1640  667 00218460 ??1ToneGeneratorAudioSource@juce@@UEAA@XZ
       1641  668 00416220 ??1Toolbar@juce@@UEAA@XZ
       1642  669 0049F3A0 ??1ToolbarButton@juce@@UEAA@XZ
       1643  66A 00414500 ??1ToolbarItemComponent@juce@@UEAA@XZ
       1644  66B 004BBD00 ??1ToolbarItemFactory@juce@@UEAA@XZ
       1645  66C 00413B60 ??1ToolbarItemPalette@juce@@UEAA@XZ
       1646  66D 00005960 ??1TooltipClient@juce@@UEAA@XZ
       1647  66E 00404160 ??1TooltipWindow@juce@@UEAA@XZ
       1648  66F 00402F20 ??1TopLevelWindow@juce@@UEAA@XZ
       1649  670 004B93F0 ??1TreeView@juce@@UEAA@XZ
       1650  671 004B3AA0 ??1TreeViewItem@juce@@UEAA@XZ
       1651  672 0047A970 ??1TypeHandler@ComponentBuilder@juce@@UEAA@XZ
       1652  673 00355370 ??1Typeface@juce@@UEAA@XZ
       1653  674 000075D0 ??1URL@juce@@QEAA@XZ
       1654  675 002BD8B0 ??1URLInputSource@juce@@UEAA@XZ
       1655  676 00321EB0 ??1UndoManager@juce@@UEAA@XZ
       1656  677 00005960 ??1UndoableAction@juce@@UEAA@XZ
       1657  678 002DF6D0 ??1UnitTest@juce@@UEAA@XZ
       1658  679 002DF290 ??1UnitTestRunner@juce@@UEAA@XZ
       1659  67A 002FAE90 ??1Uuid@juce@@QEAA@XZ
       1660  67B 004BE2B0 ??1VBlankAttachment@juce@@UEAA@XZ
       1661  67C 00005960 ??1VBlankListener@ComponentPeer@juce@@UEAA@XZ
       1662  67D 003272E0 ??1Value@juce@@QEAA@XZ
       1663  67E 00326EC0 ??1ValueSource@Value@juce@@UEAA@XZ
       1664  67F 00326BB0 ??1ValueTree@juce@@QEAA@XZ
       1665  680 00072730 ??1ValueTreePropertyWithDefault@juce@@UEAA@XZ
       1666  681 00323250 ??1ValueTreeSynchroniser@juce@@UEAA@XZ
       1667  682 004DFFE0 ??1VideoComponent@juce@@UEAA@XZ
       1668  683 0046AA80 ??1Viewport@juce@@UEAA@XZ
       1669  684 00243060 ??1WavAudioFormat@juce@@UEAA@XZ
       1670  685 004D5950 ??1WebBrowserComponent@juce@@UEAA@XZ
       1671  686 0007B730 ??1WebComboBoxRelay@juce@@UEAA@XZ
       1672  687 00005960 ??1WebControlParameterIndexReceiver@juce@@UEAA@XZ
       1673  688 002BE470 ??1WebInputStream@juce@@UEAA@XZ
       1674  689 0007B6B0 ??1WebSliderRelay@juce@@UEAA@XZ
       1675  68A 0007B730 ??1WebToggleButtonRelay@juce@@UEAA@XZ
       1676  68B 00005960 ??1WebViewLifetimeListener@juce@@UEAA@XZ
       1677  68C 00319E80 ??1Whirlpool@juce@@QEAA@XZ
       1678  68D 003157F0 ??1WildcardFileFilter@juce@@UEAA@XZ
       1679  68E 002DACF0 ??1XmlDocument@juce@@QEAA@XZ
       1680  68F 00316680 ??1XmlElement@juce@@QEAA@XZ
       1681  690 004C8280 ??1XmlTokeniser@juce@@UEAA@XZ
       1682  691 002CB950 ??1ZipFile@juce@@QEAA@XZ
       1683  692 0030DD80 ??1var@juce@@QEAA@XZ
       1684  693 00005940 ??2?$IIRFilterBase@VDummyCriticalSection@juce@@@juce@@SAPEAX_K@Z
       1685  694 00004D80 ??2?$IIRFilterBase@VDummyCriticalSection@juce@@@juce@@SAPEAX_KPEAX@Z
       1686  695 00005940 ??2?$IIRFilterBase@VSpinLock@juce@@@juce@@SAPEAX_K@Z
       1687  696 00004D80 ??2?$IIRFilterBase@VSpinLock@juce@@@juce@@SAPEAX_KPEAX@Z
       1688  697 00005940 ??2AbstractFifo@juce@@SAPEAX_K@Z
       1689  698 00004D80 ??2AbstractFifo@juce@@SAPEAX_KPEAX@Z
       1690  699 00005940 ??2AccessibilityHandler@juce@@SAPEAX_K@Z
       1691  69A 00004D80 ??2AccessibilityHandler@juce@@SAPEAX_KPEAX@Z
       1692  69B 00005940 ??2ActiveXControlComponent@juce@@SAPEAX_K@Z
       1693  69C 00004D80 ??2ActiveXControlComponent@juce@@SAPEAX_KPEAX@Z
       1694  69D 00005940 ??2AiffAudioFormat@juce@@SAPEAX_K@Z
       1695  69E 00004D80 ??2AiffAudioFormat@juce@@SAPEAX_KPEAX@Z
       1696  69F 00005940 ??2AlertWindow@juce@@SAPEAX_K@Z
       1697  6A0 00004D80 ??2AlertWindow@juce@@SAPEAX_KPEAX@Z
       1698  6A1 00005940 ??2AnimatedAppComponent@juce@@SAPEAX_K@Z
       1699  6A2 00004D80 ??2AnimatedAppComponent@juce@@SAPEAX_KPEAX@Z
       1700  6A3 00005940 ??2ApplicationCommandManager@juce@@SAPEAX_K@Z
       1701  6A4 00004D80 ??2ApplicationCommandManager@juce@@SAPEAX_KPEAX@Z
       1702  6A5 00005940 ??2ApplicationCommandTarget@juce@@SAPEAX_K@Z
       1703  6A6 00004D80 ??2ApplicationCommandTarget@juce@@SAPEAX_KPEAX@Z
       1704  6A7 00005940 ??2ApplicationProperties@juce@@SAPEAX_K@Z
       1705  6A8 00004D80 ??2ApplicationProperties@juce@@SAPEAX_KPEAX@Z
       1706  6A9 00005940 ??2ArrowButton@juce@@SAPEAX_K@Z
       1707  6AA 00004D80 ??2ArrowButton@juce@@SAPEAX_KPEAX@Z
       1708  6AB 00005940 ??2AsyncUpdater@juce@@SAPEAX_K@Z
       1709  6AC 00004D80 ??2AsyncUpdater@juce@@SAPEAX_KPEAX@Z
       1710  6AD 00005940 ??2Attribute@AttributedString@juce@@SAPEAX_K@Z
       1711  6AE 00004D80 ??2Attribute@AttributedString@juce@@SAPEAX_KPEAX@Z
       1712  6AF 00005940 ??2AttributedString@juce@@SAPEAX_K@Z
       1713  6B0 00004D80 ??2AttributedString@juce@@SAPEAX_KPEAX@Z
       1714  6B1 00005940 ??2AudioAppComponent@juce@@SAPEAX_K@Z
       1715  6B2 00004D80 ??2AudioAppComponent@juce@@SAPEAX_KPEAX@Z
       1716  6B3 00005940 ??2AudioDeviceManager@juce@@SAPEAX_K@Z
       1717  6B4 00004D80 ??2AudioDeviceManager@juce@@SAPEAX_KPEAX@Z
       1718  6B5 00005940 ??2AudioDeviceSelectorComponent@juce@@SAPEAX_K@Z
       1719  6B6 00004D80 ??2AudioDeviceSelectorComponent@juce@@SAPEAX_KPEAX@Z
       1720  6B7 00005940 ??2AudioFormatManager@juce@@SAPEAX_K@Z
       1721  6B8 00004D80 ??2AudioFormatManager@juce@@SAPEAX_KPEAX@Z
       1722  6B9 00005940 ??2AudioFormatReader@juce@@SAPEAX_K@Z
       1723  6BA 00004D80 ??2AudioFormatReader@juce@@SAPEAX_KPEAX@Z
       1724  6BB 00005940 ??2AudioFormatReaderSource@juce@@SAPEAX_K@Z
       1725  6BC 00004D80 ??2AudioFormatReaderSource@juce@@SAPEAX_KPEAX@Z
       1726  6BD 00005940 ??2AudioFormatWriter@juce@@SAPEAX_K@Z
       1727  6BE 00004D80 ??2AudioFormatWriter@juce@@SAPEAX_KPEAX@Z
       1728  6BF 00005940 ??2AudioGraphIOProcessor@AudioProcessorGraph@juce@@SAPEAX_K@Z
       1729  6C0 00004D80 ??2AudioGraphIOProcessor@AudioProcessorGraph@juce@@SAPEAX_KPEAX@Z
       1730  6C1 00005940 ??2AudioParameterBool@juce@@SAPEAX_K@Z
       1731  6C2 00004D80 ??2AudioParameterBool@juce@@SAPEAX_KPEAX@Z
       1732  6C3 00005940 ??2AudioParameterChoice@juce@@SAPEAX_K@Z
       1733  6C4 00004D80 ??2AudioParameterChoice@juce@@SAPEAX_KPEAX@Z
       1734  6C5 00005940 ??2AudioParameterFloat@juce@@SAPEAX_K@Z
       1735  6C6 00004D80 ??2AudioParameterFloat@juce@@SAPEAX_KPEAX@Z
       1736  6C7 00005940 ??2AudioParameterInt@juce@@SAPEAX_K@Z
       1737  6C8 00004D80 ??2AudioParameterInt@juce@@SAPEAX_KPEAX@Z
       1738  6C9 00005940 ??2AudioPluginFormat@juce@@SAPEAX_K@Z
       1739  6CA 00004D80 ??2AudioPluginFormat@juce@@SAPEAX_KPEAX@Z
       1740  6CB 00005940 ??2AudioPluginFormatManager@juce@@SAPEAX_K@Z
       1741  6CC 00004D80 ??2AudioPluginFormatManager@juce@@SAPEAX_KPEAX@Z
       1742  6CD 00005940 ??2AudioPluginInstance@juce@@SAPEAX_K@Z
       1743  6CE 00004D80 ??2AudioPluginInstance@juce@@SAPEAX_KPEAX@Z
       1744  6CF 00005940 ??2AudioProcessor@juce@@SAPEAX_K@Z
       1745  6D0 00004D80 ??2AudioProcessor@juce@@SAPEAX_KPEAX@Z
       1746  6D1 00005940 ??2AudioProcessorGraph@juce@@SAPEAX_K@Z
       1747  6D2 00004D80 ??2AudioProcessorGraph@juce@@SAPEAX_KPEAX@Z
       1748  6D3 00005940 ??2AudioProcessorParameter@juce@@SAPEAX_K@Z
       1749  6D4 00004D80 ??2AudioProcessorParameter@juce@@SAPEAX_KPEAX@Z
       1750  6D5 00005940 ??2AudioProcessorParameterGroup@juce@@SAPEAX_K@Z
       1751  6D6 00004D80 ??2AudioProcessorParameterGroup@juce@@SAPEAX_KPEAX@Z
       1752  6D7 00005940 ??2AudioProcessorParameterWithID@juce@@SAPEAX_K@Z
       1753  6D8 00004D80 ??2AudioProcessorParameterWithID@juce@@SAPEAX_KPEAX@Z
       1754  6D9 00005940 ??2AudioProcessorPlayer@juce@@SAPEAX_K@Z
       1755  6DA 00004D80 ??2AudioProcessorPlayer@juce@@SAPEAX_KPEAX@Z
       1756  6DB 00005940 ??2AudioProcessorValueTreeState@juce@@SAPEAX_K@Z
       1757  6DC 00004D80 ??2AudioProcessorValueTreeState@juce@@SAPEAX_KPEAX@Z
       1758  6DD 00005940 ??2AudioSourcePlayer@juce@@SAPEAX_K@Z
       1759  6DE 00004D80 ??2AudioSourcePlayer@juce@@SAPEAX_KPEAX@Z
       1760  6DF 00005940 ??2AudioSubsectionReader@juce@@SAPEAX_K@Z
       1761  6E0 00004D80 ??2AudioSubsectionReader@juce@@SAPEAX_KPEAX@Z
       1762  6E1 00005940 ??2AudioThumbnail@juce@@SAPEAX_K@Z
       1763  6E2 00004D80 ??2AudioThumbnail@juce@@SAPEAX_KPEAX@Z
       1764  6E3 00005940 ??2AudioThumbnailCache@juce@@SAPEAX_K@Z
       1765  6E4 00004D80 ??2AudioThumbnailCache@juce@@SAPEAX_KPEAX@Z
       1766  6E5 00005940 ??2AudioTransportSource@juce@@SAPEAX_K@Z
       1767  6E6 00004D80 ??2AudioTransportSource@juce@@SAPEAX_KPEAX@Z
       1768  6E7 00005940 ??2AudioVisualiserComponent@juce@@SAPEAX_K@Z
       1769  6E8 00004D80 ??2AudioVisualiserComponent@juce@@SAPEAX_KPEAX@Z
       1770  6E9 00005940 ??2BigInteger@juce@@SAPEAX_K@Z
       1771  6EA 00004D80 ??2BigInteger@juce@@SAPEAX_KPEAX@Z
       1772  6EB 00005940 ??2BlowFish@juce@@SAPEAX_K@Z
       1773  6EC 00004D80 ??2BlowFish@juce@@SAPEAX_KPEAX@Z
       1774  6ED 00005940 ??2BooleanPropertyComponent@juce@@SAPEAX_K@Z
       1775  6EE 00004D80 ??2BooleanPropertyComponent@juce@@SAPEAX_KPEAX@Z
       1776  6EF 00005940 ??2BorderedComponentBoundsConstrainer@juce@@SAPEAX_K@Z
       1777  6F0 00004D80 ??2BorderedComponentBoundsConstrainer@juce@@SAPEAX_KPEAX@Z
       1778  6F1 00005940 ??2BubbleComponent@juce@@SAPEAX_K@Z
       1779  6F2 00004D80 ??2BubbleComponent@juce@@SAPEAX_KPEAX@Z
       1780  6F3 00005940 ??2BubbleMessageComponent@juce@@SAPEAX_K@Z
       1781  6F4 00004D80 ??2BubbleMessageComponent@juce@@SAPEAX_KPEAX@Z
       1782  6F5 00005940 ??2BufferedInputStream@juce@@SAPEAX_K@Z
       1783  6F6 00004D80 ??2BufferedInputStream@juce@@SAPEAX_KPEAX@Z
       1784  6F7 00005940 ??2BufferingAudioReader@juce@@SAPEAX_K@Z
       1785  6F8 00004D80 ??2BufferingAudioReader@juce@@SAPEAX_KPEAX@Z
       1786  6F9 00005940 ??2BufferingAudioSource@juce@@SAPEAX_K@Z
       1787  6FA 00004D80 ??2BufferingAudioSource@juce@@SAPEAX_KPEAX@Z
       1788  6FB 00005940 ??2Builder@ZipFile@juce@@SAPEAX_K@Z
       1789  6FC 00004D80 ??2Builder@ZipFile@juce@@SAPEAX_KPEAX@Z
       1790  6FD 00005940 ??2Button@juce@@SAPEAX_K@Z
       1791  6FE 00004D80 ??2Button@juce@@SAPEAX_KPEAX@Z
       1792  6FF 00005940 ??2ButtonAttachment@AudioProcessorValueTreeState@juce@@SAPEAX_K@Z
       1793  700 00004D80 ??2ButtonAttachment@AudioProcessorValueTreeState@juce@@SAPEAX_KPEAX@Z
       1794  701 00005940 ??2ButtonPropertyComponent@juce@@SAPEAX_K@Z
       1795  702 00004D80 ??2ButtonPropertyComponent@juce@@SAPEAX_KPEAX@Z
       1796  703 00005940 ??2CPlusPlusCodeTokeniser@juce@@SAPEAX_K@Z
       1797  704 00004D80 ??2CPlusPlusCodeTokeniser@juce@@SAPEAX_KPEAX@Z
       1798  705 00005940 ??2CallOutBox@juce@@SAPEAX_K@Z
       1799  706 00004D80 ??2CallOutBox@juce@@SAPEAX_KPEAX@Z
       1800  707 00005940 ??2CaretComponent@juce@@SAPEAX_K@Z
       1801  708 00004D80 ??2CaretComponent@juce@@SAPEAX_KPEAX@Z
       1802  709 00005940 ??2ChildProcess@juce@@SAPEAX_K@Z
       1803  70A 00004D80 ??2ChildProcess@juce@@SAPEAX_KPEAX@Z
       1804  70B 00005940 ??2ChildProcessCoordinator@juce@@SAPEAX_K@Z
       1805  70C 00004D80 ??2ChildProcessCoordinator@juce@@SAPEAX_KPEAX@Z
       1806  70D 00005940 ??2ChildProcessWorker@juce@@SAPEAX_K@Z
       1807  70E 00004D80 ??2ChildProcessWorker@juce@@SAPEAX_KPEAX@Z
       1808  70F 00005940 ??2ChoicePropertyComponent@juce@@SAPEAX_K@Z
       1809  710 00004D80 ??2ChoicePropertyComponent@juce@@SAPEAX_KPEAX@Z
       1810  711 00005940 ??2CodeDocument@juce@@SAPEAX_K@Z
       1811  712 00004D80 ??2CodeDocument@juce@@SAPEAX_KPEAX@Z
       1812  713 00005940 ??2CodeEditorComponent@juce@@SAPEAX_K@Z
       1813  714 00004D80 ??2CodeEditorComponent@juce@@SAPEAX_KPEAX@Z
       1814  715 00005940 ??2CodeTokeniser@juce@@SAPEAX_K@Z
       1815  716 00004D80 ??2CodeTokeniser@juce@@SAPEAX_KPEAX@Z
       1816  717 00005940 ??2ColourGradient@juce@@SAPEAX_K@Z
       1817  718 00004D80 ??2ColourGradient@juce@@SAPEAX_KPEAX@Z
       1818  719 00005940 ??2ColourSelector@juce@@SAPEAX_K@Z
       1819  71A 00004D80 ??2ColourSelector@juce@@SAPEAX_KPEAX@Z
       1820  71B 00005940 ??2ComboBox@juce@@SAPEAX_K@Z
       1821  71C 00004D80 ??2ComboBox@juce@@SAPEAX_KPEAX@Z
       1822  71D 00005940 ??2ComboBoxAttachment@AudioProcessorValueTreeState@juce@@SAPEAX_K@Z
       1823  71E 00004D80 ??2ComboBoxAttachment@AudioProcessorValueTreeState@juce@@SAPEAX_KPEAX@Z
       1824  71F 00005940 ??2Component@juce@@SAPEAX_K@Z
       1825  720 00004D80 ??2Component@juce@@SAPEAX_KPEAX@Z
       1826  721 00005940 ??2ComponentAnimator@juce@@SAPEAX_K@Z
       1827  722 00004D80 ??2ComponentAnimator@juce@@SAPEAX_KPEAX@Z
       1828  723 00005940 ??2ComponentBoundsConstrainer@juce@@SAPEAX_K@Z
       1829  724 00004D80 ??2ComponentBoundsConstrainer@juce@@SAPEAX_KPEAX@Z
       1830  725 00005940 ??2ComponentBuilder@juce@@SAPEAX_K@Z
       1831  726 00004D80 ??2ComponentBuilder@juce@@SAPEAX_KPEAX@Z
       1832  727 00005940 ??2ComponentDragger@juce@@SAPEAX_K@Z
       1833  728 00004D80 ??2ComponentDragger@juce@@SAPEAX_KPEAX@Z
       1834  729 00005940 ??2ComponentMovementWatcher@juce@@SAPEAX_K@Z
       1835  72A 00004D80 ??2ComponentMovementWatcher@juce@@SAPEAX_KPEAX@Z
       1836  72B 00005940 ??2ComponentPeer@juce@@SAPEAX_K@Z
       1837  72C 00004D80 ??2ComponentPeer@juce@@SAPEAX_KPEAX@Z
       1838  72D 00005940 ??2ConcertinaPanel@juce@@SAPEAX_K@Z
       1839  72E 00004D80 ??2ConcertinaPanel@juce@@SAPEAX_KPEAX@Z
       1840  72F 00005940 ??2CustomCallback@PopupMenu@juce@@SAPEAX_K@Z
       1841  730 00004D80 ??2CustomCallback@PopupMenu@juce@@SAPEAX_KPEAX@Z
       1842  731 00005940 ??2CustomComponent@PopupMenu@juce@@SAPEAX_K@Z
       1843  732 00004D80 ??2CustomComponent@PopupMenu@juce@@SAPEAX_KPEAX@Z
       1844  733 00005940 ??2DatagramSocket@juce@@SAPEAX_K@Z
       1845  734 00004D80 ??2DatagramSocket@juce@@SAPEAX_KPEAX@Z
       1846  735 00005940 ??2Desktop@juce@@SAPEAX_K@Z
       1847  736 00004D80 ??2Desktop@juce@@SAPEAX_KPEAX@Z
       1848  737 00005940 ??2DialogWindow@juce@@SAPEAX_K@Z
       1849  738 00004D80 ??2DialogWindow@juce@@SAPEAX_KPEAX@Z
       1850  739 00005940 ??2DirectoryContentsDisplayComponent@juce@@SAPEAX_K@Z
       1851  73A 00004D80 ??2DirectoryContentsDisplayComponent@juce@@SAPEAX_KPEAX@Z
       1852  73B 00005940 ??2DirectoryContentsList@juce@@SAPEAX_K@Z
       1853  73C 00004D80 ??2DirectoryContentsList@juce@@SAPEAX_KPEAX@Z
       1854  73D 00005940 ??2DirectoryIterator@juce@@SAPEAX_K@Z
       1855  73E 00004D80 ??2DirectoryIterator@juce@@SAPEAX_KPEAX@Z
       1856  73F 00005940 ??2DocumentWindow@juce@@SAPEAX_K@Z
       1857  740 00004D80 ??2DocumentWindow@juce@@SAPEAX_KPEAX@Z
       1858  741 00005940 ??2DownloadTask@URL@juce@@SAPEAX_K@Z
       1859  742 00004D80 ??2DownloadTask@URL@juce@@SAPEAX_KPEAX@Z
       1860  743 00005940 ??2DragAndDropContainer@juce@@SAPEAX_K@Z
       1861  744 00004D80 ??2DragAndDropContainer@juce@@SAPEAX_KPEAX@Z
       1862  745 00005940 ??2Drawable@juce@@SAPEAX_K@Z
       1863  746 00004D80 ??2Drawable@juce@@SAPEAX_KPEAX@Z
       1864  747 00005940 ??2DrawableButton@juce@@SAPEAX_K@Z
       1865  748 00004D80 ??2DrawableButton@juce@@SAPEAX_KPEAX@Z
       1866  749 00005940 ??2DrawableComposite@juce@@SAPEAX_K@Z
       1867  74A 00004D80 ??2DrawableComposite@juce@@SAPEAX_KPEAX@Z
       1868  74B 00005940 ??2DrawableImage@juce@@SAPEAX_K@Z
       1869  74C 00004D80 ??2DrawableImage@juce@@SAPEAX_KPEAX@Z
       1870  74D 00005940 ??2DrawablePath@juce@@SAPEAX_K@Z
       1871  74E 00004D80 ??2DrawablePath@juce@@SAPEAX_KPEAX@Z
       1872  74F 00005940 ??2DrawableRectangle@juce@@SAPEAX_K@Z
       1873  750 00004D80 ??2DrawableRectangle@juce@@SAPEAX_KPEAX@Z
       1874  751 00005940 ??2DrawableText@juce@@SAPEAX_K@Z
       1875  752 00004D80 ??2DrawableText@juce@@SAPEAX_KPEAX@Z
       1876  753 00005940 ??2DropShadowEffect@juce@@SAPEAX_K@Z
       1877  754 00004D80 ??2DropShadowEffect@juce@@SAPEAX_KPEAX@Z
       1878  755 00005940 ??2DropShadower@juce@@SAPEAX_K@Z
       1879  756 00004D80 ??2DropShadower@juce@@SAPEAX_KPEAX@Z
       1880  757 00005940 ??2DynamicLibrary@juce@@SAPEAX_K@Z
       1881  758 00004D80 ??2DynamicLibrary@juce@@SAPEAX_KPEAX@Z
       1882  759 00005940 ??2DynamicObject@juce@@SAPEAX_K@Z
       1883  75A 00004D80 ??2DynamicObject@juce@@SAPEAX_KPEAX@Z
       1884  75B 00005940 ??2EdgeTable@juce@@SAPEAX_K@Z
       1885  75C 00004D80 ??2EdgeTable@juce@@SAPEAX_KPEAX@Z
       1886  75D 00005940 ??2FileBasedDocument@juce@@SAPEAX_K@Z
       1887  75E 00004D80 ??2FileBasedDocument@juce@@SAPEAX_KPEAX@Z
       1888  75F 00005940 ??2FileBrowserComponent@juce@@SAPEAX_K@Z
       1889  760 00004D80 ??2FileBrowserComponent@juce@@SAPEAX_KPEAX@Z
       1890  761 00005940 ??2FileChooser@juce@@SAPEAX_K@Z
       1891  762 00004D80 ??2FileChooser@juce@@SAPEAX_KPEAX@Z
       1892  763 00005940 ??2FileChooserDialogBox@juce@@SAPEAX_K@Z
       1893  764 00004D80 ??2FileChooserDialogBox@juce@@SAPEAX_KPEAX@Z
       1894  765 00005940 ??2FileInputSource@juce@@SAPEAX_K@Z
       1895  766 00004D80 ??2FileInputSource@juce@@SAPEAX_KPEAX@Z
       1896  767 00005940 ??2FileInputStream@juce@@SAPEAX_K@Z
       1897  768 00004D80 ??2FileInputStream@juce@@SAPEAX_KPEAX@Z
       1898  769 00005940 ??2FileListComponent@juce@@SAPEAX_K@Z
       1899  76A 00004D80 ??2FileListComponent@juce@@SAPEAX_KPEAX@Z
       1900  76B 00005940 ??2FileLogger@juce@@SAPEAX_K@Z
       1901  76C 00004D80 ??2FileLogger@juce@@SAPEAX_KPEAX@Z
       1902  76D 00005940 ??2FileOutputStream@juce@@SAPEAX_K@Z
       1903  76E 00004D80 ??2FileOutputStream@juce@@SAPEAX_KPEAX@Z
       1904  76F 00005940 ??2FilePreviewComponent@juce@@SAPEAX_K@Z
       1905  770 00004D80 ??2FilePreviewComponent@juce@@SAPEAX_KPEAX@Z
       1906  771 00005940 ??2FileSearchPath@juce@@SAPEAX_K@Z
       1907  772 00004D80 ??2FileSearchPath@juce@@SAPEAX_KPEAX@Z
       1908  773 00005940 ??2FileSearchPathListComponent@juce@@SAPEAX_K@Z
       1909  774 00004D80 ??2FileSearchPathListComponent@juce@@SAPEAX_KPEAX@Z
       1910  775 00005940 ??2FileTreeComponent@juce@@SAPEAX_K@Z
       1911  776 00004D80 ??2FileTreeComponent@juce@@SAPEAX_KPEAX@Z
       1912  777 00005940 ??2FilenameComponent@juce@@SAPEAX_K@Z
       1913  778 00004D80 ??2FilenameComponent@juce@@SAPEAX_KPEAX@Z
       1914  779 00005940 ??2FillType@juce@@SAPEAX_K@Z
       1915  77A 00004D80 ??2FillType@juce@@SAPEAX_KPEAX@Z
       1916  77B 00005940 ??2FlacAudioFormat@juce@@SAPEAX_K@Z
       1917  77C 00004D80 ??2FlacAudioFormat@juce@@SAPEAX_KPEAX@Z
       1918  77D 00005940 ??2FlexBox@juce@@SAPEAX_K@Z
       1919  77E 00004D80 ??2FlexBox@juce@@SAPEAX_KPEAX@Z
       1920  77F 00005940 ??2FocusOutline@juce@@SAPEAX_K@Z
       1921  780 00004D80 ??2FocusOutline@juce@@SAPEAX_KPEAX@Z
       1922  781 00005940 ??2Font@juce@@SAPEAX_K@Z
       1923  782 00004D80 ??2Font@juce@@SAPEAX_KPEAX@Z
       1924  783 00005940 ??2GZIPCompressorOutputStream@juce@@SAPEAX_K@Z
       1925  784 00004D80 ??2GZIPCompressorOutputStream@juce@@SAPEAX_KPEAX@Z
       1926  785 00005940 ??2GZIPDecompressorInputStream@juce@@SAPEAX_K@Z
       1927  786 00004D80 ??2GZIPDecompressorInputStream@juce@@SAPEAX_KPEAX@Z
       1928  787 00005940 ??2GenericAudioProcessorEditor@juce@@SAPEAX_K@Z
       1929  788 00004D80 ??2GenericAudioProcessorEditor@juce@@SAPEAX_KPEAX@Z
       1930  789 00005940 ??2GlowEffect@juce@@SAPEAX_K@Z
       1931  78A 00004D80 ??2GlowEffect@juce@@SAPEAX_KPEAX@Z
       1932  78B 00005940 ??2Glyph@TextLayout@juce@@SAPEAX_K@Z
       1933  78C 00004D80 ??2Glyph@TextLayout@juce@@SAPEAX_KPEAX@Z
       1934  78D 00005940 ??2GlyphArrangement@juce@@SAPEAX_K@Z
       1935  78E 00004D80 ??2GlyphArrangement@juce@@SAPEAX_KPEAX@Z
       1936  78F 00005940 ??2Graphics@juce@@SAPEAX_K@Z
       1937  790 00004D80 ??2Graphics@juce@@SAPEAX_KPEAX@Z
       1938  791 00005940 ??2HWNDComponent@juce@@SAPEAX_K@Z
       1939  792 00004D80 ??2HWNDComponent@juce@@SAPEAX_KPEAX@Z
       1940  793 00005940 ??2HighResolutionTimer@juce@@SAPEAX_K@Z
       1941  794 00004D80 ??2HighResolutionTimer@juce@@SAPEAX_KPEAX@Z
       1942  795 00005940 ??2HyperlinkButton@juce@@SAPEAX_K@Z
       1943  796 00004D80 ??2HyperlinkButton@juce@@SAPEAX_KPEAX@Z
       1944  797 00005940 ??2IIRFilterAudioSource@juce@@SAPEAX_K@Z
       1945  798 00004D80 ??2IIRFilterAudioSource@juce@@SAPEAX_KPEAX@Z
       1946  799 00005940 ??2Image@juce@@SAPEAX_K@Z
       1947  79A 00004D80 ??2Image@juce@@SAPEAX_KPEAX@Z
       1948  79B 00005940 ??2ImageButton@juce@@SAPEAX_K@Z
       1949  79C 00004D80 ??2ImageButton@juce@@SAPEAX_KPEAX@Z
       1950  79D 00005940 ??2ImageComponent@juce@@SAPEAX_K@Z
       1951  79E 00004D80 ??2ImageComponent@juce@@SAPEAX_KPEAX@Z
       1952  79F 00005940 ??2ImageConvolutionKernel@juce@@SAPEAX_K@Z
       1953  7A0 00004D80 ??2ImageConvolutionKernel@juce@@SAPEAX_KPEAX@Z
       1954  7A1 00005940 ??2ImagePixelData@juce@@SAPEAX_K@Z
       1955  7A2 00004D80 ??2ImagePixelData@juce@@SAPEAX_KPEAX@Z
       1956  7A3 00005940 ??2ImagePreviewComponent@juce@@SAPEAX_K@Z
       1957  7A4 00004D80 ??2ImagePreviewComponent@juce@@SAPEAX_KPEAX@Z
       1958  7A5 00005940 ??2InputSource@juce@@SAPEAX_K@Z
       1959  7A6 00004D80 ??2InputSource@juce@@SAPEAX_KPEAX@Z
       1960  7A7 00005940 ??2InputStream@juce@@SAPEAX_K@Z
       1961  7A8 00004D80 ??2InputStream@juce@@SAPEAX_KPEAX@Z
       1962  7A9 00005940 ??2InterprocessConnection@juce@@SAPEAX_K@Z
       1963  7AA 00004D80 ??2InterprocessConnection@juce@@SAPEAX_KPEAX@Z
       1964  7AB 00005940 ??2InterprocessConnectionServer@juce@@SAPEAX_K@Z
       1965  7AC 00004D80 ??2InterprocessConnectionServer@juce@@SAPEAX_KPEAX@Z
       1966  7AD 00005940 ??2KeyMappingEditorComponent@juce@@SAPEAX_K@Z
       1967  7AE 00004D80 ??2KeyMappingEditorComponent@juce@@SAPEAX_KPEAX@Z
       1968  7AF 00005940 ??2KeyPress@juce@@SAPEAX_K@Z
       1969  7B0 00004D80 ??2KeyPress@juce@@SAPEAX_KPEAX@Z
       1970  7B1 00005940 ??2KeyPressMappingSet@juce@@SAPEAX_K@Z
       1971  7B2 00004D80 ??2KeyPressMappingSet@juce@@SAPEAX_KPEAX@Z
       1972  7B3 00005940 ??2KeyboardComponentBase@juce@@SAPEAX_K@Z
       1973  7B4 00004D80 ??2KeyboardComponentBase@juce@@SAPEAX_KPEAX@Z
       1974  7B5 00005940 ??2KnownPluginList@juce@@SAPEAX_K@Z
       1975  7B6 00004D80 ??2KnownPluginList@juce@@SAPEAX_KPEAX@Z
       1976  7B7 00005940 ??2Label@juce@@SAPEAX_K@Z
       1977  7B8 00004D80 ??2Label@juce@@SAPEAX_KPEAX@Z
       1978  7B9 00005940 ??2LengthAndCharacterRestriction@TextEditor@juce@@SAPEAX_K@Z
       1979  7BA 00004D80 ??2LengthAndCharacterRestriction@TextEditor@juce@@SAPEAX_KPEAX@Z
       1980  7BB 00005940 ??2Line@TextLayout@juce@@SAPEAX_K@Z
       1981  7BC 00004D80 ??2Line@TextLayout@juce@@SAPEAX_KPEAX@Z
       1982  7BD 00005940 ??2ListBox@juce@@SAPEAX_K@Z
       1983  7BE 00004D80 ??2ListBox@juce@@SAPEAX_KPEAX@Z
       1984  7BF 00005940 ??2LocalisedStrings@juce@@SAPEAX_K@Z
       1985  7C0 00004D80 ??2LocalisedStrings@juce@@SAPEAX_KPEAX@Z
       1986  7C1 00005940 ??2LockingAsyncUpdater@juce@@SAPEAX_K@Z
       1987  7C2 00004D80 ??2LockingAsyncUpdater@juce@@SAPEAX_KPEAX@Z
       1988  7C3 00005940 ??2LookAndFeel@juce@@SAPEAX_K@Z
       1989  7C4 00004D80 ??2LookAndFeel@juce@@SAPEAX_KPEAX@Z
       1990  7C5 00005940 ??2LookAndFeel_V1@juce@@SAPEAX_K@Z
       1991  7C6 00004D80 ??2LookAndFeel_V1@juce@@SAPEAX_KPEAX@Z
       1992  7C7 00005940 ??2LookAndFeel_V2@juce@@SAPEAX_K@Z
       1993  7C8 00004D80 ??2LookAndFeel_V2@juce@@SAPEAX_KPEAX@Z
       1994  7C9 00005940 ??2LookAndFeel_V4@juce@@SAPEAX_K@Z
       1995  7CA 00004D80 ??2LookAndFeel_V4@juce@@SAPEAX_KPEAX@Z
       1996  7CB 00005940 ??2LowLevelGraphicsSoftwareRenderer@juce@@SAPEAX_K@Z
       1997  7CC 00004D80 ??2LowLevelGraphicsSoftwareRenderer@juce@@SAPEAX_KPEAX@Z
       1998  7CD 00005940 ??2LuaTokeniser@juce@@SAPEAX_K@Z
       1999  7CE 00004D80 ??2LuaTokeniser@juce@@SAPEAX_KPEAX@Z
       2000  7CF 00005940 ??2MD5@juce@@SAPEAX_K@Z
       2001  7D0 00004D80 ??2MD5@juce@@SAPEAX_KPEAX@Z
       2002  7D1 00005940 ??2MPEInstrument@juce@@SAPEAX_K@Z
       2003  7D2 00004D80 ??2MPEInstrument@juce@@SAPEAX_KPEAX@Z
       2004  7D3 00005940 ??2MPEKeyboardComponent@juce@@SAPEAX_K@Z
       2005  7D4 00004D80 ??2MPEKeyboardComponent@juce@@SAPEAX_KPEAX@Z
       2006  7D5 00005940 ??2MPESynthesiser@juce@@SAPEAX_K@Z
       2007  7D6 00004D80 ??2MPESynthesiser@juce@@SAPEAX_KPEAX@Z
       2008  7D7 00005940 ??2MPESynthesiserBase@juce@@SAPEAX_K@Z
       2009  7D8 00004D80 ??2MPESynthesiserBase@juce@@SAPEAX_KPEAX@Z
       2010  7D9 00005940 ??2MPESynthesiserVoice@juce@@SAPEAX_K@Z
       2011  7DA 00004D80 ??2MPESynthesiserVoice@juce@@SAPEAX_KPEAX@Z
       2012  7DB 00005940 ??2MarkerList@juce@@SAPEAX_K@Z
       2013  7DC 00004D80 ??2MarkerList@juce@@SAPEAX_KPEAX@Z
       2014  7DD 00005940 ??2MemoryAudioSource@juce@@SAPEAX_K@Z
       2015  7DE 00004D80 ??2MemoryAudioSource@juce@@SAPEAX_KPEAX@Z
       2016  7DF 00005940 ??2MemoryBlock@juce@@SAPEAX_K@Z
       2017  7E0 00004D80 ??2MemoryBlock@juce@@SAPEAX_KPEAX@Z
       2018  7E1 00005940 ??2MemoryInputStream@juce@@SAPEAX_K@Z
       2019  7E2 00004D80 ??2MemoryInputStream@juce@@SAPEAX_KPEAX@Z
       2020  7E3 00005940 ??2MemoryMappedAudioFormatReader@juce@@SAPEAX_K@Z
       2021  7E4 00004D80 ??2MemoryMappedAudioFormatReader@juce@@SAPEAX_KPEAX@Z
       2022  7E5 00005940 ??2MemoryMappedFile@juce@@SAPEAX_K@Z
       2023  7E6 00004D80 ??2MemoryMappedFile@juce@@SAPEAX_KPEAX@Z
       2024  7E7 00005940 ??2MemoryOutputStream@juce@@SAPEAX_K@Z
       2025  7E8 00004D80 ??2MemoryOutputStream@juce@@SAPEAX_KPEAX@Z
       2026  7E9 00005940 ??2MenuBarComponent@juce@@SAPEAX_K@Z
       2027  7EA 00004D80 ??2MenuBarComponent@juce@@SAPEAX_KPEAX@Z
       2028  7EB 00005940 ??2MenuBarModel@juce@@SAPEAX_K@Z
       2029  7EC 00004D80 ??2MenuBarModel@juce@@SAPEAX_KPEAX@Z
       2030  7ED 00005940 ??2MenuItemIterator@PopupMenu@juce@@SAPEAX_K@Z
       2031  7EE 00004D80 ??2MenuItemIterator@PopupMenu@juce@@SAPEAX_KPEAX@Z
       2032  7EF 00005940 ??2MessageManager@juce@@SAPEAX_K@Z
       2033  7F0 00004D80 ??2MessageManager@juce@@SAPEAX_KPEAX@Z
       2034  7F1 00005940 ??2MidiBuffer@juce@@SAPEAX_K@Z
       2035  7F2 00004D80 ??2MidiBuffer@juce@@SAPEAX_KPEAX@Z
       2036  7F3 00005940 ??2MidiFile@juce@@SAPEAX_K@Z
       2037  7F4 00004D80 ??2MidiFile@juce@@SAPEAX_KPEAX@Z
       2038  7F5 00005940 ??2MidiInput@juce@@SAPEAX_K@Z
       2039  7F6 00004D80 ??2MidiInput@juce@@SAPEAX_KPEAX@Z
       2040  7F7 00005940 ??2MidiKeyboardComponent@juce@@SAPEAX_K@Z
       2041  7F8 00004D80 ??2MidiKeyboardComponent@juce@@SAPEAX_KPEAX@Z
       2042  7F9 00005940 ??2MidiKeyboardState@juce@@SAPEAX_K@Z
       2043  7FA 00004D80 ??2MidiKeyboardState@juce@@SAPEAX_KPEAX@Z
       2044  7FB 00005940 ??2MidiMessageCollector@juce@@SAPEAX_K@Z
       2045  7FC 00004D80 ??2MidiMessageCollector@juce@@SAPEAX_KPEAX@Z
       2046  7FD 00005940 ??2MidiMessageSequence@juce@@SAPEAX_K@Z
       2047  7FE 00004D80 ??2MidiMessageSequence@juce@@SAPEAX_KPEAX@Z
       2048  7FF 00005940 ??2MidiOutput@juce@@SAPEAX_K@Z
       2049  800 00004D80 ??2MidiOutput@juce@@SAPEAX_KPEAX@Z
       2050  801 00005940 ??2MidiRPNDetector@juce@@SAPEAX_K@Z
       2051  802 00004D80 ??2MidiRPNDetector@juce@@SAPEAX_KPEAX@Z
       2052  803 00005940 ??2MixerAudioSource@juce@@SAPEAX_K@Z
       2053  804 00004D80 ??2MixerAudioSource@juce@@SAPEAX_KPEAX@Z
       2054  805 00005940 ??2MountedVolumeListChangeDetector@juce@@SAPEAX_K@Z
       2055  806 00004D80 ??2MountedVolumeListChangeDetector@juce@@SAPEAX_KPEAX@Z
       2056  807 00005940 ??2MouseCursor@juce@@SAPEAX_K@Z
       2057  808 00004D80 ??2MouseCursor@juce@@SAPEAX_KPEAX@Z
       2058  809 00005940 ??2MouseInactivityDetector@juce@@SAPEAX_K@Z
       2059  80A 00004D80 ??2MouseInactivityDetector@juce@@SAPEAX_KPEAX@Z
       2060  80B 00005940 ??2MouseInputSource@juce@@SAPEAX_K@Z
       2061  80C 00004D80 ??2MouseInputSource@juce@@SAPEAX_KPEAX@Z
       2062  80D 00005940 ??2MultiDocumentPanel@juce@@SAPEAX_K@Z
       2063  80E 00004D80 ??2MultiDocumentPanel@juce@@SAPEAX_KPEAX@Z
       2064  80F 00005940 ??2MultiDocumentPanelWindow@juce@@SAPEAX_K@Z
       2065  810 00004D80 ??2MultiDocumentPanelWindow@juce@@SAPEAX_KPEAX@Z
       2066  811 00005940 ??2NamedPipe@juce@@SAPEAX_K@Z
       2067  812 00004D80 ??2NamedPipe@juce@@SAPEAX_KPEAX@Z
       2068  813 00005940 ??2Node@AudioProcessorGraph@juce@@SAPEAX_K@Z
       2069  814 00004D80 ??2Node@AudioProcessorGraph@juce@@SAPEAX_KPEAX@Z
       2070  815 00005940 ??2OggVorbisAudioFormat@juce@@SAPEAX_K@Z
       2071  816 00004D80 ??2OggVorbisAudioFormat@juce@@SAPEAX_KPEAX@Z
       2072  817 00005940 ??2OpenGLAppComponent@juce@@SAPEAX_K@Z
       2073  818 00004D80 ??2OpenGLAppComponent@juce@@SAPEAX_KPEAX@Z
       2074  819 00005940 ??2OpenGLContext@juce@@SAPEAX_K@Z
       2075  81A 00004D80 ??2OpenGLContext@juce@@SAPEAX_KPEAX@Z
       2076  81B 00005940 ??2OpenGLFrameBuffer@juce@@SAPEAX_K@Z
       2077  81C 00004D80 ??2OpenGLFrameBuffer@juce@@SAPEAX_KPEAX@Z
       2078  81D 00005940 ??2OpenGLGraphicsContextCustomShader@juce@@SAPEAX_K@Z
       2079  81E 00004D80 ??2OpenGLGraphicsContextCustomShader@juce@@SAPEAX_KPEAX@Z
       2080  81F 00005940 ??2OpenGLShaderProgram@juce@@SAPEAX_K@Z
       2081  820 00004D80 ??2OpenGLShaderProgram@juce@@SAPEAX_KPEAX@Z
       2082  821 00005940 ??2OpenGLTexture@juce@@SAPEAX_K@Z
       2083  822 00004D80 ??2OpenGLTexture@juce@@SAPEAX_KPEAX@Z
       2084  823 00005940 ??2OpennessRestorer@TreeViewItem@juce@@SAPEAX_K@Z
       2085  824 00004D80 ??2OpennessRestorer@TreeViewItem@juce@@SAPEAX_KPEAX@Z
       2086  825 00005940 ??2OutputStream@juce@@SAPEAX_K@Z
       2087  826 00004D80 ??2OutputStream@juce@@SAPEAX_KPEAX@Z
       2088  827 00005940 ??2Path@juce@@SAPEAX_K@Z
       2089  828 00004D80 ??2Path@juce@@SAPEAX_KPEAX@Z
       2090  829 00005940 ??2PathFlatteningIterator@juce@@SAPEAX_K@Z
       2091  82A 00004D80 ??2PathFlatteningIterator@juce@@SAPEAX_KPEAX@Z
       2092  82B 00005940 ??2PathStrokeType@juce@@SAPEAX_K@Z
       2093  82C 00004D80 ??2PathStrokeType@juce@@SAPEAX_KPEAX@Z
       2094  82D 00005940 ??2PerformanceCounter@juce@@SAPEAX_K@Z
       2095  82E 00004D80 ??2PerformanceCounter@juce@@SAPEAX_KPEAX@Z
       2096  82F 00005940 ??2PluginDescription@juce@@SAPEAX_K@Z
       2097  830 00004D80 ??2PluginDescription@juce@@SAPEAX_KPEAX@Z
       2098  831 00005940 ??2PluginDirectoryScanner@juce@@SAPEAX_K@Z
       2099  832 00004D80 ??2PluginDirectoryScanner@juce@@SAPEAX_KPEAX@Z
       2100  833 00005940 ??2PluginListComponent@juce@@SAPEAX_K@Z
       2101  834 00004D80 ??2PluginListComponent@juce@@SAPEAX_KPEAX@Z
       2102  835 00005940 ??2PopupMenu@juce@@SAPEAX_K@Z
       2103  836 00004D80 ??2PopupMenu@juce@@SAPEAX_KPEAX@Z
       2104  837 00005940 ??2PositionedGlyph@juce@@SAPEAX_K@Z
       2105  838 00004D80 ??2PositionedGlyph@juce@@SAPEAX_KPEAX@Z
       2106  839 00005940 ??2Positioner@Component@juce@@SAPEAX_K@Z
       2107  83A 00004D80 ??2Positioner@Component@juce@@SAPEAX_KPEAX@Z
       2108  83B 00005940 ??2PreferencesPanel@juce@@SAPEAX_K@Z
       2109  83C 00004D80 ??2PreferencesPanel@juce@@SAPEAX_KPEAX@Z
       2110  83D 00005940 ??2ProgressBar@juce@@SAPEAX_K@Z
       2111  83E 00004D80 ??2ProgressBar@juce@@SAPEAX_KPEAX@Z
       2112  83F 00005940 ??2PropertiesFile@juce@@SAPEAX_K@Z
       2113  840 00004D80 ??2PropertiesFile@juce@@SAPEAX_KPEAX@Z
       2114  841 00005940 ??2PropertyComponent@juce@@SAPEAX_K@Z
       2115  842 00004D80 ??2PropertyComponent@juce@@SAPEAX_KPEAX@Z
       2116  843 00005940 ??2PropertyPanel@juce@@SAPEAX_K@Z
       2117  844 00004D80 ??2PropertyPanel@juce@@SAPEAX_KPEAX@Z
       2118  845 00005940 ??2PropertySet@juce@@SAPEAX_K@Z
       2119  846 00004D80 ??2PropertySet@juce@@SAPEAX_KPEAX@Z
       2120  847 00005940 ??2RSAKey@juce@@SAPEAX_K@Z
       2121  848 00004D80 ??2RSAKey@juce@@SAPEAX_KPEAX@Z
       2122  849 00005940 ??2Random@juce@@SAPEAX_K@Z
       2123  84A 00004D80 ??2Random@juce@@SAPEAX_KPEAX@Z
       2124  84B 00005940 ??2RecentlyOpenedFilesList@juce@@SAPEAX_K@Z
       2125  84C 00004D80 ??2RecentlyOpenedFilesList@juce@@SAPEAX_KPEAX@Z
       2126  84D 00005940 ??2RelativeCoordinatePositionerBase@juce@@SAPEAX_K@Z
       2127  84E 00004D80 ??2RelativeCoordinatePositionerBase@juce@@SAPEAX_KPEAX@Z
       2128  84F 00005940 ??2RelativePointPath@juce@@SAPEAX_K@Z
       2129  850 00004D80 ??2RelativePointPath@juce@@SAPEAX_KPEAX@Z
       2130  851 00005940 ??2ResamplingAudioSource@juce@@SAPEAX_K@Z
       2131  852 00004D80 ??2ResamplingAudioSource@juce@@SAPEAX_KPEAX@Z
       2132  853 00005940 ??2ResizableBorderComponent@juce@@SAPEAX_K@Z
       2133  854 00004D80 ??2ResizableBorderComponent@juce@@SAPEAX_KPEAX@Z
       2134  855 00005940 ??2ResizableCornerComponent@juce@@SAPEAX_K@Z
       2135  856 00004D80 ??2ResizableCornerComponent@juce@@SAPEAX_KPEAX@Z
       2136  857 00005940 ??2ResizableEdgeComponent@juce@@SAPEAX_K@Z
       2137  858 00004D80 ??2ResizableEdgeComponent@juce@@SAPEAX_KPEAX@Z
       2138  859 00005940 ??2ResizableWindow@juce@@SAPEAX_K@Z
       2139  85A 00004D80 ??2ResizableWindow@juce@@SAPEAX_KPEAX@Z
       2140  85B 00005940 ??2ReverbAudioSource@juce@@SAPEAX_K@Z
       2141  85C 00004D80 ??2ReverbAudioSource@juce@@SAPEAX_KPEAX@Z
       2142  85D 00005940 ??2Run@TextLayout@juce@@SAPEAX_K@Z
       2143  85E 00004D80 ??2Run@TextLayout@juce@@SAPEAX_KPEAX@Z
       2144  85F 00005940 ??2SHA256@juce@@SAPEAX_K@Z
       2145  860 00004D80 ??2SHA256@juce@@SAPEAX_KPEAX@Z
       2146  861 00005940 ??2SamplerSound@juce@@SAPEAX_K@Z
       2147  862 00004D80 ??2SamplerSound@juce@@SAPEAX_KPEAX@Z
       2148  863 00005940 ??2SamplerVoice@juce@@SAPEAX_K@Z
       2149  864 00004D80 ??2SamplerVoice@juce@@SAPEAX_KPEAX@Z
       2150  865 00005940 ??2ScopedMessageBox@juce@@SAPEAX_K@Z
       2151  866 00004D80 ??2ScopedMessageBox@juce@@SAPEAX_KPEAX@Z
       2152  867 00005940 ??2ScopedTimeMeasurement@juce@@SAPEAX_K@Z
       2153  868 00004D80 ??2ScopedTimeMeasurement@juce@@SAPEAX_KPEAX@Z
       2154  869 00005940 ??2ScrollBar@juce@@SAPEAX_K@Z
       2155  86A 00004D80 ??2ScrollBar@juce@@SAPEAX_KPEAX@Z
       2156  86B 00005940 ??2ShapeButton@juce@@SAPEAX_K@Z
       2157  86C 00004D80 ??2ShapeButton@juce@@SAPEAX_KPEAX@Z
       2158  86D 00005940 ??2Slider@juce@@SAPEAX_K@Z
       2159  86E 00004D80 ??2Slider@juce@@SAPEAX_KPEAX@Z
       2160  86F 00005940 ??2SliderAttachment@AudioProcessorValueTreeState@juce@@SAPEAX_K@Z
       2161  870 00004D80 ??2SliderAttachment@AudioProcessorValueTreeState@juce@@SAPEAX_KPEAX@Z
       2162  871 00005940 ??2SliderPropertyComponent@juce@@SAPEAX_K@Z
       2163  872 00004D80 ??2SliderPropertyComponent@juce@@SAPEAX_KPEAX@Z
       2164  873 00005940 ??2SoundPlayer@juce@@SAPEAX_K@Z
       2165  874 00004D80 ??2SoundPlayer@juce@@SAPEAX_KPEAX@Z
       2166  875 00005940 ??2SplashScreen@juce@@SAPEAX_K@Z
       2167  876 00004D80 ??2SplashScreen@juce@@SAPEAX_KPEAX@Z
       2168  877 00005940 ??2StreamingSocket@juce@@SAPEAX_K@Z
       2169  878 00004D80 ??2StreamingSocket@juce@@SAPEAX_KPEAX@Z
       2170  879 00005940 ??2StretchableLayoutManager@juce@@SAPEAX_K@Z
       2171  87A 00004D80 ??2StretchableLayoutManager@juce@@SAPEAX_KPEAX@Z
       2172  87B 00005940 ??2StretchableLayoutResizerBar@juce@@SAPEAX_K@Z
       2173  87C 00004D80 ??2StretchableLayoutResizerBar@juce@@SAPEAX_KPEAX@Z
       2174  87D 00005940 ??2StringArray@juce@@SAPEAX_K@Z
       2175  87E 00004D80 ??2StringArray@juce@@SAPEAX_KPEAX@Z
       2176  87F 00005940 ??2StringPairArray@juce@@SAPEAX_K@Z
       2177  880 00004D80 ??2StringPairArray@juce@@SAPEAX_KPEAX@Z
       2178  881 00005940 ??2SubregionStream@juce@@SAPEAX_K@Z
       2179  882 00004D80 ??2SubregionStream@juce@@SAPEAX_KPEAX@Z
       2180  883 00005940 ??2Synthesiser@juce@@SAPEAX_K@Z
       2181  884 00004D80 ??2Synthesiser@juce@@SAPEAX_KPEAX@Z
       2182  885 00005940 ??2SynthesiserSound@juce@@SAPEAX_K@Z
       2183  886 00004D80 ??2SynthesiserSound@juce@@SAPEAX_KPEAX@Z
       2184  887 00005940 ??2SynthesiserVoice@juce@@SAPEAX_K@Z
       2185  888 00004D80 ??2SynthesiserVoice@juce@@SAPEAX_KPEAX@Z
       2186  889 00005940 ??2SystemTrayIconComponent@juce@@SAPEAX_K@Z
       2187  88A 00004D80 ??2SystemTrayIconComponent@juce@@SAPEAX_KPEAX@Z
       2188  88B 00005940 ??2TabBarButton@juce@@SAPEAX_K@Z
       2189  88C 00004D80 ??2TabBarButton@juce@@SAPEAX_KPEAX@Z
       2190  88D 00005940 ??2TabbedButtonBar@juce@@SAPEAX_K@Z
       2191  88E 00004D80 ??2TabbedButtonBar@juce@@SAPEAX_KPEAX@Z
       2192  88F 00005940 ??2TabbedComponent@juce@@SAPEAX_K@Z
       2193  890 00004D80 ??2TabbedComponent@juce@@SAPEAX_KPEAX@Z
       2194  891 00005940 ??2TableHeaderComponent@juce@@SAPEAX_K@Z
       2195  892 00004D80 ??2TableHeaderComponent@juce@@SAPEAX_KPEAX@Z
       2196  893 00005940 ??2TableListBox@juce@@SAPEAX_K@Z
       2197  894 00004D80 ??2TableListBox@juce@@SAPEAX_KPEAX@Z
       2198  895 00005940 ??2TemporaryFile@juce@@SAPEAX_K@Z
       2199  896 00004D80 ??2TemporaryFile@juce@@SAPEAX_KPEAX@Z
       2200  897 00005940 ??2TextButton@juce@@SAPEAX_K@Z
       2201  898 00004D80 ??2TextButton@juce@@SAPEAX_KPEAX@Z
       2202  899 00005940 ??2TextEditor@juce@@SAPEAX_K@Z
       2203  89A 00004D80 ??2TextEditor@juce@@SAPEAX_KPEAX@Z
       2204  89B 00005940 ??2TextLayout@juce@@SAPEAX_K@Z
       2205  89C 00004D80 ??2TextLayout@juce@@SAPEAX_KPEAX@Z
       2206  89D 00005940 ??2TextPropertyComponent@juce@@SAPEAX_K@Z
       2207  89E 00004D80 ??2TextPropertyComponent@juce@@SAPEAX_KPEAX@Z
       2208  89F 00005940 ??2Thread@juce@@SAPEAX_K@Z
       2209  8A0 00004D80 ??2Thread@juce@@SAPEAX_KPEAX@Z
       2210  8A1 00005940 ??2ThreadPool@juce@@SAPEAX_K@Z
       2211  8A2 00004D80 ??2ThreadPool@juce@@SAPEAX_KPEAX@Z
       2212  8A3 00005940 ??2ThreadPoolJob@juce@@SAPEAX_K@Z
       2213  8A4 00004D80 ??2ThreadPoolJob@juce@@SAPEAX_KPEAX@Z
       2214  8A5 00005940 ??2ThreadWithProgressWindow@juce@@SAPEAX_K@Z
       2215  8A6 00004D80 ??2ThreadWithProgressWindow@juce@@SAPEAX_KPEAX@Z
       2216  8A7 00005940 ??2TimeSliceThread@juce@@SAPEAX_K@Z
       2217  8A8 00004D80 ??2TimeSliceThread@juce@@SAPEAX_KPEAX@Z
       2218  8A9 00005940 ??2Timer@juce@@SAPEAX_K@Z
       2219  8AA 00004D80 ??2Timer@juce@@SAPEAX_KPEAX@Z
       2220  8AB 00005940 ??2ToggleButton@juce@@SAPEAX_K@Z
       2221  8AC 00004D80 ??2ToggleButton@juce@@SAPEAX_KPEAX@Z
       2222  8AD 00005940 ??2ToneGeneratorAudioSource@juce@@SAPEAX_K@Z
       2223  8AE 00004D80 ??2ToneGeneratorAudioSource@juce@@SAPEAX_KPEAX@Z
       2224  8AF 00005940 ??2Toolbar@juce@@SAPEAX_K@Z
       2225  8B0 00004D80 ??2Toolbar@juce@@SAPEAX_KPEAX@Z
       2226  8B1 00005940 ??2ToolbarButton@juce@@SAPEAX_K@Z
       2227  8B2 00004D80 ??2ToolbarButton@juce@@SAPEAX_KPEAX@Z
       2228  8B3 00005940 ??2ToolbarItemComponent@juce@@SAPEAX_K@Z
       2229  8B4 00004D80 ??2ToolbarItemComponent@juce@@SAPEAX_KPEAX@Z
       2230  8B5 00005940 ??2ToolbarItemPalette@juce@@SAPEAX_K@Z
       2231  8B6 00004D80 ??2ToolbarItemPalette@juce@@SAPEAX_KPEAX@Z
       2232  8B7 00005940 ??2TooltipWindow@juce@@SAPEAX_K@Z
       2233  8B8 00004D80 ??2TooltipWindow@juce@@SAPEAX_KPEAX@Z
       2234  8B9 00005940 ??2TopLevelWindow@juce@@SAPEAX_K@Z
       2235  8BA 00004D80 ??2TopLevelWindow@juce@@SAPEAX_KPEAX@Z
       2236  8BB 00005940 ??2TreeView@juce@@SAPEAX_K@Z
       2237  8BC 00004D80 ??2TreeView@juce@@SAPEAX_KPEAX@Z
       2238  8BD 00005940 ??2TreeViewItem@juce@@SAPEAX_K@Z
       2239  8BE 00004D80 ??2TreeViewItem@juce@@SAPEAX_KPEAX@Z
       2240  8BF 00005940 ??2TypeHandler@ComponentBuilder@juce@@SAPEAX_K@Z
       2241  8C0 00004D80 ??2TypeHandler@ComponentBuilder@juce@@SAPEAX_KPEAX@Z
       2242  8C1 00005940 ??2Typeface@juce@@SAPEAX_K@Z
       2243  8C2 00004D80 ??2Typeface@juce@@SAPEAX_KPEAX@Z
       2244  8C3 00005940 ??2URL@juce@@SAPEAX_K@Z
       2245  8C4 00004D80 ??2URL@juce@@SAPEAX_KPEAX@Z
       2246  8C5 00005940 ??2URLInputSource@juce@@SAPEAX_K@Z
       2247  8C6 00004D80 ??2URLInputSource@juce@@SAPEAX_KPEAX@Z
       2248  8C7 00005940 ??2UndoManager@juce@@SAPEAX_K@Z
       2249  8C8 00004D80 ??2UndoManager@juce@@SAPEAX_KPEAX@Z
       2250  8C9 00005940 ??2Uniform@OpenGLShaderProgram@juce@@SAPEAX_K@Z
       2251  8CA 00004D80 ??2Uniform@OpenGLShaderProgram@juce@@SAPEAX_KPEAX@Z
       2252  8CB 00005940 ??2Uuid@juce@@SAPEAX_K@Z
       2253  8CC 00004D80 ??2Uuid@juce@@SAPEAX_KPEAX@Z
       2254  8CD 00005940 ??2ValueSource@Value@juce@@SAPEAX_K@Z
       2255  8CE 00004D80 ??2ValueSource@Value@juce@@SAPEAX_KPEAX@Z
       2256  8CF 00005940 ??2ValueTreePropertyWithDefault@juce@@SAPEAX_K@Z
       2257  8D0 00004D80 ??2ValueTreePropertyWithDefault@juce@@SAPEAX_KPEAX@Z
       2258  8D1 00005940 ??2ValueTreeSynchroniser@juce@@SAPEAX_K@Z
       2259  8D2 00004D80 ??2ValueTreeSynchroniser@juce@@SAPEAX_KPEAX@Z
       2260  8D3 00005940 ??2VideoComponent@juce@@SAPEAX_K@Z
       2261  8D4 00004D80 ??2VideoComponent@juce@@SAPEAX_KPEAX@Z
       2262  8D5 00005940 ??2Viewport@juce@@SAPEAX_K@Z
       2263  8D6 00004D80 ??2Viewport@juce@@SAPEAX_KPEAX@Z
       2264  8D7 00005940 ??2WaitableEvent@juce@@SAPEAX_K@Z
       2265  8D8 00004D80 ??2WaitableEvent@juce@@SAPEAX_KPEAX@Z
       2266  8D9 00005940 ??2WavAudioFormat@juce@@SAPEAX_K@Z
       2267  8DA 00004D80 ??2WavAudioFormat@juce@@SAPEAX_KPEAX@Z
       2268  8DB 00005940 ??2WebBrowserComponent@juce@@SAPEAX_K@Z
       2269  8DC 00004D80 ??2WebBrowserComponent@juce@@SAPEAX_KPEAX@Z
       2270  8DD 00005940 ??2WebInputStream@juce@@SAPEAX_K@Z
       2271  8DE 00004D80 ??2WebInputStream@juce@@SAPEAX_KPEAX@Z
       2272  8DF 00005940 ??2Whirlpool@juce@@SAPEAX_K@Z
       2273  8E0 00004D80 ??2Whirlpool@juce@@SAPEAX_KPEAX@Z
       2274  8E1 00005940 ??2WildcardFileFilter@juce@@SAPEAX_K@Z
       2275  8E2 00004D80 ??2WildcardFileFilter@juce@@SAPEAX_KPEAX@Z
       2276  8E3 00005940 ??2XmlDocument@juce@@SAPEAX_K@Z
       2277  8E4 00004D80 ??2XmlDocument@juce@@SAPEAX_KPEAX@Z
       2278  8E5 00005940 ??2XmlElement@juce@@SAPEAX_K@Z
       2279  8E6 00004D80 ??2XmlElement@juce@@SAPEAX_KPEAX@Z
       2280  8E7 00005940 ??2XmlTokeniser@juce@@SAPEAX_K@Z
       2281  8E8 00004D80 ??2XmlTokeniser@juce@@SAPEAX_KPEAX@Z
       2282  8E9 00005940 ??2ZipFile@juce@@SAPEAX_K@Z
       2283  8EA 00004D80 ??2ZipFile@juce@@SAPEAX_KPEAX@Z
       2284  8EB 00005960 ??3?$IIRFilterBase@VDummyCriticalSection@juce@@@juce@@SAXPEAX0@Z
       2285  8EC 00005950 ??3?$IIRFilterBase@VDummyCriticalSection@juce@@@juce@@SAXPEAX@Z
       2286  8ED 00005960 ??3?$IIRFilterBase@VSpinLock@juce@@@juce@@SAXPEAX0@Z
       2287  8EE 00005950 ??3?$IIRFilterBase@VSpinLock@juce@@@juce@@SAXPEAX@Z
       2288  8EF 00005960 ??3AbstractFifo@juce@@SAXPEAX0@Z
       2289  8F0 00005950 ??3AbstractFifo@juce@@SAXPEAX@Z
       2290  8F1 00005960 ??3AccessibilityHandler@juce@@SAXPEAX0@Z
       2291  8F2 00005950 ??3AccessibilityHandler@juce@@SAXPEAX@Z
       2292  8F3 00005960 ??3ActiveXControlComponent@juce@@SAXPEAX0@Z
       2293  8F4 00005950 ??3ActiveXControlComponent@juce@@SAXPEAX@Z
       2294  8F5 00005960 ??3AiffAudioFormat@juce@@SAXPEAX0@Z
       2295  8F6 00005950 ??3AiffAudioFormat@juce@@SAXPEAX@Z
       2296  8F7 00005960 ??3AlertWindow@juce@@SAXPEAX0@Z
       2297  8F8 00005950 ??3AlertWindow@juce@@SAXPEAX@Z
       2298  8F9 00005960 ??3AnimatedAppComponent@juce@@SAXPEAX0@Z
       2299  8FA 00005950 ??3AnimatedAppComponent@juce@@SAXPEAX@Z
       2300  8FB 00005960 ??3ApplicationCommandManager@juce@@SAXPEAX0@Z
       2301  8FC 00005950 ??3ApplicationCommandManager@juce@@SAXPEAX@Z
       2302  8FD 00005960 ??3ApplicationCommandTarget@juce@@SAXPEAX0@Z
       2303  8FE 00005950 ??3ApplicationCommandTarget@juce@@SAXPEAX@Z
       2304  8FF 00005960 ??3ApplicationProperties@juce@@SAXPEAX0@Z
       2305  900 00005950 ??3ApplicationProperties@juce@@SAXPEAX@Z
       2306  901 00005960 ??3ArrowButton@juce@@SAXPEAX0@Z
       2307  902 00005950 ??3ArrowButton@juce@@SAXPEAX@Z
       2308  903 00005960 ??3AsyncUpdater@juce@@SAXPEAX0@Z
       2309  904 00005950 ??3AsyncUpdater@juce@@SAXPEAX@Z
       2310  905 00005960 ??3Attribute@AttributedString@juce@@SAXPEAX0@Z
       2311  906 00005950 ??3Attribute@AttributedString@juce@@SAXPEAX@Z
       2312  907 00005960 ??3AttributedString@juce@@SAXPEAX0@Z
       2313  908 00005950 ??3AttributedString@juce@@SAXPEAX@Z
       2314  909 00005960 ??3AudioAppComponent@juce@@SAXPEAX0@Z
       2315  90A 00005950 ??3AudioAppComponent@juce@@SAXPEAX@Z
       2316  90B 00005960 ??3AudioDeviceManager@juce@@SAXPEAX0@Z
       2317  90C 00005950 ??3AudioDeviceManager@juce@@SAXPEAX@Z
       2318  90D 00005960 ??3AudioDeviceSelectorComponent@juce@@SAXPEAX0@Z
       2319  90E 00005950 ??3AudioDeviceSelectorComponent@juce@@SAXPEAX@Z
       2320  90F 00005960 ??3AudioFormatManager@juce@@SAXPEAX0@Z
       2321  910 00005950 ??3AudioFormatManager@juce@@SAXPEAX@Z
       2322  911 00005960 ??3AudioFormatReader@juce@@SAXPEAX0@Z
       2323  912 00005950 ??3AudioFormatReader@juce@@SAXPEAX@Z
       2324  913 00005960 ??3AudioFormatReaderSource@juce@@SAXPEAX0@Z
       2325  914 00005950 ??3AudioFormatReaderSource@juce@@SAXPEAX@Z
       2326  915 00005960 ??3AudioFormatWriter@juce@@SAXPEAX0@Z
       2327  916 00005950 ??3AudioFormatWriter@juce@@SAXPEAX@Z
       2328  917 00005960 ??3AudioGraphIOProcessor@AudioProcessorGraph@juce@@SAXPEAX0@Z
       2329  918 00005950 ??3AudioGraphIOProcessor@AudioProcessorGraph@juce@@SAXPEAX@Z
       2330  919 00005960 ??3AudioParameterBool@juce@@SAXPEAX0@Z
       2331  91A 00005950 ??3AudioParameterBool@juce@@SAXPEAX@Z
       2332  91B 00005960 ??3AudioParameterChoice@juce@@SAXPEAX0@Z
       2333  91C 00005950 ??3AudioParameterChoice@juce@@SAXPEAX@Z
       2334  91D 00005960 ??3AudioParameterFloat@juce@@SAXPEAX0@Z
       2335  91E 00005950 ??3AudioParameterFloat@juce@@SAXPEAX@Z
       2336  91F 00005960 ??3AudioParameterInt@juce@@SAXPEAX0@Z
       2337  920 00005950 ??3AudioParameterInt@juce@@SAXPEAX@Z
       2338  921 00005960 ??3AudioPluginFormat@juce@@SAXPEAX0@Z
       2339  922 00005950 ??3AudioPluginFormat@juce@@SAXPEAX@Z
       2340  923 00005960 ??3AudioPluginFormatManager@juce@@SAXPEAX0@Z
       2341  924 00005950 ??3AudioPluginFormatManager@juce@@SAXPEAX@Z
       2342  925 00005960 ??3AudioPluginInstance@juce@@SAXPEAX0@Z
       2343  926 00005950 ??3AudioPluginInstance@juce@@SAXPEAX@Z
       2344  927 00005960 ??3AudioProcessor@juce@@SAXPEAX0@Z
       2345  928 00005950 ??3AudioProcessor@juce@@SAXPEAX@Z
       2346  929 00005960 ??3AudioProcessorGraph@juce@@SAXPEAX0@Z
       2347  92A 00005950 ??3AudioProcessorGraph@juce@@SAXPEAX@Z
       2348  92B 00005960 ??3AudioProcessorParameter@juce@@SAXPEAX0@Z
       2349  92C 00005950 ??3AudioProcessorParameter@juce@@SAXPEAX@Z
       2350  92D 00005960 ??3AudioProcessorParameterGroup@juce@@SAXPEAX0@Z
       2351  92E 00005950 ??3AudioProcessorParameterGroup@juce@@SAXPEAX@Z
       2352  92F 00005960 ??3AudioProcessorParameterWithID@juce@@SAXPEAX0@Z
       2353  930 00005950 ??3AudioProcessorParameterWithID@juce@@SAXPEAX@Z
       2354  931 00005960 ??3AudioProcessorPlayer@juce@@SAXPEAX0@Z
       2355  932 00005950 ??3AudioProcessorPlayer@juce@@SAXPEAX@Z
       2356  933 00005960 ??3AudioProcessorValueTreeState@juce@@SAXPEAX0@Z
       2357  934 00005950 ??3AudioProcessorValueTreeState@juce@@SAXPEAX@Z
       2358  935 00005960 ??3AudioSourcePlayer@juce@@SAXPEAX0@Z
       2359  936 00005950 ??3AudioSourcePlayer@juce@@SAXPEAX@Z
       2360  937 00005960 ??3AudioSubsectionReader@juce@@SAXPEAX0@Z
       2361  938 00005950 ??3AudioSubsectionReader@juce@@SAXPEAX@Z
       2362  939 00005960 ??3AudioThumbnail@juce@@SAXPEAX0@Z
       2363  93A 00005950 ??3AudioThumbnail@juce@@SAXPEAX@Z
       2364  93B 00005960 ??3AudioThumbnailCache@juce@@SAXPEAX0@Z
       2365  93C 00005950 ??3AudioThumbnailCache@juce@@SAXPEAX@Z
       2366  93D 00005960 ??3AudioTransportSource@juce@@SAXPEAX0@Z
       2367  93E 00005950 ??3AudioTransportSource@juce@@SAXPEAX@Z
       2368  93F 00005960 ??3AudioVisualiserComponent@juce@@SAXPEAX0@Z
       2369  940 00005950 ??3AudioVisualiserComponent@juce@@SAXPEAX@Z
       2370  941 00005960 ??3BigInteger@juce@@SAXPEAX0@Z
       2371  942 00005950 ??3BigInteger@juce@@SAXPEAX@Z
       2372  943 00005960 ??3BlowFish@juce@@SAXPEAX0@Z
       2373  944 00005950 ??3BlowFish@juce@@SAXPEAX@Z
       2374  945 00005960 ??3BooleanPropertyComponent@juce@@SAXPEAX0@Z
       2375  946 00005950 ??3BooleanPropertyComponent@juce@@SAXPEAX@Z
       2376  947 00005960 ??3BorderedComponentBoundsConstrainer@juce@@SAXPEAX0@Z
       2377  948 00005950 ??3BorderedComponentBoundsConstrainer@juce@@SAXPEAX@Z
       2378  949 00005960 ??3BubbleComponent@juce@@SAXPEAX0@Z
       2379  94A 00005950 ??3BubbleComponent@juce@@SAXPEAX@Z
       2380  94B 00005960 ??3BubbleMessageComponent@juce@@SAXPEAX0@Z
       2381  94C 00005950 ??3BubbleMessageComponent@juce@@SAXPEAX@Z
       2382  94D 00005960 ??3BufferedInputStream@juce@@SAXPEAX0@Z
       2383  94E 00005950 ??3BufferedInputStream@juce@@SAXPEAX@Z
       2384  94F 00005960 ??3BufferingAudioReader@juce@@SAXPEAX0@Z
       2385  950 00005950 ??3BufferingAudioReader@juce@@SAXPEAX@Z
       2386  951 00005960 ??3BufferingAudioSource@juce@@SAXPEAX0@Z
       2387  952 00005950 ??3BufferingAudioSource@juce@@SAXPEAX@Z
       2388  953 00005960 ??3Builder@ZipFile@juce@@SAXPEAX0@Z
       2389  954 00005950 ??3Builder@ZipFile@juce@@SAXPEAX@Z
       2390  955 00005960 ??3Button@juce@@SAXPEAX0@Z
       2391  956 00005950 ??3Button@juce@@SAXPEAX@Z
       2392  957 00005960 ??3ButtonAttachment@AudioProcessorValueTreeState@juce@@SAXPEAX0@Z
       2393  958 00005950 ??3ButtonAttachment@AudioProcessorValueTreeState@juce@@SAXPEAX@Z
       2394  959 00005960 ??3ButtonPropertyComponent@juce@@SAXPEAX0@Z
       2395  95A 00005950 ??3ButtonPropertyComponent@juce@@SAXPEAX@Z
       2396  95B 00005960 ??3CPlusPlusCodeTokeniser@juce@@SAXPEAX0@Z
       2397  95C 00005950 ??3CPlusPlusCodeTokeniser@juce@@SAXPEAX@Z
       2398  95D 00005960 ??3CallOutBox@juce@@SAXPEAX0@Z
       2399  95E 00005950 ??3CallOutBox@juce@@SAXPEAX@Z
       2400  95F 00005960 ??3CaretComponent@juce@@SAXPEAX0@Z
       2401  960 00005950 ??3CaretComponent@juce@@SAXPEAX@Z
       2402  961 00005960 ??3ChildProcess@juce@@SAXPEAX0@Z
       2403  962 00005950 ??3ChildProcess@juce@@SAXPEAX@Z
       2404  963 00005960 ??3ChildProcessCoordinator@juce@@SAXPEAX0@Z
       2405  964 00005950 ??3ChildProcessCoordinator@juce@@SAXPEAX@Z
       2406  965 00005960 ??3ChildProcessWorker@juce@@SAXPEAX0@Z
       2407  966 00005950 ??3ChildProcessWorker@juce@@SAXPEAX@Z
       2408  967 00005960 ??3ChoicePropertyComponent@juce@@SAXPEAX0@Z
       2409  968 00005950 ??3ChoicePropertyComponent@juce@@SAXPEAX@Z
       2410  969 00005960 ??3CodeDocument@juce@@SAXPEAX0@Z
       2411  96A 00005950 ??3CodeDocument@juce@@SAXPEAX@Z
       2412  96B 00005960 ??3CodeEditorComponent@juce@@SAXPEAX0@Z
       2413  96C 00005950 ??3CodeEditorComponent@juce@@SAXPEAX@Z
       2414  96D 00005960 ??3CodeTokeniser@juce@@SAXPEAX0@Z
       2415  96E 00005950 ??3CodeTokeniser@juce@@SAXPEAX@Z
       2416  96F 00005960 ??3ColourGradient@juce@@SAXPEAX0@Z
       2417  970 00005950 ??3ColourGradient@juce@@SAXPEAX@Z
       2418  971 00005960 ??3ColourSelector@juce@@SAXPEAX0@Z
       2419  972 00005950 ??3ColourSelector@juce@@SAXPEAX@Z
       2420  973 00005960 ??3ComboBox@juce@@SAXPEAX0@Z
       2421  974 00005950 ??3ComboBox@juce@@SAXPEAX@Z
       2422  975 00005960 ??3ComboBoxAttachment@AudioProcessorValueTreeState@juce@@SAXPEAX0@Z
       2423  976 00005950 ??3ComboBoxAttachment@AudioProcessorValueTreeState@juce@@SAXPEAX@Z
       2424  977 00005960 ??3Component@juce@@SAXPEAX0@Z
       2425  978 00005950 ??3Component@juce@@SAXPEAX@Z
       2426  979 00005960 ??3ComponentAnimator@juce@@SAXPEAX0@Z
       2427  97A 00005950 ??3ComponentAnimator@juce@@SAXPEAX@Z
       2428  97B 00005960 ??3ComponentBoundsConstrainer@juce@@SAXPEAX0@Z
       2429  97C 00005950 ??3ComponentBoundsConstrainer@juce@@SAXPEAX@Z
       2430  97D 00005960 ??3ComponentBuilder@juce@@SAXPEAX0@Z
       2431  97E 00005950 ??3ComponentBuilder@juce@@SAXPEAX@Z
       2432  97F 00005960 ??3ComponentDragger@juce@@SAXPEAX0@Z
       2433  980 00005950 ??3ComponentDragger@juce@@SAXPEAX@Z
       2434  981 00005960 ??3ComponentMovementWatcher@juce@@SAXPEAX0@Z
       2435  982 00005950 ??3ComponentMovementWatcher@juce@@SAXPEAX@Z
       2436  983 00005960 ??3ComponentPeer@juce@@SAXPEAX0@Z
       2437  984 00005950 ??3ComponentPeer@juce@@SAXPEAX@Z
       2438  985 00005960 ??3ConcertinaPanel@juce@@SAXPEAX0@Z
       2439  986 00005950 ??3ConcertinaPanel@juce@@SAXPEAX@Z
       2440  987 00005960 ??3CustomCallback@PopupMenu@juce@@SAXPEAX0@Z
       2441  988 00005950 ??3CustomCallback@PopupMenu@juce@@SAXPEAX@Z
       2442  989 00005960 ??3CustomComponent@PopupMenu@juce@@SAXPEAX0@Z
       2443  98A 00005950 ??3CustomComponent@PopupMenu@juce@@SAXPEAX@Z
       2444  98B 00005960 ??3DatagramSocket@juce@@SAXPEAX0@Z
       2445  98C 00005950 ??3DatagramSocket@juce@@SAXPEAX@Z
       2446  98D 00005960 ??3Desktop@juce@@SAXPEAX0@Z
       2447  98E 00005950 ??3Desktop@juce@@SAXPEAX@Z
       2448  98F 00005960 ??3DialogWindow@juce@@SAXPEAX0@Z
       2449  990 00005950 ??3DialogWindow@juce@@SAXPEAX@Z
       2450  991 00005960 ??3DirectoryContentsDisplayComponent@juce@@SAXPEAX0@Z
       2451  992 00005950 ??3DirectoryContentsDisplayComponent@juce@@SAXPEAX@Z
       2452  993 00005960 ??3DirectoryContentsList@juce@@SAXPEAX0@Z
       2453  994 00005950 ??3DirectoryContentsList@juce@@SAXPEAX@Z
       2454  995 00005960 ??3DirectoryIterator@juce@@SAXPEAX0@Z
       2455  996 00005950 ??3DirectoryIterator@juce@@SAXPEAX@Z
       2456  997 00005960 ??3DocumentWindow@juce@@SAXPEAX0@Z
       2457  998 00005950 ??3DocumentWindow@juce@@SAXPEAX@Z
       2458  999 00005960 ??3DownloadTask@URL@juce@@SAXPEAX0@Z
       2459  99A 00005950 ??3DownloadTask@URL@juce@@SAXPEAX@Z
       2460  99B 00005960 ??3DragAndDropContainer@juce@@SAXPEAX0@Z
       2461  99C 00005950 ??3DragAndDropContainer@juce@@SAXPEAX@Z
       2462  99D 00005960 ??3Drawable@juce@@SAXPEAX0@Z
       2463  99E 00005950 ??3Drawable@juce@@SAXPEAX@Z
       2464  99F 00005960 ??3DrawableButton@juce@@SAXPEAX0@Z
       2465  9A0 00005950 ??3DrawableButton@juce@@SAXPEAX@Z
       2466  9A1 00005960 ??3DrawableComposite@juce@@SAXPEAX0@Z
       2467  9A2 00005950 ??3DrawableComposite@juce@@SAXPEAX@Z
       2468  9A3 00005960 ??3DrawableImage@juce@@SAXPEAX0@Z
       2469  9A4 00005950 ??3DrawableImage@juce@@SAXPEAX@Z
       2470  9A5 00005960 ??3DrawablePath@juce@@SAXPEAX0@Z
       2471  9A6 00005950 ??3DrawablePath@juce@@SAXPEAX@Z
       2472  9A7 00005960 ??3DrawableRectangle@juce@@SAXPEAX0@Z
       2473  9A8 00005950 ??3DrawableRectangle@juce@@SAXPEAX@Z
       2474  9A9 00005960 ??3DrawableText@juce@@SAXPEAX0@Z
       2475  9AA 00005950 ??3DrawableText@juce@@SAXPEAX@Z
       2476  9AB 00005960 ??3DropShadowEffect@juce@@SAXPEAX0@Z
       2477  9AC 00005950 ??3DropShadowEffect@juce@@SAXPEAX@Z
       2478  9AD 00005960 ??3DropShadower@juce@@SAXPEAX0@Z
       2479  9AE 00005950 ??3DropShadower@juce@@SAXPEAX@Z
       2480  9AF 00005960 ??3DynamicLibrary@juce@@SAXPEAX0@Z
       2481  9B0 00005950 ??3DynamicLibrary@juce@@SAXPEAX@Z
       2482  9B1 00005960 ??3DynamicObject@juce@@SAXPEAX0@Z
       2483  9B2 00005950 ??3DynamicObject@juce@@SAXPEAX@Z
       2484  9B3 00005960 ??3EdgeTable@juce@@SAXPEAX0@Z
       2485  9B4 00005950 ??3EdgeTable@juce@@SAXPEAX@Z
       2486  9B5 00005960 ??3FileBasedDocument@juce@@SAXPEAX0@Z
       2487  9B6 00005950 ??3FileBasedDocument@juce@@SAXPEAX@Z
       2488  9B7 00005960 ??3FileBrowserComponent@juce@@SAXPEAX0@Z
       2489  9B8 00005950 ??3FileBrowserComponent@juce@@SAXPEAX@Z
       2490  9B9 00005960 ??3FileChooser@juce@@SAXPEAX0@Z
       2491  9BA 00005950 ??3FileChooser@juce@@SAXPEAX@Z
       2492  9BB 00005960 ??3FileChooserDialogBox@juce@@SAXPEAX0@Z
       2493  9BC 00005950 ??3FileChooserDialogBox@juce@@SAXPEAX@Z
       2494  9BD 00005960 ??3FileInputSource@juce@@SAXPEAX0@Z
       2495  9BE 00005950 ??3FileInputSource@juce@@SAXPEAX@Z
       2496  9BF 00005960 ??3FileInputStream@juce@@SAXPEAX0@Z
       2497  9C0 00005950 ??3FileInputStream@juce@@SAXPEAX@Z
       2498  9C1 00005960 ??3FileListComponent@juce@@SAXPEAX0@Z
       2499  9C2 00005950 ??3FileListComponent@juce@@SAXPEAX@Z
       2500  9C3 00005960 ??3FileLogger@juce@@SAXPEAX0@Z
       2501  9C4 00005950 ??3FileLogger@juce@@SAXPEAX@Z
       2502  9C5 00005960 ??3FileOutputStream@juce@@SAXPEAX0@Z
       2503  9C6 00005950 ??3FileOutputStream@juce@@SAXPEAX@Z
       2504  9C7 00005960 ??3FilePreviewComponent@juce@@SAXPEAX0@Z
       2505  9C8 00005950 ??3FilePreviewComponent@juce@@SAXPEAX@Z
       2506  9C9 00005960 ??3FileSearchPath@juce@@SAXPEAX0@Z
       2507  9CA 00005950 ??3FileSearchPath@juce@@SAXPEAX@Z
       2508  9CB 00005960 ??3FileSearchPathListComponent@juce@@SAXPEAX0@Z
       2509  9CC 00005950 ??3FileSearchPathListComponent@juce@@SAXPEAX@Z
       2510  9CD 00005960 ??3FileTreeComponent@juce@@SAXPEAX0@Z
       2511  9CE 00005950 ??3FileTreeComponent@juce@@SAXPEAX@Z
       2512  9CF 00005960 ??3FilenameComponent@juce@@SAXPEAX0@Z
       2513  9D0 00005950 ??3FilenameComponent@juce@@SAXPEAX@Z
       2514  9D1 00005960 ??3FillType@juce@@SAXPEAX0@Z
       2515  9D2 00005950 ??3FillType@juce@@SAXPEAX@Z
       2516  9D3 00005960 ??3FlacAudioFormat@juce@@SAXPEAX0@Z
       2517  9D4 00005950 ??3FlacAudioFormat@juce@@SAXPEAX@Z
       2518  9D5 00005960 ??3FlexBox@juce@@SAXPEAX0@Z
       2519  9D6 00005950 ??3FlexBox@juce@@SAXPEAX@Z
       2520  9D7 00005960 ??3FocusOutline@juce@@SAXPEAX0@Z
       2521  9D8 00005950 ??3FocusOutline@juce@@SAXPEAX@Z
       2522  9D9 00005960 ??3Font@juce@@SAXPEAX0@Z
       2523  9DA 00005950 ??3Font@juce@@SAXPEAX@Z
       2524  9DB 00005960 ??3GZIPCompressorOutputStream@juce@@SAXPEAX0@Z
       2525  9DC 00005950 ??3GZIPCompressorOutputStream@juce@@SAXPEAX@Z
       2526  9DD 00005960 ??3GZIPDecompressorInputStream@juce@@SAXPEAX0@Z
       2527  9DE 00005950 ??3GZIPDecompressorInputStream@juce@@SAXPEAX@Z
       2528  9DF 00005960 ??3GenericAudioProcessorEditor@juce@@SAXPEAX0@Z
       2529  9E0 00005950 ??3GenericAudioProcessorEditor@juce@@SAXPEAX@Z
       2530  9E1 00005960 ??3GlowEffect@juce@@SAXPEAX0@Z
       2531  9E2 00005950 ??3GlowEffect@juce@@SAXPEAX@Z
       2532  9E3 00005960 ??3Glyph@TextLayout@juce@@SAXPEAX0@Z
       2533  9E4 00005950 ??3Glyph@TextLayout@juce@@SAXPEAX@Z
       2534  9E5 00005960 ??3GlyphArrangement@juce@@SAXPEAX0@Z
       2535  9E6 00005950 ??3GlyphArrangement@juce@@SAXPEAX@Z
       2536  9E7 00005960 ??3Graphics@juce@@SAXPEAX0@Z
       2537  9E8 00005950 ??3Graphics@juce@@SAXPEAX@Z
       2538  9E9 00005960 ??3HWNDComponent@juce@@SAXPEAX0@Z
       2539  9EA 00005950 ??3HWNDComponent@juce@@SAXPEAX@Z
       2540  9EB 00005960 ??3HighResolutionTimer@juce@@SAXPEAX0@Z
       2541  9EC 00005950 ??3HighResolutionTimer@juce@@SAXPEAX@Z
       2542  9ED 00005960 ??3HyperlinkButton@juce@@SAXPEAX0@Z
       2543  9EE 00005950 ??3HyperlinkButton@juce@@SAXPEAX@Z
       2544  9EF 00005960 ??3IIRFilterAudioSource@juce@@SAXPEAX0@Z
       2545  9F0 00005950 ??3IIRFilterAudioSource@juce@@SAXPEAX@Z
       2546  9F1 00005960 ??3Image@juce@@SAXPEAX0@Z
       2547  9F2 00005950 ??3Image@juce@@SAXPEAX@Z
       2548  9F3 00005960 ??3ImageButton@juce@@SAXPEAX0@Z
       2549  9F4 00005950 ??3ImageButton@juce@@SAXPEAX@Z
       2550  9F5 00005960 ??3ImageComponent@juce@@SAXPEAX0@Z
       2551  9F6 00005950 ??3ImageComponent@juce@@SAXPEAX@Z
       2552  9F7 00005960 ??3ImageConvolutionKernel@juce@@SAXPEAX0@Z
       2553  9F8 00005950 ??3ImageConvolutionKernel@juce@@SAXPEAX@Z
       2554  9F9 00005960 ??3ImagePixelData@juce@@SAXPEAX0@Z
       2555  9FA 00005950 ??3ImagePixelData@juce@@SAXPEAX@Z
       2556  9FB 00005960 ??3ImagePreviewComponent@juce@@SAXPEAX0@Z
       2557  9FC 00005950 ??3ImagePreviewComponent@juce@@SAXPEAX@Z
       2558  9FD 00005960 ??3InputSource@juce@@SAXPEAX0@Z
       2559  9FE 00005950 ??3InputSource@juce@@SAXPEAX@Z
       2560  9FF 00005960 ??3InputStream@juce@@SAXPEAX0@Z
       2561  A00 00005950 ??3InputStream@juce@@SAXPEAX@Z
       2562  A01 00005960 ??3InterprocessConnection@juce@@SAXPEAX0@Z
       2563  A02 00005950 ??3InterprocessConnection@juce@@SAXPEAX@Z
       2564  A03 00005960 ??3InterprocessConnectionServer@juce@@SAXPEAX0@Z
       2565  A04 00005950 ??3InterprocessConnectionServer@juce@@SAXPEAX@Z
       2566  A05 00005960 ??3KeyMappingEditorComponent@juce@@SAXPEAX0@Z
       2567  A06 00005950 ??3KeyMappingEditorComponent@juce@@SAXPEAX@Z
       2568  A07 00005960 ??3KeyPress@juce@@SAXPEAX0@Z
       2569  A08 00005950 ??3KeyPress@juce@@SAXPEAX@Z
       2570  A09 00005960 ??3KeyPressMappingSet@juce@@SAXPEAX0@Z
       2571  A0A 00005950 ??3KeyPressMappingSet@juce@@SAXPEAX@Z
       2572  A0B 00005960 ??3KeyboardComponentBase@juce@@SAXPEAX0@Z
       2573  A0C 00005950 ??3KeyboardComponentBase@juce@@SAXPEAX@Z
       2574  A0D 00005960 ??3KnownPluginList@juce@@SAXPEAX0@Z
       2575  A0E 00005950 ??3KnownPluginList@juce@@SAXPEAX@Z
       2576  A0F 00005960 ??3Label@juce@@SAXPEAX0@Z
       2577  A10 00005950 ??3Label@juce@@SAXPEAX@Z
       2578  A11 00005960 ??3LengthAndCharacterRestriction@TextEditor@juce@@SAXPEAX0@Z
       2579  A12 00005950 ??3LengthAndCharacterRestriction@TextEditor@juce@@SAXPEAX@Z
       2580  A13 00005960 ??3Line@TextLayout@juce@@SAXPEAX0@Z
       2581  A14 00005950 ??3Line@TextLayout@juce@@SAXPEAX@Z
       2582  A15 00005960 ??3ListBox@juce@@SAXPEAX0@Z
       2583  A16 00005950 ??3ListBox@juce@@SAXPEAX@Z
       2584  A17 00005960 ??3LocalisedStrings@juce@@SAXPEAX0@Z
       2585  A18 00005950 ??3LocalisedStrings@juce@@SAXPEAX@Z
       2586  A19 00005960 ??3LockingAsyncUpdater@juce@@SAXPEAX0@Z
       2587  A1A 00005950 ??3LockingAsyncUpdater@juce@@SAXPEAX@Z
       2588  A1B 00005960 ??3LookAndFeel@juce@@SAXPEAX0@Z
       2589  A1C 00005950 ??3LookAndFeel@juce@@SAXPEAX@Z
       2590  A1D 00005960 ??3LookAndFeel_V1@juce@@SAXPEAX0@Z
       2591  A1E 00005950 ??3LookAndFeel_V1@juce@@SAXPEAX@Z
       2592  A1F 00005960 ??3LookAndFeel_V2@juce@@SAXPEAX0@Z
       2593  A20 00005950 ??3LookAndFeel_V2@juce@@SAXPEAX@Z
       2594  A21 00005960 ??3LookAndFeel_V4@juce@@SAXPEAX0@Z
       2595  A22 00005950 ??3LookAndFeel_V4@juce@@SAXPEAX@Z
       2596  A23 00005960 ??3LowLevelGraphicsSoftwareRenderer@juce@@SAXPEAX0@Z
       2597  A24 00005950 ??3LowLevelGraphicsSoftwareRenderer@juce@@SAXPEAX@Z
       2598  A25 00005960 ??3LuaTokeniser@juce@@SAXPEAX0@Z
       2599  A26 00005950 ??3LuaTokeniser@juce@@SAXPEAX@Z
       2600  A27 00005960 ??3MD5@juce@@SAXPEAX0@Z
       2601  A28 00005950 ??3MD5@juce@@SAXPEAX@Z
       2602  A29 00005960 ??3MPEInstrument@juce@@SAXPEAX0@Z
       2603  A2A 00005950 ??3MPEInstrument@juce@@SAXPEAX@Z
       2604  A2B 00005960 ??3MPEKeyboardComponent@juce@@SAXPEAX0@Z
       2605  A2C 00005950 ??3MPEKeyboardComponent@juce@@SAXPEAX@Z
       2606  A2D 00005960 ??3MPESynthesiser@juce@@SAXPEAX0@Z
       2607  A2E 00005950 ??3MPESynthesiser@juce@@SAXPEAX@Z
       2608  A2F 00005960 ??3MPESynthesiserBase@juce@@SAXPEAX0@Z
       2609  A30 00005950 ??3MPESynthesiserBase@juce@@SAXPEAX@Z
       2610  A31 00005960 ??3MPESynthesiserVoice@juce@@SAXPEAX0@Z
       2611  A32 00005950 ??3MPESynthesiserVoice@juce@@SAXPEAX@Z
       2612  A33 00005960 ??3MarkerList@juce@@SAXPEAX0@Z
       2613  A34 00005950 ??3MarkerList@juce@@SAXPEAX@Z
       2614  A35 00005960 ??3MemoryAudioSource@juce@@SAXPEAX0@Z
       2615  A36 00005950 ??3MemoryAudioSource@juce@@SAXPEAX@Z
       2616  A37 00005960 ??3MemoryBlock@juce@@SAXPEAX0@Z
       2617  A38 00005950 ??3MemoryBlock@juce@@SAXPEAX@Z
       2618  A39 00005960 ??3MemoryInputStream@juce@@SAXPEAX0@Z
       2619  A3A 00005950 ??3MemoryInputStream@juce@@SAXPEAX@Z
       2620  A3B 00005960 ??3MemoryMappedAudioFormatReader@juce@@SAXPEAX0@Z
       2621  A3C 00005950 ??3MemoryMappedAudioFormatReader@juce@@SAXPEAX@Z
       2622  A3D 00005960 ??3MemoryMappedFile@juce@@SAXPEAX0@Z
       2623  A3E 00005950 ??3MemoryMappedFile@juce@@SAXPEAX@Z
       2624  A3F 00005960 ??3MemoryOutputStream@juce@@SAXPEAX0@Z
       2625  A40 00005950 ??3MemoryOutputStream@juce@@SAXPEAX@Z
       2626  A41 00005960 ??3MenuBarComponent@juce@@SAXPEAX0@Z
       2627  A42 00005950 ??3MenuBarComponent@juce@@SAXPEAX@Z
       2628  A43 00005960 ??3MenuBarModel@juce@@SAXPEAX0@Z
       2629  A44 00005950 ??3MenuBarModel@juce@@SAXPEAX@Z
       2630  A45 00005960 ??3MenuItemIterator@PopupMenu@juce@@SAXPEAX0@Z
       2631  A46 00005950 ??3MenuItemIterator@PopupMenu@juce@@SAXPEAX@Z
       2632  A47 00005960 ??3MessageManager@juce@@SAXPEAX0@Z
       2633  A48 00005950 ??3MessageManager@juce@@SAXPEAX@Z
       2634  A49 00005960 ??3MidiBuffer@juce@@SAXPEAX0@Z
       2635  A4A 00005950 ??3MidiBuffer@juce@@SAXPEAX@Z
       2636  A4B 00005960 ??3MidiFile@juce@@SAXPEAX0@Z
       2637  A4C 00005950 ??3MidiFile@juce@@SAXPEAX@Z
       2638  A4D 00005960 ??3MidiInput@juce@@SAXPEAX0@Z
       2639  A4E 00005950 ??3MidiInput@juce@@SAXPEAX@Z
       2640  A4F 00005960 ??3MidiKeyboardComponent@juce@@SAXPEAX0@Z
       2641  A50 00005950 ??3MidiKeyboardComponent@juce@@SAXPEAX@Z
       2642  A51 00005960 ??3MidiKeyboardState@juce@@SAXPEAX0@Z
       2643  A52 00005950 ??3MidiKeyboardState@juce@@SAXPEAX@Z
       2644  A53 00005960 ??3MidiMessageCollector@juce@@SAXPEAX0@Z
       2645  A54 00005950 ??3MidiMessageCollector@juce@@SAXPEAX@Z
       2646  A55 00005960 ??3MidiMessageSequence@juce@@SAXPEAX0@Z
       2647  A56 00005950 ??3MidiMessageSequence@juce@@SAXPEAX@Z
       2648  A57 00005960 ??3MidiOutput@juce@@SAXPEAX0@Z
       2649  A58 00005950 ??3MidiOutput@juce@@SAXPEAX@Z
       2650  A59 00005960 ??3MidiRPNDetector@juce@@SAXPEAX0@Z
       2651  A5A 00005950 ??3MidiRPNDetector@juce@@SAXPEAX@Z
       2652  A5B 00005960 ??3MixerAudioSource@juce@@SAXPEAX0@Z
       2653  A5C 00005950 ??3MixerAudioSource@juce@@SAXPEAX@Z
       2654  A5D 00005960 ??3MountedVolumeListChangeDetector@juce@@SAXPEAX0@Z
       2655  A5E 00005950 ??3MountedVolumeListChangeDetector@juce@@SAXPEAX@Z
       2656  A5F 00005960 ??3MouseCursor@juce@@SAXPEAX0@Z
       2657  A60 00005950 ??3MouseCursor@juce@@SAXPEAX@Z
       2658  A61 00005960 ??3MouseInactivityDetector@juce@@SAXPEAX0@Z
       2659  A62 00005950 ??3MouseInactivityDetector@juce@@SAXPEAX@Z
       2660  A63 00005960 ??3MouseInputSource@juce@@SAXPEAX0@Z
       2661  A64 00005950 ??3MouseInputSource@juce@@SAXPEAX@Z
       2662  A65 00005960 ??3MultiDocumentPanel@juce@@SAXPEAX0@Z
       2663  A66 00005950 ??3MultiDocumentPanel@juce@@SAXPEAX@Z
       2664  A67 00005960 ??3MultiDocumentPanelWindow@juce@@SAXPEAX0@Z
       2665  A68 00005950 ??3MultiDocumentPanelWindow@juce@@SAXPEAX@Z
       2666  A69 00005960 ??3NamedPipe@juce@@SAXPEAX0@Z
       2667  A6A 00005950 ??3NamedPipe@juce@@SAXPEAX@Z
       2668  A6B 00005960 ??3Node@AudioProcessorGraph@juce@@SAXPEAX0@Z
       2669  A6C 00005950 ??3Node@AudioProcessorGraph@juce@@SAXPEAX@Z
       2670  A6D 00005960 ??3OggVorbisAudioFormat@juce@@SAXPEAX0@Z
       2671  A6E 00005950 ??3OggVorbisAudioFormat@juce@@SAXPEAX@Z
       2672  A6F 00005960 ??3OpenGLAppComponent@juce@@SAXPEAX0@Z
       2673  A70 00005950 ??3OpenGLAppComponent@juce@@SAXPEAX@Z
       2674  A71 00005960 ??3OpenGLContext@juce@@SAXPEAX0@Z
       2675  A72 00005950 ??3OpenGLContext@juce@@SAXPEAX@Z
       2676  A73 00005960 ??3OpenGLFrameBuffer@juce@@SAXPEAX0@Z
       2677  A74 00005950 ??3OpenGLFrameBuffer@juce@@SAXPEAX@Z
       2678  A75 00005960 ??3OpenGLGraphicsContextCustomShader@juce@@SAXPEAX0@Z
       2679  A76 00005950 ??3OpenGLGraphicsContextCustomShader@juce@@SAXPEAX@Z
       2680  A77 00005960 ??3OpenGLShaderProgram@juce@@SAXPEAX0@Z
       2681  A78 00005950 ??3OpenGLShaderProgram@juce@@SAXPEAX@Z
       2682  A79 00005960 ??3OpenGLTexture@juce@@SAXPEAX0@Z
       2683  A7A 00005950 ??3OpenGLTexture@juce@@SAXPEAX@Z
       2684  A7B 00005960 ??3OpennessRestorer@TreeViewItem@juce@@SAXPEAX0@Z
       2685  A7C 00005950 ??3OpennessRestorer@TreeViewItem@juce@@SAXPEAX@Z
       2686  A7D 00005960 ??3OutputStream@juce@@SAXPEAX0@Z
       2687  A7E 00005950 ??3OutputStream@juce@@SAXPEAX@Z
       2688  A7F 00005960 ??3Path@juce@@SAXPEAX0@Z
       2689  A80 00005950 ??3Path@juce@@SAXPEAX@Z
       2690  A81 00005960 ??3PathFlatteningIterator@juce@@SAXPEAX0@Z
       2691  A82 00005950 ??3PathFlatteningIterator@juce@@SAXPEAX@Z
       2692  A83 00005960 ??3PathStrokeType@juce@@SAXPEAX0@Z
       2693  A84 00005950 ??3PathStrokeType@juce@@SAXPEAX@Z
       2694  A85 00005960 ??3PerformanceCounter@juce@@SAXPEAX0@Z
       2695  A86 00005950 ??3PerformanceCounter@juce@@SAXPEAX@Z
       2696  A87 00005960 ??3PluginDescription@juce@@SAXPEAX0@Z
       2697  A88 00005950 ??3PluginDescription@juce@@SAXPEAX@Z
       2698  A89 00005960 ??3PluginDirectoryScanner@juce@@SAXPEAX0@Z
       2699  A8A 00005950 ??3PluginDirectoryScanner@juce@@SAXPEAX@Z
       2700  A8B 00005960 ??3PluginListComponent@juce@@SAXPEAX0@Z
       2701  A8C 00005950 ??3PluginListComponent@juce@@SAXPEAX@Z
       2702  A8D 00005960 ??3PopupMenu@juce@@SAXPEAX0@Z
       2703  A8E 00005950 ??3PopupMenu@juce@@SAXPEAX@Z
       2704  A8F 00005960 ??3PositionedGlyph@juce@@SAXPEAX0@Z
       2705  A90 00005950 ??3PositionedGlyph@juce@@SAXPEAX@Z
       2706  A91 00005960 ??3Positioner@Component@juce@@SAXPEAX0@Z
       2707  A92 00005950 ??3Positioner@Component@juce@@SAXPEAX@Z
       2708  A93 00005960 ??3PreferencesPanel@juce@@SAXPEAX0@Z
       2709  A94 00005950 ??3PreferencesPanel@juce@@SAXPEAX@Z
       2710  A95 00005960 ??3ProgressBar@juce@@SAXPEAX0@Z
       2711  A96 00005950 ??3ProgressBar@juce@@SAXPEAX@Z
       2712  A97 00005960 ??3PropertiesFile@juce@@SAXPEAX0@Z
       2713  A98 00005950 ??3PropertiesFile@juce@@SAXPEAX@Z
       2714  A99 00005960 ??3PropertyComponent@juce@@SAXPEAX0@Z
       2715  A9A 00005950 ??3PropertyComponent@juce@@SAXPEAX@Z
       2716  A9B 00005960 ??3PropertyPanel@juce@@SAXPEAX0@Z
       2717  A9C 00005950 ??3PropertyPanel@juce@@SAXPEAX@Z
       2718  A9D 00005960 ??3PropertySet@juce@@SAXPEAX0@Z
       2719  A9E 00005950 ??3PropertySet@juce@@SAXPEAX@Z
       2720  A9F 00005960 ??3RSAKey@juce@@SAXPEAX0@Z
       2721  AA0 00005950 ??3RSAKey@juce@@SAXPEAX@Z
       2722  AA1 00005960 ??3Random@juce@@SAXPEAX0@Z
       2723  AA2 00005950 ??3Random@juce@@SAXPEAX@Z
       2724  AA3 00005960 ??3RecentlyOpenedFilesList@juce@@SAXPEAX0@Z
       2725  AA4 00005950 ??3RecentlyOpenedFilesList@juce@@SAXPEAX@Z
       2726  AA5 00005960 ??3RelativeCoordinatePositionerBase@juce@@SAXPEAX0@Z
       2727  AA6 00005950 ??3RelativeCoordinatePositionerBase@juce@@SAXPEAX@Z
       2728  AA7 00005960 ??3RelativePointPath@juce@@SAXPEAX0@Z
       2729  AA8 00005950 ??3RelativePointPath@juce@@SAXPEAX@Z
       2730  AA9 00005960 ??3ResamplingAudioSource@juce@@SAXPEAX0@Z
       2731  AAA 00005950 ??3ResamplingAudioSource@juce@@SAXPEAX@Z
       2732  AAB 00005960 ??3ResizableBorderComponent@juce@@SAXPEAX0@Z
       2733  AAC 00005950 ??3ResizableBorderComponent@juce@@SAXPEAX@Z
       2734  AAD 00005960 ??3ResizableCornerComponent@juce@@SAXPEAX0@Z
       2735  AAE 00005950 ??3ResizableCornerComponent@juce@@SAXPEAX@Z
       2736  AAF 00005960 ??3ResizableEdgeComponent@juce@@SAXPEAX0@Z
       2737  AB0 00005950 ??3ResizableEdgeComponent@juce@@SAXPEAX@Z
       2738  AB1 00005960 ??3ResizableWindow@juce@@SAXPEAX0@Z
       2739  AB2 00005950 ??3ResizableWindow@juce@@SAXPEAX@Z
       2740  AB3 00005960 ??3ReverbAudioSource@juce@@SAXPEAX0@Z
       2741  AB4 00005950 ??3ReverbAudioSource@juce@@SAXPEAX@Z
       2742  AB5 00005960 ??3Run@TextLayout@juce@@SAXPEAX0@Z
       2743  AB6 00005950 ??3Run@TextLayout@juce@@SAXPEAX@Z
       2744  AB7 00005960 ??3SHA256@juce@@SAXPEAX0@Z
       2745  AB8 00005950 ??3SHA256@juce@@SAXPEAX@Z
       2746  AB9 00005960 ??3SamplerSound@juce@@SAXPEAX0@Z
       2747  ABA 00005950 ??3SamplerSound@juce@@SAXPEAX@Z
       2748  ABB 00005960 ??3SamplerVoice@juce@@SAXPEAX0@Z
       2749  ABC 00005950 ??3SamplerVoice@juce@@SAXPEAX@Z
       2750  ABD 00005960 ??3ScopedMessageBox@juce@@SAXPEAX0@Z
       2751  ABE 00005950 ??3ScopedMessageBox@juce@@SAXPEAX@Z
       2752  ABF 00005960 ??3ScopedTimeMeasurement@juce@@SAXPEAX0@Z
       2753  AC0 00005950 ??3ScopedTimeMeasurement@juce@@SAXPEAX@Z
       2754  AC1 00005960 ??3ScrollBar@juce@@SAXPEAX0@Z
       2755  AC2 00005950 ??3ScrollBar@juce@@SAXPEAX@Z
       2756  AC3 00005960 ??3ShapeButton@juce@@SAXPEAX0@Z
       2757  AC4 00005950 ??3ShapeButton@juce@@SAXPEAX@Z
       2758  AC5 00005960 ??3Slider@juce@@SAXPEAX0@Z
       2759  AC6 00005950 ??3Slider@juce@@SAXPEAX@Z
       2760  AC7 00005960 ??3SliderAttachment@AudioProcessorValueTreeState@juce@@SAXPEAX0@Z
       2761  AC8 00005950 ??3SliderAttachment@AudioProcessorValueTreeState@juce@@SAXPEAX@Z
       2762  AC9 00005960 ??3SliderPropertyComponent@juce@@SAXPEAX0@Z
       2763  ACA 00005950 ??3SliderPropertyComponent@juce@@SAXPEAX@Z
       2764  ACB 00005960 ??3SoundPlayer@juce@@SAXPEAX0@Z
       2765  ACC 00005950 ??3SoundPlayer@juce@@SAXPEAX@Z
       2766  ACD 00005960 ??3SplashScreen@juce@@SAXPEAX0@Z
       2767  ACE 00005950 ??3SplashScreen@juce@@SAXPEAX@Z
       2768  ACF 00005960 ??3StreamingSocket@juce@@SAXPEAX0@Z
       2769  AD0 00005950 ??3StreamingSocket@juce@@SAXPEAX@Z
       2770  AD1 00005960 ??3StretchableLayoutManager@juce@@SAXPEAX0@Z
       2771  AD2 00005950 ??3StretchableLayoutManager@juce@@SAXPEAX@Z
       2772  AD3 00005960 ??3StretchableLayoutResizerBar@juce@@SAXPEAX0@Z
       2773  AD4 00005950 ??3StretchableLayoutResizerBar@juce@@SAXPEAX@Z
       2774  AD5 00005960 ??3StringArray@juce@@SAXPEAX0@Z
       2775  AD6 00005950 ??3StringArray@juce@@SAXPEAX@Z
       2776  AD7 00005960 ??3StringPairArray@juce@@SAXPEAX0@Z
       2777  AD8 00005950 ??3StringPairArray@juce@@SAXPEAX@Z
       2778  AD9 00005960 ??3SubregionStream@juce@@SAXPEAX0@Z
       2779  ADA 00005950 ??3SubregionStream@juce@@SAXPEAX@Z
       2780  ADB 00005960 ??3Synthesiser@juce@@SAXPEAX0@Z
       2781  ADC 00005950 ??3Synthesiser@juce@@SAXPEAX@Z
       2782  ADD 00005960 ??3SynthesiserSound@juce@@SAXPEAX0@Z
       2783  ADE 00005950 ??3SynthesiserSound@juce@@SAXPEAX@Z
       2784  ADF 00005960 ??3SynthesiserVoice@juce@@SAXPEAX0@Z
       2785  AE0 00005950 ??3SynthesiserVoice@juce@@SAXPEAX@Z
       2786  AE1 00005960 ??3SystemTrayIconComponent@juce@@SAXPEAX0@Z
       2787  AE2 00005950 ??3SystemTrayIconComponent@juce@@SAXPEAX@Z
       2788  AE3 00005960 ??3TabBarButton@juce@@SAXPEAX0@Z
       2789  AE4 00005950 ??3TabBarButton@juce@@SAXPEAX@Z
       2790  AE5 00005960 ??3TabbedButtonBar@juce@@SAXPEAX0@Z
       2791  AE6 00005950 ??3TabbedButtonBar@juce@@SAXPEAX@Z
       2792  AE7 00005960 ??3TabbedComponent@juce@@SAXPEAX0@Z
       2793  AE8 00005950 ??3TabbedComponent@juce@@SAXPEAX@Z
       2794  AE9 00005960 ??3TableHeaderComponent@juce@@SAXPEAX0@Z
       2795  AEA 00005950 ??3TableHeaderComponent@juce@@SAXPEAX@Z
       2796  AEB 00005960 ??3TableListBox@juce@@SAXPEAX0@Z
       2797  AEC 00005950 ??3TableListBox@juce@@SAXPEAX@Z
       2798  AED 00005960 ??3TemporaryFile@juce@@SAXPEAX0@Z
       2799  AEE 00005950 ??3TemporaryFile@juce@@SAXPEAX@Z
       2800  AEF 00005960 ??3TextButton@juce@@SAXPEAX0@Z
       2801  AF0 00005950 ??3TextButton@juce@@SAXPEAX@Z
       2802  AF1 00005960 ??3TextEditor@juce@@SAXPEAX0@Z
       2803  AF2 00005950 ??3TextEditor@juce@@SAXPEAX@Z
       2804  AF3 00005960 ??3TextLayout@juce@@SAXPEAX0@Z
       2805  AF4 00005950 ??3TextLayout@juce@@SAXPEAX@Z
       2806  AF5 00005960 ??3TextPropertyComponent@juce@@SAXPEAX0@Z
       2807  AF6 00005950 ??3TextPropertyComponent@juce@@SAXPEAX@Z
       2808  AF7 00005960 ??3Thread@juce@@SAXPEAX0@Z
       2809  AF8 00005950 ??3Thread@juce@@SAXPEAX@Z
       2810  AF9 00005960 ??3ThreadPool@juce@@SAXPEAX0@Z
       2811  AFA 00005950 ??3ThreadPool@juce@@SAXPEAX@Z
       2812  AFB 00005960 ??3ThreadPoolJob@juce@@SAXPEAX0@Z
       2813  AFC 00005950 ??3ThreadPoolJob@juce@@SAXPEAX@Z
       2814  AFD 00005960 ??3ThreadWithProgressWindow@juce@@SAXPEAX0@Z
       2815  AFE 00005950 ??3ThreadWithProgressWindow@juce@@SAXPEAX@Z
       2816  AFF 00005960 ??3TimeSliceThread@juce@@SAXPEAX0@Z
       2817  B00 00005950 ??3TimeSliceThread@juce@@SAXPEAX@Z
       2818  B01 00005960 ??3Timer@juce@@SAXPEAX0@Z
       2819  B02 00005950 ??3Timer@juce@@SAXPEAX@Z
       2820  B03 00005960 ??3ToggleButton@juce@@SAXPEAX0@Z
       2821  B04 00005950 ??3ToggleButton@juce@@SAXPEAX@Z
       2822  B05 00005960 ??3ToneGeneratorAudioSource@juce@@SAXPEAX0@Z
       2823  B06 00005950 ??3ToneGeneratorAudioSource@juce@@SAXPEAX@Z
       2824  B07 00005960 ??3Toolbar@juce@@SAXPEAX0@Z
       2825  B08 00005950 ??3Toolbar@juce@@SAXPEAX@Z
       2826  B09 00005960 ??3ToolbarButton@juce@@SAXPEAX0@Z
       2827  B0A 00005950 ??3ToolbarButton@juce@@SAXPEAX@Z
       2828  B0B 00005960 ??3ToolbarItemComponent@juce@@SAXPEAX0@Z
       2829  B0C 00005950 ??3ToolbarItemComponent@juce@@SAXPEAX@Z
       2830  B0D 00005960 ??3ToolbarItemPalette@juce@@SAXPEAX0@Z
       2831  B0E 00005950 ??3ToolbarItemPalette@juce@@SAXPEAX@Z
       2832  B0F 00005960 ??3TooltipWindow@juce@@SAXPEAX0@Z
       2833  B10 00005950 ??3TooltipWindow@juce@@SAXPEAX@Z
       2834  B11 00005960 ??3TopLevelWindow@juce@@SAXPEAX0@Z
       2835  B12 00005950 ??3TopLevelWindow@juce@@SAXPEAX@Z
       2836  B13 00005960 ??3TreeView@juce@@SAXPEAX0@Z
       2837  B14 00005950 ??3TreeView@juce@@SAXPEAX@Z
       2838  B15 00005960 ??3TreeViewItem@juce@@SAXPEAX0@Z
       2839  B16 00005950 ??3TreeViewItem@juce@@SAXPEAX@Z
       2840  B17 00005960 ??3TypeHandler@ComponentBuilder@juce@@SAXPEAX0@Z
       2841  B18 00005950 ??3TypeHandler@ComponentBuilder@juce@@SAXPEAX@Z
       2842  B19 00005960 ??3Typeface@juce@@SAXPEAX0@Z
       2843  B1A 00005950 ??3Typeface@juce@@SAXPEAX@Z
       2844  B1B 00005960 ??3URL@juce@@SAXPEAX0@Z
       2845  B1C 00005950 ??3URL@juce@@SAXPEAX@Z
       2846  B1D 00005960 ??3URLInputSource@juce@@SAXPEAX0@Z
       2847  B1E 00005950 ??3URLInputSource@juce@@SAXPEAX@Z
       2848  B1F 00005960 ??3UndoManager@juce@@SAXPEAX0@Z
       2849  B20 00005950 ??3UndoManager@juce@@SAXPEAX@Z
       2850  B21 00005960 ??3Uniform@OpenGLShaderProgram@juce@@SAXPEAX0@Z
       2851  B22 00005950 ??3Uniform@OpenGLShaderProgram@juce@@SAXPEAX@Z
       2852  B23 00005960 ??3Uuid@juce@@SAXPEAX0@Z
       2853  B24 00005950 ??3Uuid@juce@@SAXPEAX@Z
       2854  B25 00005960 ??3ValueSource@Value@juce@@SAXPEAX0@Z
       2855  B26 00005950 ??3ValueSource@Value@juce@@SAXPEAX@Z
       2856  B27 00005960 ??3ValueTreePropertyWithDefault@juce@@SAXPEAX0@Z
       2857  B28 00005950 ??3ValueTreePropertyWithDefault@juce@@SAXPEAX@Z
       2858  B29 00005960 ??3ValueTreeSynchroniser@juce@@SAXPEAX0@Z
       2859  B2A 00005950 ??3ValueTreeSynchroniser@juce@@SAXPEAX@Z
       2860  B2B 00005960 ??3VideoComponent@juce@@SAXPEAX0@Z
       2861  B2C 00005950 ??3VideoComponent@juce@@SAXPEAX@Z
       2862  B2D 00005960 ??3Viewport@juce@@SAXPEAX0@Z
       2863  B2E 00005950 ??3Viewport@juce@@SAXPEAX@Z
       2864  B2F 00005960 ??3WaitableEvent@juce@@SAXPEAX0@Z
       2865  B30 00005950 ??3WaitableEvent@juce@@SAXPEAX@Z
       2866  B31 00005960 ??3WavAudioFormat@juce@@SAXPEAX0@Z
       2867  B32 00005950 ??3WavAudioFormat@juce@@SAXPEAX@Z
       2868  B33 00005960 ??3WebBrowserComponent@juce@@SAXPEAX0@Z
       2869  B34 00005950 ??3WebBrowserComponent@juce@@SAXPEAX@Z
       2870  B35 00005960 ??3WebInputStream@juce@@SAXPEAX0@Z
       2871  B36 00005950 ??3WebInputStream@juce@@SAXPEAX@Z
       2872  B37 00005960 ??3Whirlpool@juce@@SAXPEAX0@Z
       2873  B38 00005950 ??3Whirlpool@juce@@SAXPEAX@Z
       2874  B39 00005960 ??3WildcardFileFilter@juce@@SAXPEAX0@Z
       2875  B3A 00005950 ??3WildcardFileFilter@juce@@SAXPEAX@Z
       2876  B3B 00005960 ??3XmlDocument@juce@@SAXPEAX0@Z
       2877  B3C 00005950 ??3XmlDocument@juce@@SAXPEAX@Z
       2878  B3D 00005960 ??3XmlElement@juce@@SAXPEAX0@Z
       2879  B3E 00005950 ??3XmlElement@juce@@SAXPEAX@Z
       2880  B3F 00005960 ??3XmlTokeniser@juce@@SAXPEAX0@Z
       2881  B40 00005950 ??3XmlTokeniser@juce@@SAXPEAX@Z
       2882  B41 00005960 ??3ZipFile@juce@@SAXPEAX0@Z
       2883  B42 00005950 ??3ZipFile@juce@@SAXPEAX@Z
       2884  B43 00004FF0 ??4?$FloatVectorOperationsBase@MH@juce@@QEAAAEAU01@$$QEAU01@@Z
       2885  B44 00004FF0 ??4?$FloatVectorOperationsBase@MH@juce@@QEAAAEAU01@AEBU01@@Z
       2886  B45 00004FF0 ??4?$FloatVectorOperationsBase@M_K@juce@@QEAAAEAU01@$$QEAU01@@Z
       2887  B46 00004FF0 ??4?$FloatVectorOperationsBase@M_K@juce@@QEAAAEAU01@AEBU01@@Z
       2888  B47 00004FF0 ??4?$FloatVectorOperationsBase@NH@juce@@QEAAAEAU01@$$QEAU01@@Z
       2889  B48 00004FF0 ??4?$FloatVectorOperationsBase@NH@juce@@QEAAAEAU01@AEBU01@@Z
       2890  B49 00004FF0 ??4?$FloatVectorOperationsBase@N_K@juce@@QEAAAEAU01@$$QEAU01@@Z
       2891  B4A 00004FF0 ??4?$FloatVectorOperationsBase@N_K@juce@@QEAAAEAU01@AEBU01@@Z
       2892  B4B 00004FF0 ??4?$NameForwarder@U?$FloatVectorOperationsBase@MH@juce@@U?$FloatVectorOperationsBase@M_K@2@U?$FloatVectorOperationsBase@NH@2@U?$FloatVectorOperationsBase@N_K@2@@detail@juce@@QEAAAEAU012@$$QEAU012@@Z
       2893  B4C 000082B0 ??4?$NameForwarder@U?$FloatVectorOperationsBase@MH@juce@@U?$FloatVectorOperationsBase@M_K@2@U?$FloatVectorOperationsBase@NH@2@U?$FloatVectorOperationsBase@N_K@2@@detail@juce@@QEAAAEAU012@AEBU012@@Z
       2894  B4D 00004FF0 ??4?$OptionsBuilder@VOptions@WebBrowserComponent@juce@@@@QEAAAEAV0@AEBV0@@Z
       2895  B4E 00004FF0 ??4?$SliderListener@VSlider@juce@@@juce@@QEAAAEAV01@AEBV01@@Z
       2896  B4F 00004FF0 ??4?$SliderListener@VWebSliderRelay@juce@@@juce@@QEAAAEAV01@AEBV01@@Z
       2897  B50 00004FF0 ??4AAXClientExtensions@juce@@QEAAAEAU01@AEBU01@@Z
       2898  B51 00009CB0 ??4ADSR@juce@@QEAAAEAV01@$$QEAV01@@Z
       2899  B52 00009C90 ??4ADSR@juce@@QEAAAEAV01@AEBV01@@Z
       2900  B53 00075950 ??4AccessibilityActions@juce@@QEAAAEAV01@$$QEAV01@@Z
       2901  B54 000758F0 ??4AccessibilityActions@juce@@QEAAAEAV01@AEBV01@@Z
       2902  B55 00004FF0 ??4AccessibilityCellInterface@juce@@QEAAAEAV01@AEBV01@@Z
       2903  B56 00004FF0 ??4AccessibilityNumericValueInterface@juce@@QEAAAEAV01@$$QEAV01@@Z
       2904  B57 00004FF0 ??4AccessibilityNumericValueInterface@juce@@QEAAAEAV01@AEBV01@@Z
       2905  B58 00004FF0 ??4AccessibilityRangedNumericValueInterface@juce@@QEAAAEAV01@$$QEAV01@@Z
       2906  B59 00004FF0 ??4AccessibilityRangedNumericValueInterface@juce@@QEAAAEAV01@AEBV01@@Z
       2907  B5A 00004FF0 ??4AccessibilityTableInterface@juce@@QEAAAEAV01@AEBV01@@Z
       2908  B5B 00004FF0 ??4AccessibilityTextInterface@juce@@QEAAAEAV01@AEBV01@@Z
       2909  B5C 00004FF0 ??4AccessibilityTextValueInterface@juce@@QEAAAEAV01@$$QEAV01@@Z
       2910  B5D 00004FF0 ??4AccessibilityTextValueInterface@juce@@QEAAAEAV01@AEBV01@@Z
       2911  B5E 00004FF0 ??4AccessibilityValueInterface@juce@@QEAAAEAV01@AEBV01@@Z
       2912  B5F 0000A000 ??4AccessibleState@juce@@QEAAAEAV01@$$QEAV01@@Z
       2913  B60 0000A000 ??4AccessibleState@juce@@QEAAAEAV01@AEBV01@@Z
       2914  B61 00075420 ??4AccessibleValueRange@AccessibilityValueInterface@juce@@QEAAAEAV012@$$QEAV012@@Z
       2915  B62 00075400 ??4AccessibleValueRange@AccessibilityValueInterface@juce@@QEAAAEAV012@AEBV012@@Z
       2916  B63 00004FF0 ??4ActionListener@juce@@QEAAAEAV01@AEBV01@@Z
       2917  B64 0001F9D0 ??4AffineTransform@juce@@QEAAAEAV01@AEBV01@@Z
       2918  B65 000081B0 ??4AndroidDocumentInputSource@juce@@QEAAAEAV01@$$QEAV01@@Z
       2919  B66 00008100 ??4AndroidDocumentInputSource@juce@@QEAAAEAV01@AEBV01@@Z
       2920  B67 00074E00 ??4ApplicationCommandInfo@juce@@QEAAAEAU01@$$QEAU01@@Z
       2921  B68 00074C80 ??4ApplicationCommandInfo@juce@@QEAAAEAU01@AEBU01@@Z
       2922  B69 00004FF0 ??4ApplicationCommandManagerListener@juce@@QEAAAEAV01@AEBV01@@Z
       2923  B6A 00021250 ??4Attribute@AttributedString@juce@@QEAAAEAV012@$$QEAV012@@Z
       2924  B6B 000211F0 ??4Attribute@AttributedString@juce@@QEAAAEAV012@AEBV012@@Z
       2925  B6C 0000A000 ??4Attribute@OpenGLShaderProgram@juce@@QEAAAEAU012@$$QEAU012@@Z
       2926  B6D 0000A000 ??4Attribute@OpenGLShaderProgram@juce@@QEAAAEAU012@AEBU012@@Z
       2927  B6E 000214B0 ??4AttributedString@juce@@QEAAAEAV01@$$QEAV01@@Z
       2928  B6F 000213E0 ??4AttributedString@juce@@QEAAAEAV01@AEBV01@@Z
       2929  B70 000083B0 ??4AudioChannelSet@juce@@QEAAAEAV01@$$QEAV01@@Z
       2930  B71 00008390 ??4AudioChannelSet@juce@@QEAAAEAV01@AEBV01@@Z
       2931  B72 00004FF0 ??4AudioData@juce@@QEAAAEAV01@$$QEAV01@@Z
       2932  B73 00004FF0 ??4AudioData@juce@@QEAAAEAV01@AEBV01@@Z
       2933  B74 00004FF0 ??4AudioDataConverters@juce@@QEAAAEAV01@$$QEAV01@@Z
       2934  B75 00004FF0 ??4AudioDataConverters@juce@@QEAAAEAV01@AEBV01@@Z
       2935  B76 00004FF0 ??4AudioDeviceSelectorComponentMethods@ExtraLookAndFeelBaseClasses@juce@@QEAAAEAU012@AEBU012@@Z
       2936  B77 00024E40 ??4AudioDeviceSetup@AudioDeviceManager@juce@@QEAAAEAU012@$$QEAU012@@Z
       2937  B78 00024D60 ??4AudioDeviceSetup@AudioDeviceManager@juce@@QEAAAEAU012@AEBU012@@Z
       2938  B79 0005BCD0 ??4AudioFormat@juce@@QEAAAEAV01@AEBV01@@Z
       2939  B7A 00024720 ??4AudioIODevice@juce@@QEAAAEAV01@AEBV01@@Z
       2940  B7B 00004FF0 ??4AudioIODeviceCallback@juce@@QEAAAEAV01@AEBV01@@Z
       2941  B7C 00299060 ??4AudioParameterBool@juce@@QEAAAEAV01@_N@Z
       2942  B7D 002987E0 ??4AudioParameterChoice@juce@@QEAAAEAV01@H@Z
       2943  B7E 0029A300 ??4AudioParameterFloat@juce@@QEAAAEAV01@M@Z
       2944  B7F 00299A90 ??4AudioParameterInt@juce@@QEAAAEAV01@H@Z
       2945  B80 00004FF0 ??4AudioPlayHead@juce@@QEAAAEAV01@AEBV01@@Z
       2946  B81 00004FF0 ??4AudioProcessorListener@juce@@QEAAAEAV01@AEBV01@@Z
       2947  B82 0029B870 ??4AudioProcessorParameterGroup@juce@@QEAAAEAV01@$$QEAV01@@Z
       2948  B83 00004FF0 ??4AudioSource@juce@@QEAAAEAV01@AEBV01@@Z
       2949  B84 0000A620 ??4AudioSourceChannelInfo@juce@@QEAAAEAU01@$$QEAU01@@Z
       2950  B85 00007160 ??4AudioSourceChannelInfo@juce@@QEAAAEAU01@AEBU01@@Z
       2951  B86 00004FF0 ??4Base64@juce@@QEAAAEAU01@$$QEAU01@@Z
       2952  B87 00004FF0 ??4Base64@juce@@QEAAAEAU01@AEBU01@@Z
       2953  B88 00315D80 ??4BigInteger@juce@@QEAAAEAV01@$$QEAV01@@Z
       2954  B89 00315DC0 ??4BigInteger@juce@@QEAAAEAV01@AEBV01@@Z
       2955  B8A 0031E060 ??4BlowFish@juce@@QEAAAEAV01@AEBV01@@Z
       2956  B8B 00004FF0 ??4BluetoothMidiDevicePairingDialogue@juce@@QEAAAEAV01@$$QEAV01@@Z
       2957  B8C 00004FF0 ??4BluetoothMidiDevicePairingDialogue@juce@@QEAAAEAV01@AEBV01@@Z
       2958  B8D 00004FF0 ??4ByteOrder@juce@@QEAAAEAV01@$$QEAV01@@Z
       2959  B8E 00004FF0 ??4ByteOrder@juce@@QEAAAEAV01@AEBV01@@Z
       2960  B8F 00004FF0 ??4CPlusPlusCodeTokeniser@juce@@QEAAAEAV01@AEBV01@@Z
       2961  B90 00004FF0 ??4CachedComponentImage@juce@@QEAAAEAV01@AEBV01@@Z
       2962  B91 00004FF0 ??4Callback@ModalComponentManager@juce@@QEAAAEAV012@AEBV012@@Z
       2963  B92 0007BDB0 ??4ChangeDetails@AudioProcessorListener@juce@@QEAAAEAU012@$$QEAU012@@Z
       2964  B93 0000A000 ??4ChangeDetails@AudioProcessorListener@juce@@QEAAAEAU012@AEBU012@@Z
       2965  B94 00004FF0 ??4ChangeListener@juce@@QEAAAEAV01@AEBV01@@Z
       2966  B95 00004FF0 ??4CharacterFunctions@juce@@QEAAAEAV01@$$QEAV01@@Z
       2967  B96 00004FF0 ??4CharacterFunctions@juce@@QEAAAEAV01@AEBV01@@Z
       2968  B97 00004FF0 ??4CodeTokeniser@juce@@QEAAAEAV01@AEBV01@@Z
       2969  B98 0000A000 ??4Colour@juce@@QEAAAEAV01@AEBV01@@Z
       2970  B99 003A1AE0 ??4ColourGradient@juce@@QEAAAEAV01@$$QEAV01@@Z
       2971  B9A 003A1B50 ??4ColourGradient@juce@@QEAAAEAV01@AEBV01@@Z
       2972  B9B 00005E50 ??4ColourScheme@CodeEditorComponent@juce@@QEAAAEAU012@$$QEAU012@@Z
       2973  B9C 000799D0 ??4ColourScheme@CodeEditorComponent@juce@@QEAAAEAU012@AEBU012@@Z
       2974  B9D 00004FF0 ??4ComponentListener@juce@@QEAAAEAV01@AEBV01@@Z
       2975  B9E 00004FF0 ??4ComponentTraverser@juce@@QEAAAEAV01@AEBV01@@Z
       2976  B9F 00007160 ??4Connection@AudioProcessorGraph@juce@@QEAAAEAU012@AEBU012@@Z
       2977  BA0 00004FF0 ??4ContentSharer@juce@@QEAAAEAV01@$$QEAV01@@Z
       2978  BA1 00004FF0 ??4ContentSharer@juce@@QEAAAEAV01@AEBV01@@Z
       2979  BA2 0000B930 ??4CurrentPositionInfo@AudioPlayHead@juce@@QEAAAEAU012@$$QEAU012@@Z
       2980  BA3 0000B8F0 ??4CurrentPositionInfo@AudioPlayHead@juce@@QEAAAEAU012@AEBU012@@Z
       2981  BA4 00004FF0 ??4DarkModeSettingListener@juce@@QEAAAEAV01@AEBV01@@Z
       2982  BA5 000741F0 ??4Display@Displays@juce@@QEAAAEAU012@$$QEAU012@@Z
       2983  BA6 000741B0 ??4Display@Displays@juce@@QEAAAEAU012@AEBU012@@Z
       2984  BA7 00074410 ??4Displays@juce@@QEAAAEAV01@$$QEAV01@@Z
       2985  BA8 00074340 ??4Displays@juce@@QEAAAEAV01@AEBV01@@Z
       2986  BA9 00004FF0 ??4DownloadTaskListener@URL@juce@@QEAAAEAU012@AEBU012@@Z
       2987  BAA 00004FF0 ??4DragAndDropTarget@juce@@QEAAAEAV01@AEBV01@@Z
       2988  BAB 00024090 ??4DropShadow@juce@@QEAAAEAU01@$$QEAU01@@Z
       2989  BAC 00007160 ??4DropShadow@juce@@QEAAAEAU01@AEBU01@@Z
       2990  BAD 000240D0 ??4DropShadowEffect@juce@@QEAAAEAV01@AEBV01@@Z
       2991  BAE 00006080 ??4DynamicObject@juce@@QEAAAEAV01@AEBV01@@Z
       2992  BAF 000200A0 ??4EdgeTable@juce@@QEAAAEAV01@$$QEAV01@@Z
       2993  BB0 0001FFF0 ??4EdgeTable@juce@@QEAAAEAV01@AEBV01@@Z
       2994  BB1 002FD440 ??4Expression@juce@@QEAAAEAV01@$$QEAV01@@Z
       2995  BB2 002FD480 ??4Expression@juce@@QEAAAEAV01@AEBV01@@Z
       2996  BB3 00004FF0 ??4ExtraLookAndFeelBaseClasses@juce@@QEAAAEAU01@$$QEAU01@@Z
       2997  BB4 00004FF0 ??4ExtraLookAndFeelBaseClasses@juce@@QEAAAEAU01@AEBU01@@Z
       2998  BB5 0030D980 ??4File@juce@@QEAAAEAV01@$$QEAV01@@Z
       2999  BB6 0030D920 ??4File@juce@@QEAAAEAV01@AEBV01@@Z
       3000  BB7 003094E0 ??4File@juce@@QEAAAEAV01@AEBVString@1@@Z
       3001  BB8 00004FF0 ??4FileBrowserListener@juce@@QEAAAEAV01@AEBV01@@Z
       3002  BB9 00004FF0 ??4FileDragAndDropTarget@juce@@QEAAAEAV01@AEBV01@@Z
       3003  BBA 000067E0 ??4FileFilter@juce@@QEAAAEAV01@AEBV01@@Z
       3004  BBB 0030FB00 ??4FileSearchPath@juce@@QEAAAEAV01@AEBV01@@Z
       3005  BBC 00303AE0 ??4FileSearchPath@juce@@QEAAAEAV01@AEBVString@1@@Z
       3006  BBD 00004FF0 ??4FilenameComponentListener@juce@@QEAAAEAV01@AEBV01@@Z
       3007  BBE 003A0DE0 ??4FillType@juce@@QEAAAEAV01@$$QEAV01@@Z
       3008  BBF 003A53B0 ??4FillType@juce@@QEAAAEAV01@AEBV01@@Z
       3009  BC0 00078930 ??4FlexBox@juce@@QEAAAEAV01@$$QEAV01@@Z
       3010  BC1 000788C0 ??4FlexBox@juce@@QEAAAEAV01@AEBV01@@Z
       3011  BC2 000787B0 ??4FlexItem@juce@@QEAAAEAV01@$$QEAV01@@Z
       3012  BC3 0000B8F0 ??4FlexItem@juce@@QEAAAEAV01@AEBV01@@Z
       3013  BC4 000082B0 ??4FloatVectorOperations@juce@@QEAAAEAV01@$$QEAV01@@Z
       3014  BC5 000082B0 ??4FloatVectorOperations@juce@@QEAAAEAV01@AEBV01@@Z
       3015  BC6 00004FF0 ??4FocusChangeListener@juce@@QEAAAEAV01@AEBV01@@Z
       3016  BC7 00004FF0 ??4FocusTraverser@juce@@QEAAAEAV01@AEBV01@@Z
       3017  BC8 003A7120 ??4Font@juce@@QEAAAEAV01@$$QEAV01@@Z
       3018  BC9 003A7170 ??4Font@juce@@QEAAAEAV01@AEBV01@@Z
       3019  BCA 00020FE0 ??4FontOptions@juce@@QEAAAEAV01@$$QEAV01@@Z
       3020  BCB 00020EB0 ??4FontOptions@juce@@QEAAAEAV01@AEBV01@@Z
       3021  BCC 0000B830 ??4FrameRate@AudioPlayHead@juce@@QEAAAEAV012@$$QEAV012@@Z
       3022  BCD 00005850 ??4FrameRate@AudioPlayHead@juce@@QEAAAEAV012@AEBV012@@Z
       3023  BCE 00004FF0 ??4GIFImageFormat@juce@@QEAAAEAV01@AEBV01@@Z
       3024  BCF 000241D0 ??4GlowEffect@juce@@QEAAAEAV01@AEBV01@@Z
       3025  BD0 00022020 ??4Glyph@TextLayout@juce@@QEAAAEAV012@$$QEAV012@@Z
       3026  BD1 00007160 ??4Glyph@TextLayout@juce@@QEAAAEAV012@AEBV012@@Z
       3027  BD2 00021AB0 ??4GlyphArrangement@juce@@QEAAAEAV01@$$QEAV01@@Z
       3028  BD3 00021A40 ??4GlyphArrangement@juce@@QEAAAEAV01@AEBV01@@Z
       3029  BD4 00079550 ??4Grid@juce@@QEAAAEAV01@$$QEAV01@@Z
       3030  BD5 000792E0 ??4Grid@juce@@QEAAAEAV01@AEBV01@@Z
       3031  BD6 00078DD0 ??4GridItem@juce@@QEAAAEAV01@$$QEAV01@@Z
       3032  BD7 00078C60 ??4GridItem@juce@@QEAAAEAV01@AEBV01@@Z
       3033  BD8 0022B150 ??4IIRCoefficients@juce@@QEAAAEAV01@AEBV01@@Z
       3034  BD9 00007070 ??4IPAddress@juce@@QEAAAEAV01@$$QEAV01@@Z
       3035  BDA 00007050 ??4IPAddress@juce@@QEAAAEAV01@AEBV01@@Z
       3036  BDB 002EF780 ??4Identifier@juce@@QEAAAEAV01@$$QEAV01@@Z
       3037  BDC 0030DAE0 ??4Identifier@juce@@QEAAAEAV01@AEBV01@@Z
       3038  BDD 003A7960 ??4Image@juce@@QEAAAEAV01@$$QEAV01@@Z
       3039  BDE 003A7900 ??4Image@juce@@QEAAAEAV01@AEBV01@@Z
       3040  BDF 00004FF0 ??4ImageEffectFilter@juce@@QEAAAEAV01@AEBV01@@Z
       3041  BE0 00004FF0 ??4ImageFileFormat@juce@@QEAAAEAV01@AEBV01@@Z
       3042  BE1 00004FF0 ??4ImageProvider@ComponentBuilder@juce@@QEAAAEAV012@AEBV012@@Z
       3043  BE2 00004FF0 ??4ImageType@juce@@QEAAAEAV01@AEBV01@@Z
       3044  BE3 00004FF0 ??4IncomingDataReceiver@ThreadedWriter@AudioFormatWriter@juce@@QEAAAEAV0123@AEBV0123@@Z
       3045  BE4 00004FF0 ??4InputFilter@TextEditor@juce@@QEAAAEAV012@AEBV012@@Z
       3046  BE5 00004FF0 ??4InputSource@juce@@QEAAAEAV01@AEBV01@@Z
       3047  BE6 00075E00 ??4Interfaces@AccessibilityHandler@juce@@QEAAAEAU012@$$QEAU012@@Z
       3048  BE7 00074E90 ??4InvocationInfo@ApplicationCommandTarget@juce@@QEAAAEAU012@$$QEAU012@@Z
       3049  BE8 00009C90 ??4InvocationInfo@ApplicationCommandTarget@juce@@QEAAAEAU012@AEBU012@@Z
       3050  BE9 0043DF70 ??4Item@PopupMenu@juce@@QEAAAEAU012@$$QEAU012@@Z
       3051  BEA 0043DAB0 ??4Item@PopupMenu@juce@@QEAAAEAU012@AEBU012@@Z
       3052  BEB 0001F9D0 ??4Iterator@CodeDocument@juce@@QEAAAEAV012@AEBV012@@Z
       3053  BEC 00020220 ??4JPEGImageFormat@juce@@QEAAAEAV01@AEBV01@@Z
       3054  BED 00004FF0 ??4JSON@juce@@QEAAAEAV01@$$QEAV01@@Z
       3055  BEE 00004FF0 ??4JSON@juce@@QEAAAEAV01@AEBV01@@Z
       3056  BEF 00004FF0 ??4JobSelector@ThreadPool@juce@@QEAAAEAV012@AEBV012@@Z
       3057  BF0 00004FF0 ??4KeyListener@juce@@QEAAAEAV01@AEBV01@@Z
       3058  BF1 00004FF0 ??4KeyMappingEditorComponentMethods@ExtraLookAndFeelBaseClasses@juce@@QEAAAEAU012@AEBU012@@Z
       3059  BF2 00073E80 ??4KeyPress@juce@@QEAAAEAV01@AEBV01@@Z
       3060  BF3 00004FF0 ??4KeyboardFocusTraverser@juce@@QEAAAEAV01@AEBV01@@Z
       3061  BF4 00004FF0 ??4LassoComponentMethods@ExtraLookAndFeelBaseClasses@juce@@QEAAAEAU012@AEBU012@@Z
       3062  BF5 00022400 ??4Line@TextLayout@juce@@QEAAAEAV012@$$QEAV012@@Z
       3063  BF6 00343320 ??4Line@TextLayout@juce@@QEAAAEAV012@AEBV012@@Z
       3064  BF7 000771D0 ??4ListBoxModel@juce@@QEAAAEAV01@AEBV01@@Z
       3065  BF8 00004FF0 ??4Listener@AudioProcessorParameter@juce@@QEAAAEAV012@AEBV012@@Z
       3066  BF9 00004FF0 ??4Listener@AudioProcessorValueTreeState@juce@@QEAAAEAU012@AEBU012@@Z
       3067  BFA 00004FF0 ??4Listener@Button@juce@@QEAAAEAV012@AEBV012@@Z
       3068  BFB 00004FF0 ??4Listener@CodeDocument@juce@@QEAAAEAV012@AEBV012@@Z
       3069  BFC 00004FF0 ??4Listener@ComboBox@juce@@QEAAAEAV012@AEBV012@@Z
       3070  BFD 00004FF0 ??4Listener@Label@juce@@QEAAAEAV012@AEBV012@@Z
       3071  BFE 00004FF0 ??4Listener@MPEInstrument@juce@@QEAAAEAV012@AEBV012@@Z
       3072  BFF 00004FF0 ??4Listener@MarkerList@juce@@QEAAAEAV012@AEBV012@@Z
       3073  C00 00004FF0 ??4Listener@MenuBarModel@juce@@QEAAAEAV012@AEBV012@@Z
       3074  C01 00004FF0 ??4Listener@MidiKeyboardState@juce@@QEAAAEAV012@AEBV012@@Z
       3075  C02 00004FF0 ??4Listener@ScrollBar@juce@@QEAAAEAV012@AEBV012@@Z
       3076  C03 00004FF0 ??4Listener@TableHeaderComponent@juce@@QEAAAEAV012@AEBV012@@Z
       3077  C04 00004FF0 ??4Listener@TextEditor@juce@@QEAAAEAV012@AEBV012@@Z
       3078  C05 00004FF0 ??4Listener@TextPropertyComponent@juce@@QEAAAEAV012@AEBV012@@Z
       3079  C06 00004FF0 ??4Listener@Thread@juce@@QEAAAEAV012@AEBV012@@Z
       3080  C07 00004FF0 ??4Listener@Value@juce@@QEAAAEAV012@AEBV012@@Z
       3081  C08 00004FF0 ??4Listener@ValueTree@juce@@QEAAAEAV012@AEBV012@@Z
       3082  C09 00004FF0 ??4Listener@WebInputStream@juce@@QEAAAEAV012@AEBV012@@Z
       3083  C0A 002EF410 ??4LocalisedStrings@juce@@QEAAAEAV01@AEBV01@@Z
       3084  C0B 0032B400 ??4LockingAsyncUpdater@juce@@QEAAAEAV01@$$QEAV01@@Z
       3085  C0C 00004FF0 ??4Logger@juce@@QEAAAEAV01@AEBV01@@Z
       3086  C0D 00004FF0 ??4LookAndFeelMethods@AlertWindow@juce@@QEAAAEAU012@AEBU012@@Z
       3087  C0E 00004FF0 ??4LookAndFeelMethods@BubbleComponent@juce@@QEAAAEAU012@AEBU012@@Z
       3088  C0F 00004FF0 ??4LookAndFeelMethods@Button@juce@@QEAAAEAU012@AEBU012@@Z
       3089  C10 00004FF0 ??4LookAndFeelMethods@CallOutBox@juce@@QEAAAEAU012@AEBU012@@Z
       3090  C11 00004FF0 ??4LookAndFeelMethods@ComboBox@juce@@QEAAAEAU012@AEBU012@@Z
       3091  C12 00004FF0 ??4LookAndFeelMethods@ConcertinaPanel@juce@@QEAAAEAU012@AEBU012@@Z
       3092  C13 00004FF0 ??4LookAndFeelMethods@DocumentWindow@juce@@QEAAAEAU012@AEBU012@@Z
       3093  C14 00004FF0 ??4LookAndFeelMethods@FileBrowserComponent@juce@@QEAAAEAU012@AEBU012@@Z
       3094  C15 00004FF0 ??4LookAndFeelMethods@FilenameComponent@juce@@QEAAAEAU012@AEBU012@@Z
       3095  C16 00004FF0 ??4LookAndFeelMethods@GroupComponent@juce@@QEAAAEAU012@AEBU012@@Z
       3096  C17 00004FF0 ??4LookAndFeelMethods@ImageButton@juce@@QEAAAEAU012@AEBU012@@Z
       3097  C18 00004FF0 ??4LookAndFeelMethods@Label@juce@@QEAAAEAU012@AEBU012@@Z
       3098  C19 00004FF0 ??4LookAndFeelMethods@PopupMenu@juce@@QEAAAEAU012@AEBU012@@Z
       3099  C1A 00004FF0 ??4LookAndFeelMethods@ProgressBar@juce@@QEAAAEAU012@AEBU012@@Z
       3100  C1B 00004FF0 ??4LookAndFeelMethods@PropertyComponent@juce@@QEAAAEAU012@AEBU012@@Z
       3101  C1C 00004FF0 ??4LookAndFeelMethods@ResizableWindow@juce@@QEAAAEAU012@AEBU012@@Z
       3102  C1D 00004FF0 ??4LookAndFeelMethods@ScrollBar@juce@@QEAAAEAU012@AEBU012@@Z
       3103  C1E 00004FF0 ??4LookAndFeelMethods@SidePanel@juce@@QEAAAEAU012@AEBU012@@Z
       3104  C1F 00004FF0 ??4LookAndFeelMethods@Slider@juce@@QEAAAEAU012@AEBU012@@Z
       3105  C20 00004FF0 ??4LookAndFeelMethods@StretchableLayoutResizerBar@juce@@QEAAAEAU012@AEBU012@@Z
       3106  C21 00004FF0 ??4LookAndFeelMethods@TabbedButtonBar@juce@@QEAAAEAU012@AEBU012@@Z
       3107  C22 00004FF0 ??4LookAndFeelMethods@TableHeaderComponent@juce@@QEAAAEAU012@AEBU012@@Z
       3108  C23 00004FF0 ??4LookAndFeelMethods@TextEditor@juce@@QEAAAEAU012@AEBU012@@Z
       3109  C24 00004FF0 ??4LookAndFeelMethods@Toolbar@juce@@QEAAAEAU012@AEBU012@@Z
       3110  C25 00004FF0 ??4LookAndFeelMethods@TooltipWindow@juce@@QEAAAEAU012@AEBU012@@Z
       3111  C26 00004FF0 ??4LookAndFeelMethods@TreeView@juce@@QEAAAEAU012@AEBU012@@Z
       3112  C27 00007170 ??4LoopPoints@AudioPlayHead@juce@@QEAAAEAU012@$$QEAU012@@Z
       3113  C28 00007160 ??4LoopPoints@AudioPlayHead@juce@@QEAAAEAU012@AEBU012@@Z
       3114  C29 00004FF0 ??4LowLevelGraphicsContext@juce@@QEAAAEAV01@AEBV01@@Z
       3115  C2A 002F9170 ??4MACAddress@juce@@QEAAAEAV01@AEBV01@@Z
       3116  C2B 0031AAD0 ??4MD5@juce@@QEAAAEAV01@AEBV01@@Z
       3117  C2C 00004FF0 ??4MPEMessages@juce@@QEAAAEAV01@$$QEAV01@@Z
       3118  C2D 00004FF0 ??4MPEMessages@juce@@QEAAAEAV01@AEBV01@@Z
       3119  C2E 0000A010 ??4MPENote@juce@@QEAAAEAU01@$$QEAU01@@Z
       3120  C2F 00009C90 ??4MPENote@juce@@QEAAAEAU01@AEBU01@@Z
       3121  C30 0000A000 ??4MPEValue@juce@@QEAAAEAV01@$$QEAV01@@Z
       3122  C31 0000A000 ??4MPEValue@juce@@QEAAAEAV01@AEBV01@@Z
       3123  C32 00222700 ??4MPEZoneLayout@juce@@QEAAAEAV01@AEBV01@@Z
       3124  C33 00076570 ??4Marker@MarkerList@juce@@QEAAAEAV012@AEBV012@@Z
       3125  C34 00436D60 ??4MarkerList@juce@@QEAAAEAV01@AEBV01@@Z
       3126  C35 00316A70 ??4MemoryBlock@juce@@QEAAAEAV01@$$QEAV01@@Z
       3127  C36 00316990 ??4MemoryBlock@juce@@QEAAAEAV01@AEBV01@@Z
       3128  C37 00077AC0 ??4MessageBoxOptions@juce@@QEAAAEAV01@AEBV01@@Z
       3129  C38 00009EB0 ??4MidiBuffer@juce@@QEAAAEAV01@$$QEAV01@@Z
       3130  C39 00009E00 ??4MidiBuffer@juce@@QEAAAEAV01@AEBV01@@Z
       3131  C3A 00005850 ??4MidiBufferIterator@juce@@QEAAAEAV01@$$QEAV01@@Z
       3132  C3B 00005850 ??4MidiBufferIterator@juce@@QEAAAEAV01@AEBV01@@Z
       3133  C3C 00229360 ??4MidiFile@juce@@QEAAAEAV01@$$QEAV01@@Z
       3134  C3D 002293F0 ??4MidiFile@juce@@QEAAAEAV01@AEBV01@@Z
       3135  C3E 00004FF0 ??4MidiInputCallback@juce@@QEAAAEAV01@AEBV01@@Z
       3136  C3F 002274B0 ??4MidiMessage@juce@@QEAAAEAV01@$$QEAV01@@Z
       3137  C40 00227510 ??4MidiMessage@juce@@QEAAAEAV01@AEBV01@@Z
       3138  C41 00224600 ??4MidiMessageSequence@juce@@QEAAAEAV01@$$QEAV01@@Z
       3139  C42 00224690 ??4MidiMessageSequence@juce@@QEAAAEAV01@AEBV01@@Z
       3140  C43 00009FD0 ??4MidiRPNDetector@juce@@QEAAAEAV01@AEBV01@@Z
       3141  C44 00004FF0 ??4MidiRPNGenerator@juce@@QEAAAEAV01@$$QEAV01@@Z
       3142  C45 00004FF0 ??4MidiRPNGenerator@juce@@QEAAAEAV01@AEBV01@@Z
       3143  C46 00007170 ??4MinAndMax@AccessibleValueRange@AccessibilityValueInterface@juce@@QEAAAEAU0123@$$QEAU0123@@Z
       3144  C47 00007160 ??4MinAndMax@AccessibleValueRange@AccessibilityValueInterface@juce@@QEAAAEAU0123@AEBU0123@@Z
       3145  C48 00004FF0 ??4ModalCallbackFunction@juce@@QEAAAEAV01@AEBV01@@Z
       3146  C49 0000A000 ??4ModifierKeys@juce@@QEAAAEAV01@AEBV01@@Z
       3147  C4A 004A5520 ??4MouseCursor@juce@@QEAAAEAV01@$$QEAV01@@Z
       3148  C4B 004A55E0 ??4MouseCursor@juce@@QEAAAEAV01@AEBV01@@Z
       3149  C4C 004377C0 ??4MouseInputSource@juce@@QEAAAEAV01@AEBV01@@Z
       3150  C4D 00004FF0 ??4MouseListener@juce@@QEAAAEAV01@AEBV01@@Z
       3151  C4E 0030C3C0 ??4NamedValue@NamedValueSet@juce@@QEAAAEAU012@$$QEAU012@@Z
       3152  C4F 0030C1D0 ??4NamedValueSet@juce@@QEAAAEAV01@$$QEAV01@@Z
       3153  C50 00315710 ??4NamedValueSet@juce@@QEAAAEAV01@AEBV01@@Z
       3154  C51 00004FF0 ??4NativeImageType@juce@@QEAAAEAV01@AEBV01@@Z
       3155  C52 00004FF0 ??4NewLine@juce@@QEAAAEAV01@$$QEAV01@@Z
       3156  C53 00004FF0 ??4NewLine@juce@@QEAAAEAV01@AEBV01@@Z
       3157  C54 0000B870 ??4NoteAndVelocity@KeyboardComponentBase@juce@@QEAAAEAU012@$$QEAU012@@Z
       3158  C55 00005850 ??4NoteAndVelocity@KeyboardComponentBase@juce@@QEAAAEAU012@AEBU012@@Z
       3159  C56 00004FF0 ??4OpenGLHelpers@juce@@QEAAAEAV01@$$QEAV01@@Z
       3160  C57 00004FF0 ??4OpenGLHelpers@juce@@QEAAAEAV01@AEBV01@@Z
       3161  C58 00004FF0 ??4OpenGLImageType@juce@@QEAAAEAV01@AEBV01@@Z
       3162  C59 002028D0 ??4OpenGLPixelFormat@juce@@QEAAAEAV01@$$QEAV01@@Z
       3163  C5A 002028A0 ??4OpenGLPixelFormat@juce@@QEAAAEAV01@AEBV01@@Z
       3164  C5B 00004FF0 ??4OpenGLRenderer@juce@@QEAAAEAV01@AEBV01@@Z
       3165  C5C 00078060 ??4OptionalBorderSize@ComponentPeer@juce@@QEAAAEAV012@$$QEAV012@@Z
       3166  C5D 00078050 ??4OptionalBorderSize@ComponentPeer@juce@@QEAAAEAV012@AEBV012@@Z
       3167  C5E 00076280 ??4Options@PopupMenu@juce@@QEAAAEAV012@AEBV012@@Z
       3168  C5F 00073C00 ??4Options@PropertiesFile@juce@@QEAAAEAU012@$$QEAU012@@Z
       3169  C60 00073AD0 ??4Options@PropertiesFile@juce@@QEAAAEAU012@AEBU012@@Z
       3170  C61 0007B270 ??4Options@WebBrowserComponent@juce@@QEAAAEAV012@$$QEAV012@@Z
       3171  C62 0007AF80 ??4Options@WebBrowserComponent@juce@@QEAAAEAV012@AEBV012@@Z
       3172  C63 00004FF0 ??4OutlineWindowProperties@FocusOutline@juce@@QEAAAEAU012@AEBU012@@Z
       3173  C64 00004FF0 ??4PNGImageFormat@juce@@QEAAAEAV01@AEBV01@@Z
       3174  C65 000801B0 ??4ParameterLayout@AudioProcessorValueTreeState@juce@@QEAAAEAV012@$$QEAV012@@Z
       3175  C66 00009C70 ??4Parameters@ADSR@juce@@QEAAAEAU012@$$QEAU012@@Z
       3176  C67 00007160 ??4Parameters@ADSR@juce@@QEAAAEAU012@AEBU012@@Z
       3177  C68 0039F240 ??4Path@juce@@QEAAAEAV01@$$QEAV01@@Z
       3178  C69 0039F2E0 ??4Path@juce@@QEAAAEAV01@AEBV01@@Z
       3179  C6A 00399CE0 ??4PathStrokeType@juce@@QEAAAEAV01@AEBV01@@Z
       3180  C6B 0001FD20 ??4PixelARGB@juce@@QEAAAEAV01@$$QEAV01@@Z
       3181  C6C 0000A000 ??4PixelARGB@juce@@QEAAAEAV01@AEBV01@@Z
       3182  C6D 0001FEF0 ??4PixelAlpha@juce@@QEAAAEAV01@$$QEAV01@@Z
       3183  C6E 0001FEF0 ??4PixelAlpha@juce@@QEAAAEAV01@AEBV01@@Z
       3184  C6F 0001FE20 ??4PixelRGB@juce@@QEAAAEAV01@$$QEAV01@@Z
       3185  C70 000082B0 ??4PixelRGB@juce@@QEAAAEAV01@AEBV01@@Z
       3186  C71 0007C8D0 ??4PluginDescription@juce@@QEAAAEAV01@$$QEAV01@@Z
       3187  C72 0007C6F0 ??4PluginDescription@juce@@QEAAAEAV01@AEBV01@@Z
       3188  C73 0043E180 ??4PopupMenu@juce@@QEAAAEAV01@$$QEAV01@@Z
       3189  C74 0043E260 ??4PopupMenu@juce@@QEAAAEAV01@AEBV01@@Z
       3190  C75 004D3FC0 ??4Position@CodeDocument@juce@@QEAAAEAV012@AEBV012@@Z
       3191  C76 00004FF0 ??4PositionableAudioSource@juce@@QEAAAEAV01@AEBV01@@Z
       3192  C77 000217F0 ??4PositionedGlyph@juce@@QEAAAEAV01@$$QEAV01@@Z
       3193  C78 00021770 ??4PositionedGlyph@juce@@QEAAAEAV01@AEBV01@@Z
       3194  C79 0030B2A0 ??4PropertySet@juce@@QEAAAEAV01@AEBV01@@Z
       3195  C7A 000BFB80 ??4RSAKey@juce@@QEAAAEAV01@$$QEAV01@@Z
       3196  C7B 000BFB50 ??4RSAKey@juce@@QEAAAEAV01@AEBV01@@Z
       3197  C7C 00005850 ??4Random@juce@@QEAAAEAV01@$$QEAV01@@Z
       3198  C7D 00005850 ??4Random@juce@@QEAAAEAV01@AEBV01@@Z
       3199  C7E 00079DE0 ??4RecentlyOpenedFilesList@juce@@QEAAAEAV01@$$QEAV01@@Z
       3200  C7F 00079DB0 ??4RecentlyOpenedFilesList@juce@@QEAAAEAV01@AEBV01@@Z
       3201  C80 0000A000 ??4RectanglePlacement@juce@@QEAAAEAV01@AEBV01@@Z
       3202  C81 00004FF0 ??4ReferenceCountedObject@juce@@IEAAAEAV01@$$QEAV01@@Z
       3203  C82 00004FF0 ??4ReferenceCountedObject@juce@@IEAAAEAV01@AEBV01@@Z
       3204  C83 004B88E0 ??4RelativeCoordinate@juce@@QEAAAEAV01@$$QEAV01@@Z
       3205  C84 004B8890 ??4RelativeCoordinate@juce@@QEAAAEAV01@AEBV01@@Z
       3206  C85 00076A60 ??4RelativeParallelogram@juce@@QEAAAEAV01@AEBV01@@Z
       3207  C86 00076760 ??4RelativePoint@juce@@QEAAAEAV01@$$QEAV01@@Z
       3208  C87 000766C0 ??4RelativePoint@juce@@QEAAAEAV01@AEBV01@@Z
       3209  C88 000769A0 ??4RelativeRectangle@juce@@QEAAAEAV01@$$QEAV01@@Z
       3210  C89 00076890 ??4RelativeRectangle@juce@@QEAAAEAV01@AEBV01@@Z
       3211  C8A 002E2A20 ??4RelativeTime@juce@@QEAAAEAV01@AEBV01@@Z
       3212  C8B 002FB1D0 ??4Result@juce@@QEAAAEAV01@$$QEAV01@@Z
       3213  C8C 002FB210 ??4Result@juce@@QEAAAEAV01@AEBV01@@Z
       3214  C8D 000222C0 ??4Run@TextLayout@juce@@QEAAAEAV012@$$QEAV012@@Z
       3215  C8E 000221D0 ??4Run@TextLayout@juce@@QEAAAEAV012@AEBV012@@Z
       3216  C8F 00004FF0 ??4RuntimePermissions@juce@@QEAAAEAV01@$$QEAV01@@Z
       3217  C90 00004FF0 ??4RuntimePermissions@juce@@QEAAAEAV01@AEBV01@@Z
       3218  C91 0031A330 ??4SHA256@juce@@QEAAAEAV01@AEBV01@@Z
       3219  C92 0005C460 ??4SamplerVoice@juce@@QEAAAEAV01@AEBV01@@Z
       3220  C93 00004FF0 ??4ScaleFactorListener@ComponentPeer@juce@@QEAAAEAU012@AEBU012@@Z
       3221  C94 00022E90 ??4ScaledImage@juce@@QEAAAEAV01@$$QEAV01@@Z
       3222  C95 00022E20 ??4ScaledImage@juce@@QEAAAEAV01@AEBV01@@Z
       3223  C96 00004FF0 ??4Scope@Expression@juce@@QEAAAEAV012@AEBV012@@Z
       3224  C97 00005850 ??4ScopedDPIAwarenessDisabler@juce@@QEAAAEAV01@AEBV01@@Z
       3225  C98 004BBB30 ??4ScopedMessageBox@juce@@QEAAAEAV01@$$QEAV01@@Z
       3226  C99 000067E0 ??4SettableTooltipClient@juce@@QEAAAEAV01@AEBV01@@Z
       3227  C9A 000D8E80 ??4ShapedText@juce@@QEAAAEAV01@$$QEAV01@@Z
       3228  C9B 000D8DF0 ??4ShapedText@juce@@QEAAAEAV01@AEBV01@@Z
       3229  C9C 00004FF0 ??4SingleThreadedReferenceCountedObject@juce@@IEAAAEAV01@$$QEAV01@@Z
       3230  C9D 00004FF0 ??4SingleThreadedReferenceCountedObject@juce@@IEAAAEAV01@AEBV01@@Z
       3231  C9E 00007170 ??4SocketOptions@juce@@QEAAAEAV01@$$QEAV01@@Z
       3232  C9F 00007160 ??4SocketOptions@juce@@QEAAAEAV01@AEBV01@@Z
       3233  CA0 00004FF0 ??4SoftwareImageType@juce@@QEAAAEAV01@AEBV01@@Z
       3234  CA1 00074720 ??4SourceDetails@DragAndDropTarget@juce@@QEAAAEAV012@$$QEAV012@@Z
       3235  CA2 00074680 ??4SourceDetails@DragAndDropTarget@juce@@QEAAAEAV012@AEBV012@@Z
       3236  CA3 00318640 ??4String@juce@@QEAAAEAV01@$$QEAV01@@Z
       3237  CA4 003185E0 ??4String@juce@@QEAAAEAV01@AEBV01@@Z
       3238  CA5 00319630 ??4StringArray@juce@@QEAAAEAV01@$$QEAV01@@Z
       3239  CA6 003195B0 ??4StringArray@juce@@QEAAAEAV01@AEBV01@@Z
       3240  CA7 003113E0 ??4StringPairArray@juce@@QEAAAEAV01@AEBV01@@Z
       3241  CA8 00005850 ??4StringRef@juce@@QEAAAEAV01@$$QEAV01@@Z
       3242  CA9 00005850 ??4StringRef@juce@@QEAAAEAV01@AEBV01@@Z
       3243  CAA 00004FF0 ??4SynthesiserSound@juce@@QEAAAEAV01@AEBV01@@Z
       3244  CAB 0000AE80 ??4SynthesiserVoice@juce@@QEAAAEAV01@AEBV01@@Z
       3245  CAC 00004FF0 ??4SystemClipboard@juce@@QEAAAEAV01@$$QEAV01@@Z
       3246  CAD 00004FF0 ??4SystemClipboard@juce@@QEAAAEAV01@AEBV01@@Z
       3247  CAE 00004FF0 ??4TableListBoxModel@juce@@QEAAAEAV01@AEBV01@@Z
       3248  CAF 00005E50 ??4TextDiff@juce@@QEAAAEAV01@$$QEAV01@@Z
       3249  CB0 00005DF0 ??4TextDiff@juce@@QEAAAEAV01@AEBV01@@Z
       3250  CB1 00004FF0 ??4TextDragAndDropTarget@juce@@QEAAAEAV01@AEBV01@@Z
       3251  CB2 00007E20 ??4TextFormat@XmlElement@juce@@QEAAAEAU012@$$QEAU012@@Z
       3252  CB3 00007D30 ??4TextFormat@XmlElement@juce@@QEAAAEAU012@AEBU012@@Z
       3253  CB4 00004FF0 ??4TextInputTarget@juce@@QEAAAEAV01@AEBV01@@Z
       3254  CB5 00342FC0 ??4TextLayout@juce@@QEAAAEAV01@$$QEAV01@@Z
       3255  CB6 00342F50 ??4TextLayout@juce@@QEAAAEAV01@AEBV01@@Z
       3256  CB7 00005850 ??4Time@juce@@QEAAAEAV01@AEBV01@@Z
       3257  CB8 0000B870 ??4TimeSignature@AudioPlayHead@juce@@QEAAAEAU012@$$QEAU012@@Z
       3258  CB9 00005850 ??4TimeSignature@AudioPlayHead@juce@@QEAAAEAU012@AEBU012@@Z
       3259  CBA 00006DE0 ??4TimeSliceClient@juce@@QEAAAEAV01@AEBV01@@Z
       3260  CBB 00004FF0 ??4ToolbarItemFactory@juce@@QEAAAEAV01@AEBV01@@Z
       3261  CBC 00004FF0 ??4TooltipClient@juce@@QEAAAEAV01@AEBV01@@Z
       3262  CBD 00007990 ??4URL@juce@@QEAAAEAV01@$$QEAV01@@Z
       3263  CBE 00007800 ??4URL@juce@@QEAAAEAV01@AEBV01@@Z
       3264  CBF 00004FF0 ??4UndoableAction@juce@@QEAAAEAV01@AEBV01@@Z
       3265  CC0 002FAE70 ??4Uuid@juce@@QEAAAEAV01@AEBV01@@Z
       3266  CC1 002FA780 ??4Uuid@juce@@QEAAAEAV01@AEBVString@1@@Z
       3267  CC2 002FA740 ??4Uuid@juce@@QEAAAEAV01@PEBE@Z
       3268  CC3 00402020 ??4VBlankAttachment@juce@@QEAAAEAV01@$$QEAV01@@Z
       3269  CC4 00004FF0 ??4VBlankListener@ComponentPeer@juce@@QEAAAEAU012@AEBU012@@Z
       3270  CC5 00326320 ??4Value@juce@@QEAAAEAV01@$$QEAV01@@Z
       3271  CC6 00327250 ??4Value@juce@@QEAAAEAV01@AEBVvar@1@@Z
       3272  CC7 00326C30 ??4ValueTree@juce@@QEAAAEAV01@AEBV01@@Z
       3273  CC8 000732C0 ??4ValueTreePropertyWithDefault@juce@@QEAAAEAV01@AEBV01@@Z
       3274  CC9 00072A50 ??4ValueTreePropertyWithDefault@juce@@QEAAAEAV01@AEBVvar@1@@Z
       3275  CCA 00020220 ??4WebControlParameterIndexReceiver@juce@@QEAAAEAV01@$$QEAV01@@Z
       3276  CCB 00020220 ??4WebControlParameterIndexReceiver@juce@@QEAAAEAV01@AEBV01@@Z
       3277  CCC 00004FF0 ??4WebViewLifetimeListener@juce@@QEAAAEAV01@AEBV01@@Z
       3278  CCD 00319E20 ??4Whirlpool@juce@@QEAAAEAV01@AEBV01@@Z
       3279  CCE 00006980 ??4WildcardFileFilter@juce@@QEAAAEAV01@AEBV01@@Z
       3280  CCF 002D5E30 ??4XmlElement@juce@@QEAAAEAV01@$$QEAV01@@Z
       3281  CD0 002D5F00 ??4XmlElement@juce@@QEAAAEAV01@AEBV01@@Z
       3282  CD1 00004FF0 ??4this_will_fail_to_link_if_some_of_your_compile_units_are_built_in_release_mode@juce@@QEAAAEAU01@$$QEAU01@@Z
       3283  CD2 00004FF0 ??4this_will_fail_to_link_if_some_of_your_compile_units_are_built_in_release_mode@juce@@QEAAAEAU01@AEBU01@@Z
       3284  CD3 0030DD50 ??4var@juce@@QEAAAEAV01@$$QEAV01@@Z
       3285  CD4 002DD920 ??4var@juce@@QEAAAEAV01@$$QEAVString@1@@Z
       3286  CD5 0030DD00 ??4var@juce@@QEAAAEAV01@AEBV01@@Z
       3287  CD6 002DDBE0 ??4var@juce@@QEAAAEAV01@AEBV?$Array@Vvar@juce@@VDummyCriticalSection@2@$0A@@1@@Z
       3288  CD7 002DDCB0 ??4var@juce@@QEAAAEAV01@AEBVMemoryBlock@1@@Z
       3289  CD8 002DDD50 ??4var@juce@@QEAAAEAV01@AEBVString@1@@Z
       3290  CD9 002DDF40 ??4var@juce@@QEAAAEAV01@H@Z
       3291  CDA 002DDE50 ??4var@juce@@QEAAAEAV01@N@Z
       3292  CDB 002DDB40 ??4var@juce@@QEAAAEAV01@PEAVReferenceCountedObject@1@@Z
       3293  CDC 002DDE00 ??4var@juce@@QEAAAEAV01@PEBD@Z
       3294  CDD 002DDDB0 ??4var@juce@@QEAAAEAV01@PEB_W@Z
       3295  CDE 002DD9F0 ??4var@juce@@QEAAAEAV01@V?$function@$$A6A?AVvar@juce@@AEBUNativeFunctionArgs@12@@Z@std@@@Z
       3296  CDF 002DDEF0 ??4var@juce@@QEAAAEAV01@_J@Z
       3297  CE0 002DDEA0 ??4var@juce@@QEAAAEAV01@_N@Z
       3298  CE1 00300040 ??5BigInteger@juce@@QEBA?AV01@H@Z
       3299  CE2 003000E0 ??6BigInteger@juce@@QEBA?AV01@H@Z
       3300  CE3 002E7820 ??6juce@@YAAEAVOutputStream@0@AEAV10@AEAVInputStream@0@@Z
       3301  CE4 002E7850 ??6juce@@YAAEAVOutputStream@0@AEAV10@AEBVFile@0@@Z
       3302  CE5 00310B30 ??6juce@@YAAEAVOutputStream@0@AEAV10@AEBVMemoryBlock@0@@Z
       3303  CE6 002E77E0 ??6juce@@YAAEAVOutputStream@0@AEAV10@AEBVNewLine@0@@Z
       3304  CE7 00310AC0 ??6juce@@YAAEAVOutputStream@0@AEAV10@AEBVString@0@@Z
       3305  CE8 002E7940 ??6juce@@YAAEAVOutputStream@0@AEAV10@D@Z
       3306  CE9 002E7A40 ??6juce@@YAAEAVOutputStream@0@AEAV10@H@Z
       3307  CEA 002E7960 ??6juce@@YAAEAVOutputStream@0@AEAV10@N@Z
       3308  CEB 00310B00 ??6juce@@YAAEAVOutputStream@0@AEAV10@PEBD@Z
       3309  CEC 002EBC30 ??6juce@@YAAEAVOutputStream@0@AEAV10@VStringRef@0@@Z
       3310  CED 002E79E0 ??6juce@@YAAEAVOutputStream@0@AEAV10@_J@Z
       3311  CEE 00312B10 ??6juce@@YAAEAVString@0@AEAV10@AEBV10@@Z
       3312  CEF 002EC0D0 ??6juce@@YAAEAVString@0@AEAV10@AEBV?$basic_string@DU?$char_traits@D@std@@V?$allocator@D@2@@std@@@Z
       3313  CF0 003155C0 ??6juce@@YAAEAVString@0@AEAV10@D@Z
       3314  CF1 002EC070 ??6juce@@YAAEAVString@0@AEAV10@E@Z
       3315  CF2 002EC010 ??6juce@@YAAEAVString@0@AEAV10@F@Z
       3316  CF3 00315610 ??6juce@@YAAEAVString@0@AEAV10@H@Z
       3317  CF4 002EC1C0 ??6juce@@YAAEAVString@0@AEAV10@I@Z
       3318  CF5 002EBF80 ??6juce@@YAAEAVString@0@AEAV10@J@Z
       3319  CF6 002EBEB0 ??6juce@@YAAEAVString@0@AEAV10@K@Z
       3320  CF7 002EBCE0 ??6juce@@YAAEAVString@0@AEAV10@M@Z
       3321  CF8 002EBC70 ??6juce@@YAAEAVString@0@AEAV10@N@Z
       3322  CF9 00310A80 ??6juce@@YAAEAVString@0@AEAV10@PEBD@Z
       3323  CFA 002EC180 ??6juce@@YAAEAVString@0@AEAV10@PEB_W@Z
       3324  CFB 002EC120 ??6juce@@YAAEAVString@0@AEAV10@VStringRef@0@@Z
       3325  CFC 002EBE20 ??6juce@@YAAEAVString@0@AEAV10@_J@Z
       3326  CFD 002EBD50 ??6juce@@YAAEAVString@0@AEAV10@_K@Z
       3327  CFE 002EC190 ??6juce@@YAAEAVString@0@AEAV10@_W@Z
       3328  CFF 002FB040 ??7Result@juce@@QEBA_NXZ
       3329  D00 003A0890 ??8AffineTransform@juce@@QEBA_NAEBV01@@Z
       3330  D01 002313C0 ??8AudioChannelSet@juce@@QEBA_NAEBV01@@Z
       3331  D02 0023ECE0 ??8AudioDeviceSetup@AudioDeviceManager@juce@@QEBA_NAEBU012@@Z
       3332  D03 003158C0 ??8BigInteger@juce@@QEBA_NAEBV01@@Z
       3333  D04 003A3090 ??8Colour@juce@@QEBA_NAEBV01@@Z
       3334  D05 003A1980 ??8ColourGradient@juce@@QEBA_NAEBV01@@Z
       3335  D06 002A5290 ??8Connection@AudioProcessorGraph@juce@@QEBA_NAEBU012@@Z
       3336  D07 0000B440 ??8CurrentPositionInfo@AudioPlayHead@juce@@QEBA_NAEBU012@@Z
       3337  D08 0030D680 ??8File@juce@@QEBA_NAEBV01@@Z
       3338  D09 003A0D60 ??8FillType@juce@@QEBA_NAEBV01@@Z
       3339  D0A 00352B20 ??8Font@juce@@QEBA_NAEBV01@@Z
       3340  D0B 00353840 ??8FontOptions@juce@@QEBA_NAEBV01@@Z
       3341  D0C 0000B230 ??8FrameRate@AudioPlayHead@juce@@QEBA_NAEBV012@@Z
       3342  D0D 002F2B70 ??8IPAddress@juce@@QEBA_NAEBV01@@Z
       3343  D0E 00005C50 ??8Identifier@juce@@QEBA_NAEBV01@@Z
       3344  D0F 00005810 ??8Identifier@juce@@QEBA_NVStringRef@1@@Z
       3345  D10 00005C50 ??8Image@juce@@QEBA_NAEBV01@@Z
       3346  D11 004B1580 ??8KeyPress@juce@@QEBA_NAEBV01@@Z
       3347  D12 0047DA10 ??8KeyPress@juce@@QEBA_NH@Z
       3348  D13 0000B400 ??8LoopPoints@AudioPlayHead@juce@@QEBA_NAEBU012@@Z
       3349  D14 002F8CF0 ??8MACAddress@juce@@QEBA_NAEBV01@@Z
       3350  D15 0031A3F0 ??8MD5@juce@@QEBA_NAEBV01@@Z
       3351  D16 002228C0 ??8MPENote@juce@@QEBA_NAEBU01@@Z
       3352  D17 002229F0 ??8MPEValue@juce@@QEBA_NAEBV01@@Z
       3353  D18 0000A060 ??8MPEZoneLayout@juce@@QEBA_NAEBV01@@Z
       3354  D19 004365D0 ??8Marker@MarkerList@juce@@QEBA_NAEBV012@@Z
       3355  D1A 00436C30 ??8MarkerList@juce@@QEBA_NAEBV01@@Z
       3356  D1B 002FBEF0 ??8MemoryBlock@juce@@QEBA_NAEBV01@@Z
       3357  D1C 00005C50 ??8MidiBufferIterator@juce@@QEBA_NAEBV01@@Z
       3358  D1D 00073D80 ??8ModifierKeys@juce@@QEBA_NV01@@Z
       3359  D1E 004A54F0 ??8MouseCursor@juce@@QEBA_NAEBV01@@Z
       3360  D1F 004A54C0 ??8MouseCursor@juce@@QEBA_NW4StandardCursorType@01@@Z
       3361  D20 00005C50 ??8MouseInputSource@juce@@QEBA_NAEBV01@@Z
       3362  D21 0030C380 ??8NamedValue@NamedValueSet@juce@@QEBA_NAEBU012@@Z
       3363  D22 0030C060 ??8NamedValueSet@juce@@QEBA_NAEBV01@@Z
       3364  D23 004DA0F0 ??8OpenGLPixelFormat@juce@@QEBA_NAEBV01@@Z
       3365  D24 0039F1F0 ??8Path@juce@@QEBA_NAEBV01@@Z
       3366  D25 00399CB0 ??8PathStrokeType@juce@@QEBA_NAEBV01@@Z
       3367  D26 004D3F90 ??8Position@CodeDocument@juce@@QEBA_NAEBV012@@Z
       3368  D27 0031B860 ??8RSAKey@juce@@QEBA_NAEBV01@@Z
       3369  D28 00397B90 ??8RectanglePlacement@juce@@QEBA_NAEBV01@@Z
       3370  D29 00436090 ??8RelativeCoordinate@juce@@QEBA_NAEBV01@@Z
       3371  D2A 00434A30 ??8RelativeParallelogram@juce@@QEBA_NAEBV01@@Z
       3372  D2B 00434040 ??8RelativePoint@juce@@QEBA_NAEBV01@@Z
       3373  D2C 00433650 ??8RelativePointPath@juce@@QEBA_NAEBV01@@Z
       3374  D2D 00431E50 ??8RelativeRectangle@juce@@QEBA_NAEBV01@@Z
       3375  D2E 002FB190 ??8Result@juce@@QEBA_NAEBV01@@Z
       3376  D2F 00319ED0 ??8SHA256@juce@@QEBA_NAEBV01@@Z
       3377  D30 00314CA0 ??8StringArray@juce@@QEBA_NAEBV01@@Z
       3378  D31 002E6D60 ??8StringPairArray@juce@@QEBA_NAEBV01@@Z
       3379  D32 00005750 ??8StringRef@juce@@QEBA_NAEBVString@1@@Z
       3380  D33 00005810 ??8StringRef@juce@@QEBA_NV01@@Z
       3381  D34 0000B3C0 ??8TimeSignature@AudioPlayHead@juce@@QEBA_NAEBU012@@Z
       3382  D35 002C3C20 ??8URL@juce@@QEBA_NAEBV01@@Z
       3383  D36 002FAE50 ??8Uuid@juce@@QEBA_NAEBV01@@Z
       3384  D37 00326180 ??8Value@juce@@QEBA_NAEBV01@@Z
       3385  D38 00326BA0 ??8ValueTree@juce@@QEBA_NAEBV01@@Z
       3386  D39 00319A00 ??8Whirlpool@juce@@QEBA_NAEBV01@@Z
       3387  D3A 00313D70 ??8juce@@YA_NAEBVString@0@0@Z
       3388  D3B 00316B40 ??8juce@@YA_NAEBVString@0@PEBD@Z
       3389  D3C 002ED7E0 ??8juce@@YA_NAEBVString@0@PEB_W@Z
       3390  D3D 002ED750 ??8juce@@YA_NAEBVString@0@VCharPointer_UTF16@0@@Z
       3391  D3E 002ED6F0 ??8juce@@YA_NAEBVString@0@VCharPointer_UTF32@0@@Z
       3392  D3F 002ED7A0 ??8juce@@YA_NAEBVString@0@VCharPointer_UTF8@0@@Z
       3393  D40 00316B60 ??8juce@@YA_NAEBVString@0@VStringRef@0@@Z
       3394  D41 002DD780 ??8juce@@YA_NAEBVvar@0@0@Z
       3395  D42 002DD5D0 ??8juce@@YA_NAEBVvar@0@AEBVString@0@@Z
       3396  D43 002DD4E0 ??8juce@@YA_NAEBVvar@0@PEBD@Z
       3397  D44 002E2940 ??8juce@@YA_NVRelativeTime@0@0@Z
       3398  D45 002DFD30 ??8juce@@YA_NVTime@0@0@Z
       3399  D46 003A0830 ??9AffineTransform@juce@@QEBA_NAEBV01@@Z
       3400  D47 002313A0 ??9AudioChannelSet@juce@@QEBA_NAEBV01@@Z
       3401  D48 0023EC30 ??9AudioDeviceSetup@AudioDeviceManager@juce@@QEBA_NAEBU012@@Z
       3402  D49 003158A0 ??9BigInteger@juce@@QEBA_NAEBV01@@Z
       3403  D4A 003A3080 ??9Colour@juce@@QEBA_NAEBV01@@Z
       3404  D4B 003A1920 ??9ColourGradient@juce@@QEBA_NAEBV01@@Z
       3405  D4C 002A5260 ??9Connection@AudioProcessorGraph@juce@@QEBA_NAEBU012@@Z
       3406  D4D 0000B500 ??9CurrentPositionInfo@AudioPlayHead@juce@@QEBA_NAEBU012@@Z
       3407  D4E 003085A0 ??9File@juce@@QEBA_NAEBV01@@Z
       3408  D4F 003A0D40 ??9FillType@juce@@QEBA_NAEBV01@@Z
       3409  D50 00352AE0 ??9Font@juce@@QEBA_NAEBV01@@Z
       3410  D51 00353650 ??9FontOptions@juce@@QEBA_NAEBV01@@Z
       3411  D52 0000B250 ??9FrameRate@AudioPlayHead@juce@@QEBA_NAEBV012@@Z
       3412  D53 002F2B50 ??9IPAddress@juce@@QEBA_NAEBV01@@Z
       3413  D54 00005C60 ??9Identifier@juce@@QEBA_NAEBV01@@Z
       3414  D55 00005830 ??9Identifier@juce@@QEBA_NVStringRef@1@@Z
       3415  D56 00005C60 ??9Image@juce@@QEBA_NAEBV01@@Z
       3416  D57 0047D9F0 ??9KeyPress@juce@@QEBA_NAEBV01@@Z
       3417  D58 0047D9D0 ??9KeyPress@juce@@QEBA_NH@Z
       3418  D59 0000B420 ??9LoopPoints@AudioPlayHead@juce@@QEBA_NAEBU012@@Z
       3419  D5A 002F8CC0 ??9MACAddress@juce@@QEBA_NAEBV01@@Z
       3420  D5B 0031A3D0 ??9MD5@juce@@QEBA_NAEBV01@@Z
       3421  D5C 002228B0 ??9MPENote@juce@@QEBA_NAEBU01@@Z
       3422  D5D 002229E0 ??9MPEValue@juce@@QEBA_NAEBV01@@Z
       3423  D5E 0000A0B0 ??9MPEZoneLayout@juce@@QEBA_NAEBV01@@Z
       3424  D5F 00436570 ??9Marker@MarkerList@juce@@QEBA_NAEBV012@@Z
       3425  D60 00436C10 ??9MarkerList@juce@@QEBA_NAEBV01@@Z
       3426  D61 002FBEC0 ??9MemoryBlock@juce@@QEBA_NAEBV01@@Z
       3427  D62 00005C60 ??9MidiBufferIterator@juce@@QEBA_NAEBV01@@Z
       3428  D63 00073D90 ??9ModifierKeys@juce@@QEBA_NV01@@Z
       3429  D64 004A5490 ??9MouseCursor@juce@@QEBA_NAEBV01@@Z
       3430  D65 004A5460 ??9MouseCursor@juce@@QEBA_NW4StandardCursorType@01@@Z
       3431  D66 00005C60 ??9MouseInputSource@juce@@QEBA_NAEBV01@@Z
       3432  D67 0030C340 ??9NamedValue@NamedValueSet@juce@@QEBA_NAEBU012@@Z
       3433  D68 0030C040 ??9NamedValueSet@juce@@QEBA_NAEBV01@@Z
       3434  D69 004DA080 ??9OpenGLPixelFormat@juce@@QEBA_NAEBV01@@Z
       3435  D6A 0039F1A0 ??9Path@juce@@QEBA_NAEBV01@@Z
       3436  D6B 00399C60 ??9PathStrokeType@juce@@QEBA_NAEBV01@@Z
       3437  D6C 004D3F60 ??9Position@CodeDocument@juce@@QEBA_NAEBV012@@Z
       3438  D6D 0031B810 ??9RSAKey@juce@@QEBA_NAEBV01@@Z
       3439  D6E 00397B80 ??9RectanglePlacement@juce@@QEBA_NAEBV01@@Z
       3440  D6F 00436070 ??9RelativeCoordinate@juce@@QEBA_NAEBV01@@Z
       3441  D70 00434A10 ??9RelativeParallelogram@juce@@QEBA_NAEBV01@@Z
       3442  D71 00433FF0 ??9RelativePoint@juce@@QEBA_NAEBV01@@Z
       3443  D72 00433630 ??9RelativePointPath@juce@@QEBA_NAEBV01@@Z
       3444  D73 00431E30 ??9RelativeRectangle@juce@@QEBA_NAEBV01@@Z
       3445  D74 002FB150 ??9Result@juce@@QEBA_NAEBV01@@Z
       3446  D75 00319EB0 ??9SHA256@juce@@QEBA_NAEBV01@@Z
       3447  D76 002E76B0 ??9StringArray@juce@@QEBA_NAEBV01@@Z
       3448  D77 002E6D40 ??9StringPairArray@juce@@QEBA_NAEBV01@@Z
       3449  D78 00005770 ??9StringRef@juce@@QEBA_NAEBVString@1@@Z
       3450  D79 00005830 ??9StringRef@juce@@QEBA_NV01@@Z
       3451  D7A 0000B3E0 ??9TimeSignature@AudioPlayHead@juce@@QEBA_NAEBU012@@Z
       3452  D7B 002C3C00 ??9URL@juce@@QEBA_NAEBV01@@Z
       3453  D7C 002FAE30 ??9Uuid@juce@@QEBA_NAEBV01@@Z
       3454  D7D 003260B0 ??9Value@juce@@QEBA_NAEBV01@@Z
       3455  D7E 00325C50 ??9ValueTree@juce@@QEBA_NAEBV01@@Z
       3456  D7F 003199E0 ??9Whirlpool@juce@@QEBA_NAEBV01@@Z
       3457  D80 00313DB0 ??9juce@@YA_NAEBVString@0@0@Z
       3458  D81 002ED800 ??9juce@@YA_NAEBVString@0@PEBD@Z
       3459  D82 002ED7C0 ??9juce@@YA_NAEBVString@0@PEB_W@Z
       3460  D83 002ED720 ??9juce@@YA_NAEBVString@0@VCharPointer_UTF16@0@@Z
       3461  D84 002ED6C0 ??9juce@@YA_NAEBVString@0@VCharPointer_UTF32@0@@Z
       3462  D85 002ED780 ??9juce@@YA_NAEBVString@0@VCharPointer_UTF8@0@@Z
       3463  D86 003172E0 ??9juce@@YA_NAEBVString@0@VStringRef@0@@Z
       3464  D87 002DD750 ??9juce@@YA_NAEBVvar@0@0@Z
       3465  D88 002DD550 ??9juce@@YA_NAEBVvar@0@AEBVString@0@@Z
       3466  D89 002DD470 ??9juce@@YA_NAEBVvar@0@PEBD@Z
       3467  D8A 002E2920 ??9juce@@YA_NVRelativeTime@0@0@Z
       3468  D8B 002DFD20 ??9juce@@YA_NVTime@0@0@Z
       3469  D8C 00315D30 ??ABigInteger@juce@@QEBA_NH@Z
       3470  D8D 00303990 ??AFileSearchPath@juce@@QEBA?AVFile@1@H@Z
       3471  D8E 0030BF60 ??ANamedValueSet@juce@@QEBAAEBVvar@1@AEBVIdentifier@1@@Z
       3472  D8F 003185D0 ??AString@juce@@QEBAIH@Z
       3473  D90 00319520 ??AStringArray@juce@@QEBAAEBVString@1@H@Z
       3474  D91 003113B0 ??AStringPairArray@juce@@QEBAAEBVString@1@VStringRef@1@@Z
       3475  D92 00005740 ??AStringRef@juce@@QEBAIH@Z
       3476  D93 003268D0 ??AValueTree@juce@@QEBAAEBVvar@1@AEBVIdentifier@1@@Z
       3477  D94 002DCA70 ??Avar@juce@@QEAAAEAV01@H@Z
       3478  D95 002DD3B0 ??Avar@juce@@QEBAAEBV01@AEBVIdentifier@1@@Z
       3479  D96 002DCAA0 ??Avar@juce@@QEBAAEBV01@H@Z
       3480  D97 002DD2F0 ??Avar@juce@@QEBAAEBV01@PEBD@Z
       3481  D98 0007F020 ??BAudioParameterBool@juce@@QEBA_NXZ
       3482  D99 0007F760 ??BAudioParameterChoice@juce@@QEBA?AVString@1@XZ
       3483  D9A 0007F730 ??BAudioParameterChoice@juce@@QEBAHXZ
       3484  D9B 0007DF50 ??BAudioParameterFloat@juce@@QEBAMXZ
       3485  D9C 0007E8B0 ??BAudioParameterInt@juce@@QEBAHXZ
       3486  D9D 000056B0 ??BIdentifier@juce@@QEBA?AVCharPointer_UTF8@1@XZ
       3487  D9E 000056B0 ??BIdentifier@juce@@QEBA?AVStringRef@1@XZ
       3488  D9F 00005BC0 ??BNewLine@juce@@QEBA?AVString@1@XZ
       3489  DA0 00005BF0 ??BNewLine@juce@@QEBA?AVStringRef@1@XZ
       3490  DA1 0001FA70 ??BOptionalBorderSize@ComponentPeer@juce@@QEBA_NXZ
       3491  DA2 002FB050 ??BResult@juce@@QEBA_NXZ
       3492  DA3 00004FE0 ??BString@juce@@AEBA_NXZ
       3493  DA4 000056B0 ??BStringRef@juce@@QEBA?AVCharPointer_UTF8@1@XZ
       3494  DA5 000056F0 ??BStringRef@juce@@QEBAPEBDXZ
       3495  DA6 00327280 ??BValue@juce@@QEBA?AVvar@1@XZ
       3496  DA7 002DE040 ??Bvar@juce@@QEBA?AVString@1@XZ
       3497  DA8 0030DCE0 ??Bvar@juce@@QEBAHXZ
       3498  DA9 0030DCA0 ??Bvar@juce@@QEBAMXZ
       3499  DAA 002DE070 ??Bvar@juce@@QEBANXZ
       3500  DAB 002DE090 ??Bvar@juce@@QEBA_JXZ
       3501  DAC 0030DCC0 ??Bvar@juce@@QEBA_NXZ
       3502  DAD 00009990 ??COptionalBorderSize@ComponentPeer@juce@@QEBA@XZ
       3503  DAE 00300410 ??DBigInteger@juce@@QEBA?AV01@AEBV01@@Z
       3504  DAF 002FCF80 ??DExpression@juce@@QEBA?AV01@AEBV01@@Z
       3505  DB0 0022A480 ??DMidiBufferIterator@juce@@QEBA?AUMidiMessageMetadata@1@XZ
       3506  DB1 00009990 ??DOptionalBorderSize@ComponentPeer@juce@@QEBA@XZ
       3507  DB2 003006E0 ??EBigInteger@juce@@QEAA?AV01@H@Z
       3508  DB3 00300860 ??EBigInteger@juce@@QEAAAEAV01@XZ
       3509  DB4 0022A4B0 ??EMidiBufferIterator@juce@@QEAA?AV01@H@Z
       3510  DB5 0022A4D0 ??EMidiBufferIterator@juce@@QEAAAEAV01@XZ
       3511  DB6 00300600 ??FBigInteger@juce@@QEAA?AV01@H@Z
       3512  DB7 003007C0 ??FBigInteger@juce@@QEAAAEAV01@XZ
       3513  DB8 00300490 ??GBigInteger@juce@@QEBA?AV01@AEBV01@@Z
       3514  DB9 00300590 ??GBigInteger@juce@@QEBA?AV01@XZ
       3515  DBA 002FD010 ??GExpression@juce@@QEBA?AV01@AEBV01@@Z
       3516  DBB 002FCEA0 ??GExpression@juce@@QEBA?AV01@XZ
       3517  DBC 002E2960 ??Gjuce@@YA?AVRelativeTime@0@V10@0@Z
       3518  DBD 002DFD40 ??Gjuce@@YA?AVRelativeTime@0@VTime@0@0@Z
       3519  DBE 002DFDA0 ??Gjuce@@YA?AVTime@0@V10@VRelativeTime@0@@Z
       3520  DBF 00300510 ??HBigInteger@juce@@QEBA?AV01@AEBV01@@Z
       3521  DC0 002FD0A0 ??HExpression@juce@@QEBA?AV01@AEBV01@@Z
       3522  DC1 002E2980 ??Hjuce@@YA?AVRelativeTime@0@V10@0@Z
       3523  DC2 002EC510 ??Hjuce@@YA?AVString@0@DAEBV10@@Z
       3524  DC3 002EC240 ??Hjuce@@YA?AVString@0@IAEBV10@@Z
       3525  DC4 003160B0 ??Hjuce@@YA?AVString@0@PEBDAEBV10@@Z
       3526  DC5 002EC560 ??Hjuce@@YA?AVString@0@PEB_WAEBV10@@Z
       3527  DC6 00316130 ??Hjuce@@YA?AVString@0@V10@AEBV10@@Z
       3528  DC7 002EC3B0 ??Hjuce@@YA?AVString@0@V10@AEBV?$basic_string@DU?$char_traits@D@std@@V?$allocator@D@2@@std@@@Z
       3529  DC8 002EC310 ??Hjuce@@YA?AVString@0@V10@D@Z
       3530  DC9 002EC1D0 ??Hjuce@@YA?AVString@0@V10@I@Z
       3531  DCA 003161A0 ??Hjuce@@YA?AVString@0@V10@PEBD@Z
       3532  DCB 002EC450 ??Hjuce@@YA?AVString@0@V10@PEB_W@Z
       3533  DCC 002EC290 ??Hjuce@@YA?AVString@0@V10@_W@Z
       3534  DCD 002EC4C0 ??Hjuce@@YA?AVString@0@_WAEBV10@@Z
       3535  DCE 002DFDD0 ??Hjuce@@YA?AVTime@0@V10@VRelativeTime@0@@Z
       3536  DCF 002DFD70 ??Hjuce@@YA?AVTime@0@VRelativeTime@0@V10@@Z
       3537  DD0 00300270 ??IBigInteger@juce@@QEBA?AV01@AEBV01@@Z
       3538  DD1 00300350 ??KBigInteger@juce@@QEBA?AV01@AEBV01@@Z
       3539  DD2 002FCEF0 ??KExpression@juce@@QEBA?AV01@AEBV01@@Z
       3540  DD3 00300180 ??LBigInteger@juce@@QEBA?AV01@AEBV01@@Z
       3541  DD4 00231380 ??MAudioChannelSet@juce@@QEBA_NAEBV01@@Z
       3542  DD5 00315880 ??MBigInteger@juce@@QEBA_NAEBV01@@Z
       3543  DD6 003A18C0 ??MColourGradient@juce@@QEBA_NAEBV01@@Z
       3544  DD7 002A5230 ??MConnection@AudioProcessorGraph@juce@@QEBA_NAEBU012@@Z
       3545  DD8 003151B0 ??MFile@juce@@QEBA_NAEBV01@@Z
       3546  DD9 00353460 ??MFontOptions@juce@@QEBA_NAEBV01@@Z
       3547  DDA 002F2B30 ??MIPAddress@juce@@QEBA_NAEBV01@@Z
       3548  DDB 00005C70 ??MIdentifier@juce@@QEBA_NVStringRef@1@@Z
       3549  DDC 00005790 ??MStringRef@juce@@QEBA_NAEBVString@1@@Z
       3550  DDD 002FADC0 ??MUuid@juce@@QEBA_NAEBV01@@Z
       3551  DDE 00315550 ??Mjuce@@YA_NAEBVString@0@VStringRef@0@@Z
       3552  DDF 002DD710 ??Mjuce@@YA_NAEBVvar@0@0@Z
       3553  DE0 002E28E0 ??Mjuce@@YA_NVRelativeTime@0@0@Z
       3554  DE1 0030DBC0 ??Mjuce@@YA_NVTime@0@0@Z
       3555  DE2 002FFDA0 ??NBigInteger@juce@@QEBA_NAEBV01@@Z
       3556  DE3 003A1860 ??NColourGradient@juce@@QEBA_NAEBV01@@Z
       3557  DE4 00353270 ??NFontOptions@juce@@QEBA_NAEBV01@@Z
       3558  DE5 002F2B10 ??NIPAddress@juce@@QEBA_NAEBV01@@Z
       3559  DE6 00005C90 ??NIdentifier@juce@@QEBA_NVStringRef@1@@Z
       3560  DE7 000057B0 ??NStringRef@juce@@QEBA_NAEBVString@1@@Z
       3561  DE8 002FACE0 ??NUuid@juce@@QEBA_NAEBV01@@Z
       3562  DE9 00316420 ??Njuce@@YA_NAEBVString@0@VStringRef@0@@Z
       3563  DEA 002DD690 ??Njuce@@YA_NAEBVvar@0@0@Z
       3564  DEB 002E28A0 ??Njuce@@YA_NVRelativeTime@0@0@Z
       3565  DEC 002DFD00 ??Njuce@@YA_NVTime@0@0@Z
       3566  DED 002FFD80 ??OBigInteger@juce@@QEBA_NAEBV01@@Z
       3567  DEE 003A1800 ??OColourGradient@juce@@QEBA_NAEBV01@@Z
       3568  DEF 00308570 ??OFile@juce@@QEBA_NAEBV01@@Z
       3569  DF0 00353080 ??OFontOptions@juce@@QEBA_NAEBV01@@Z
       3570  DF1 002F2AF0 ??OIPAddress@juce@@QEBA_NAEBV01@@Z
       3571  DF2 00005CB0 ??OIdentifier@juce@@QEBA_NVStringRef@1@@Z
       3572  DF3 000057D0 ??OStringRef@juce@@QEBA_NAEBVString@1@@Z
       3573  DF4 002FAD50 ??OUuid@juce@@QEBA_NAEBV01@@Z
       3574  DF5 00316790 ??Ojuce@@YA_NAEBVString@0@VStringRef@0@@Z
       3575  DF6 002DD6D0 ??Ojuce@@YA_NAEBVvar@0@0@Z
       3576  DF7 002E2900 ??Ojuce@@YA_NVRelativeTime@0@0@Z
       3577  DF8 002DFD10 ??Ojuce@@YA_NVTime@0@0@Z
       3578  DF9 002FFD60 ??PBigInteger@juce@@QEBA_NAEBV01@@Z
       3579  DFA 003A17A0 ??PColourGradient@juce@@QEBA_NAEBV01@@Z
       3580  DFB 00352E90 ??PFontOptions@juce@@QEBA_NAEBV01@@Z
       3581  DFC 002F2AD0 ??PIPAddress@juce@@QEBA_NAEBV01@@Z
       3582  DFD 00005CD0 ??PIdentifier@juce@@QEBA_NVStringRef@1@@Z
       3583  DFE 000057F0 ??PStringRef@juce@@QEBA_NAEBVString@1@@Z
       3584  DFF 002FAC70 ??PUuid@juce@@QEBA_NAEBV01@@Z
       3585  E00 00316D30 ??Pjuce@@YA_NAEBVString@0@VStringRef@0@@Z
       3586  E01 002DD650 ??Pjuce@@YA_NAEBVvar@0@0@Z
       3587  E02 002E28C0 ??Pjuce@@YA_NVRelativeTime@0@0@Z
       3588  E03 002DFCF0 ??Pjuce@@YA_NVTime@0@0@Z
       3589  E04 00300200 ??TBigInteger@juce@@QEBA?AV01@AEBV01@@Z
       3590  E05 003002E0 ??UBigInteger@juce@@QEBA?AV01@AEBV01@@Z
       3591  E06 00300FD0 ??XBigInteger@juce@@QEAAAEAV01@AEBV01@@Z
       3592  E07 00301740 ??YBigInteger@juce@@QEAAAEAV01@AEBV01@@Z
       3593  E08 002E29C0 ??YRelativeTime@juce@@QEAA?AV01@N@Z
       3594  E09 002E2A00 ??YRelativeTime@juce@@QEAA?AV01@V01@@Z
       3595  E0A 002EC910 ??YString@juce@@QEAAAEAV01@AEBV01@@Z
       3596  E0B 002EC860 ??YString@juce@@QEAAAEAV01@D@Z
       3597  E0C 002EC710 ??YString@juce@@QEAAAEAV01@H@Z
       3598  E0D 002EC760 ??YString@juce@@QEAAAEAV01@I@Z
       3599  E0E 002EC6C0 ??YString@juce@@QEAAAEAV01@J@Z
       3600  E0F 0030F650 ??YString@juce@@QEAAAEAV01@PEBD@Z
       3601  E10 002ECA10 ??YString@juce@@QEAAAEAV01@PEB_W@Z
       3602  E11 002EC8B0 ??YString@juce@@QEAAAEAV01@VStringRef@1@@Z
       3603  E12 002EC670 ??YString@juce@@QEAAAEAV01@_J@Z
       3604  E13 002EC5E0 ??YString@juce@@QEAAAEAV01@_K@Z
       3605  E14 002EC830 ??YString@juce@@QEAAAEAV01@_W@Z
       3606  E15 002DFE20 ??YTime@juce@@QEAAAEAV01@VRelativeTime@1@@Z
       3607  E16 00301380 ??ZBigInteger@juce@@QEAAAEAV01@AEBV01@@Z
       3608  E17 002E29A0 ??ZRelativeTime@juce@@QEAA?AV01@N@Z
       3609  E18 002E29E0 ??ZRelativeTime@juce@@QEAA?AV01@V01@@Z
       3610  E19 002DFE00 ??ZTime@juce@@QEAAAEAV01@VRelativeTime@1@@Z
       3611  E1A 00300C80 ??_0BigInteger@juce@@QEAAAEAV01@AEBV01@@Z
       3612  E1B 00300900 ??_1BigInteger@juce@@QEAAAEAV01@AEBV01@@Z
       3613  E1C 002FFFB0 ??_2BigInteger@juce@@QEAAAEAV01@H@Z
       3614  E1D 00300000 ??_3BigInteger@juce@@QEAAAEAV01@H@Z
       3615  E1E 003158E0 ??_4BigInteger@juce@@QEAAAEAV01@AEBV01@@Z
       3616  E1F 00300BA0 ??_5BigInteger@juce@@QEAAAEAV01@AEBV01@@Z
       3617  E20 003009E0 ??_6BigInteger@juce@@QEAAAEAV01@AEBV01@@Z
       3618  E21 005EB388 ??_7?$OptionsBuilder@VOptions@WebBrowserComponent@juce@@@@6B@
       3619  E22 005EA6D0 ??_7?$SliderListener@VSlider@juce@@@juce@@6B@
       3620  E23 005EA488 ??_7?$SliderListener@VWebSliderRelay@juce@@@juce@@6B@
       3621  E24 005E7670 ??_7?$StackBasedLowLevelGraphicsContext@VSoftwareRendererSavedState@RenderingHelpers@juce@@@RenderingHelpers@juce@@6B@
       3622  E25 005EC220 ??_7AAXClientExtensions@juce@@6B@
       3623  E26 005EC890 ??_7AccessibilityCellInterface@juce@@6B@
       3624  E27 00606458 ??_7AccessibilityHandler@juce@@6B@
       3625  E28 005EB3D8 ??_7AccessibilityNumericValueInterface@juce@@6B@
       3626  E29 005ECDF8 ??_7AccessibilityRangedNumericValueInterface@juce@@6B@
       3627  E2A 005ECD38 ??_7AccessibilityTableInterface@juce@@6B@
       3628  E2B 005EA748 ??_7AccessibilityTextInterface@juce@@6B@
       3629  E2C 005EC750 ??_7AccessibilityTextValueInterface@juce@@6B@
       3630  E2D 005E9230 ??_7AccessibilityValueInterface@juce@@6B@
       3631  E2E 005FD2C8 ??_7ActionBroadcaster@juce@@6B@
       3632  E2F 005E7E68 ??_7ActionListener@juce@@6B@
       3633  E30 00619BE0 ??_7ActiveXControlComponent@juce@@6B@
       3634  E31 005E8F70 ??_7AiffAudioFormat@juce@@6B@
       3635  E32 00609838 ??_7AlertWindow@juce@@6B@
       3636  E33 005E6D98 ??_7AndroidDocumentInputSource@juce@@6B@
       3637  E34 0061CCF0 ??_7AnimatedAppComponent@juce@@6BComponent@1@@
       3638  E35 00619850 ??_7AnimatedAppComponent@juce@@6BTimer@1@@
       3639  E36 00605908 ??_7ApplicationCommandManager@juce@@6BAsyncUpdater@1@@
       3640  E37 006122B0 ??_7ApplicationCommandManager@juce@@6BFocusChangeListener@1@@
       3641  E38 005EB808 ??_7ApplicationCommandManagerListener@juce@@6B@
       3642  E39 00614068 ??_7ApplicationCommandTarget@juce@@6B@
       3643  E3A 0060D1C8 ??_7ArrowButton@juce@@6BComponent@1@@
       3644  E3B 00606F50 ??_7ArrowButton@juce@@6BSettableTooltipClient@1@@
       3645  E3C 005FCE38 ??_7AsyncUpdater@juce@@6B@
       3646  E3D 005EF3E0 ??_7AudioAppComponent@juce@@6BAudioSource@1@@
       3647  E3E 005EF458 ??_7AudioAppComponent@juce@@6BComponent@1@@
       3648  E3F 005E7190 ??_7AudioDeviceManager@juce@@6B@
       3649  E40 005EE870 ??_7AudioDeviceSelectorComponent@juce@@6BChangeListener@1@@
       3650  E41 005EE4C8 ??_7AudioDeviceSelectorComponent@juce@@6BComponent@1@@
       3651  E42 005ED040 ??_7AudioDeviceSelectorComponentMethods@ExtraLookAndFeelBaseClasses@juce@@6B@
       3652  E43 005E8DF0 ??_7AudioFormat@juce@@6B@
       3653  E44 005E8AE0 ??_7AudioFormatReader@juce@@6B@
       3654  E45 005E8990 ??_7AudioFormatReaderSource@juce@@6B@
       3655  E46 005E8A50 ??_7AudioFormatWriter@juce@@6B@
       3656  E47 005ED070 ??_7AudioGraphIOProcessor@AudioProcessorGraph@juce@@6B@
       3657  E48 005E7AB0 ??_7AudioIODevice@juce@@6B@
       3658  E49 005E7CC8 ??_7AudioIODeviceCallback@juce@@6B@
       3659  E4A 005E7F90 ??_7AudioIODeviceType@juce@@6B@
       3660  E4B 005EC4E0 ??_7AudioParameterBool@juce@@6B@
       3661  E4C 005ECB20 ??_7AudioParameterChoice@juce@@6B@
       3662  E4D 005ED398 ??_7AudioParameterFloat@juce@@6B@
       3663  E4E 005EA4E8 ??_7AudioParameterInt@juce@@6B@
       3664  E4F 005E6708 ??_7AudioPlayHead@juce@@6B@
       3665  E50 005EC168 ??_7AudioPluginFormat@juce@@6B@
       3666  E51 005E9970 ??_7AudioPluginInstance@juce@@6B@
       3667  E52 005EB9B8 ??_7AudioProcessor@juce@@6B@
       3668  E53 005EA850 ??_7AudioProcessorEditor@juce@@6B@
       3669  E54 005EA168 ??_7AudioProcessorGraph@juce@@6BAudioProcessor@1@@
       3670  E55 005EB440 ??_7AudioProcessorGraph@juce@@6BChangeBroadcaster@1@@
       3671  E56 005E9738 ??_7AudioProcessorListener@juce@@6B@
       3672  E57 005E9100 ??_7AudioProcessorParameter@juce@@6B@
       3673  E58 005EB158 ??_7AudioProcessorParameterWithID@juce@@6B@
       3674  E59 005EE498 ??_7AudioProcessorPlayer@juce@@6BAudioIODeviceCallback@1@@
       3675  E5A 005EFB60 ??_7AudioProcessorPlayer@juce@@6BMidiInputCallback@1@@
       3676  E5B 005EAAE0 ??_7AudioProcessorValueTreeState@juce@@6BListener@ValueTree@1@@
       3677  E5C 005E9370 ??_7AudioProcessorValueTreeState@juce@@6BTimer@1@@
       3678  E5D 005E6F00 ??_7AudioSource@juce@@6B@
       3679  E5E 005E7ED8 ??_7AudioSourcePlayer@juce@@6B@
       3680  E5F 005E8FF0 ??_7AudioSubsectionReader@juce@@6B@
       3681  E60 005EE1F0 ??_7AudioThumbnail@juce@@6BChangeBroadcaster@1@@
       3682  E61 005EDF30 ??_7AudioThumbnail@juce@@6BIncomingDataReceiver@ThreadedWriter@AudioFormatWriter@1@@
       3683  E62 005EF670 ??_7AudioThumbnailBase@juce@@6BChangeBroadcaster@1@@
       3684  E63 005EEE48 ??_7AudioThumbnailBase@juce@@6BIncomingDataReceiver@ThreadedWriter@AudioFormatWriter@1@@
       3685  E64 005EDF10 ??_7AudioThumbnailCache@juce@@6B@
       3686  E65 005E81A8 ??_7AudioTransportSource@juce@@6BChangeBroadcaster@1@@
       3687  E66 005E7450 ??_7AudioTransportSource@juce@@6BPositionableAudioSource@1@@
       3688  E67 005EF118 ??_7AudioVisualiserComponent@juce@@6BComponent@1@@
       3689  E68 005EF398 ??_7AudioVisualiserComponent@juce@@6BTimer@1@@
       3690  E69 0060C6C0 ??_7BooleanPropertyComponent@juce@@6BComponent@1@@
       3691  E6A 00607590 ??_7BooleanPropertyComponent@juce@@6BSettableTooltipClient@1@@
       3692  E6B 005EBFB0 ??_7BorderedComponentBoundsConstrainer@juce@@6B@
       3693  E6C 0060B0C0 ??_7BubbleComponent@juce@@6B@
       3694  E6D 00619F58 ??_7BubbleMessageComponent@juce@@6BBubbleComponent@1@@
       3695  E6E 0061D0F0 ??_7BubbleMessageComponent@juce@@6BTimer@1@@
       3696  E6F 005F4510 ??_7BufferedInputStream@juce@@6B@
       3697  E70 005E8F30 ??_7BufferingAudioReader@juce@@6BAudioFormatReader@1@@
       3698  E71 005E9020 ??_7BufferingAudioReader@juce@@6BTimeSliceClient@1@@
       3699  E72 005E6D48 ??_7BufferingAudioSource@juce@@6BPositionableAudioSource@1@@
       3700  E73 005E6788 ??_7BufferingAudioSource@juce@@6BTimeSliceClient@1@@
       3701  E74 006065F8 ??_7Button@juce@@6BComponent@1@@
       3702  E75 00612770 ??_7Button@juce@@6BSettableTooltipClient@1@@
       3703  E76 0060D390 ??_7ButtonPropertyComponent@juce@@6BComponent@1@@
       3704  E77 00611668 ??_7ButtonPropertyComponent@juce@@6BSettableTooltipClient@1@@
       3705  E78 005E9670 ??_7CPlusPlusCodeTokeniser@juce@@6B@
       3706  E79 005E9FE8 ??_7CachedComponentImage@juce@@6B@
       3707  E7A 00616510 ??_7CallOutBox@juce@@6BComponent@1@@
       3708  E7B 006179F0 ??_7CallOutBox@juce@@6BTimer@1@@
       3709  E7C 005EB498 ??_7Callback@ModalComponentManager@juce@@6B@
       3710  E7D 005E7570 ??_7CallbackMessage@juce@@6B@
       3711  E7E 0060CBC8 ??_7CaretComponent@juce@@6BComponent@1@@
       3712  E7F 00602798 ??_7CaretComponent@juce@@6BTimer@1@@
       3713  E80 005FCEB0 ??_7ChangeBroadcaster@juce@@6B@
       3714  E81 005E7BB8 ??_7ChangeListener@juce@@6B@
       3715  E82 005FCFB8 ??_7ChildProcessCoordinator@juce@@6B@
       3716  E83 005E8198 ??_7ChildProcessManager@juce@@6B@
       3717  E84 005FD0A8 ??_7ChildProcessWorker@juce@@6B@
       3718  E85 006082B8 ??_7ChoicePropertyComponent@juce@@6BComponent@1@@
       3719  E86 00602608 ??_7ChoicePropertyComponent@juce@@6BSettableTooltipClient@1@@
       3720  E87 00613CC8 ??_7CloseSubPath@RelativePointPath@juce@@6B@
       3721  E88 0061A388 ??_7CodeEditorComponent@juce@@6BApplicationCommandTarget@1@@
       3722  E89 0061C940 ??_7CodeEditorComponent@juce@@6BComponent@1@@
       3723  E8A 0061AE78 ??_7CodeEditorComponent@juce@@6BTextInputTarget@1@@
       3724  E8B 005EC110 ??_7CodeTokeniser@juce@@6B@
       3725  E8C 0061A288 ??_7ColourSelector@juce@@6BChangeBroadcaster@1@@
       3726  E8D 0061AB30 ??_7ColourSelector@juce@@6BComponent@1@@
       3727  E8E 0060A810 ??_7ComboBox@juce@@6BAsyncUpdater@1@@
       3728  E8F 00608468 ??_7ComboBox@juce@@6BComponent@1@@
       3729  E90 006089D8 ??_7ComboBox@juce@@6BListener@Value@1@@
       3730  E91 00602D50 ??_7ComboBox@juce@@6BSettableTooltipClient@1@@
       3731  E92 00608C00 ??_7Component@juce@@6B@
       3732  E93 00603218 ??_7ComponentAnimator@juce@@6BChangeBroadcaster@1@@
       3733  E94 00607EB0 ??_7ComponentAnimator@juce@@6BTimer@1@@
       3734  E95 00611A40 ??_7ComponentBoundsConstrainer@juce@@6B@
       3735  E96 00614AE0 ??_7ComponentBuilder@juce@@6B@
       3736  E97 006105E0 ??_7ComponentDragger@juce@@6B@
       3737  E98 005EC790 ??_7ComponentListener@juce@@6B@
       3738  E99 0060E5C0 ??_7ComponentMovementWatcher@juce@@6B@
       3739  E9A 00608670 ??_7ComponentPeer@juce@@6B@
       3740  E9B 005ECC00 ??_7ComponentTraverser@juce@@6B@
       3741  E9C 00615728 ??_7ConcertinaPanel@juce@@6B@
       3742  E9D 00608E08 ??_7CubicTo@RelativePointPath@juce@@6B@
       3743  E9E 0060E3D8 ??_7CustomCallback@PopupMenu@juce@@6B@
       3744  E9F 00614EC0 ??_7CustomComponent@PopupMenu@juce@@6BComponent@2@@
       3745  EA0 006099E0 ??_7CustomComponent@PopupMenu@juce@@6BSingleThreadedReferenceCountedObject@2@@
       3746  EA1 005ECAE0 ??_7DarkModeSettingListener@juce@@6B@
       3747  EA2 005FD348 ??_7DeletedAtShutdown@juce@@6B@
       3748  EA3 006150B0 ??_7Desktop@juce@@6BAsyncUpdater@1@@
       3749  EA4 006094D8 ??_7Desktop@juce@@6BDeletedAtShutdown@1@@
       3750  EA5 0060E3C0 ??_7Desktop@juce@@6BTimer@1@@
       3751  EA6 006048C0 ??_7DialogWindow@juce@@6B@
       3752  EA7 00605240 ??_7DirectoryContentsDisplayComponent@juce@@6B@
       3753  EA8 0060A6E8 ??_7DirectoryContentsList@juce@@6BChangeBroadcaster@1@@
       3754  EA9 00612820 ??_7DirectoryContentsList@juce@@6BTimeSliceClient@1@@
       3755  EAA 00604FB8 ??_7DocumentWindow@juce@@6B@
       3756  EAB 005F3F88 ??_7DownloadTask@URL@juce@@6B@
       3757  EAC 005E6830 ??_7DownloadTaskListener@URL@juce@@6B@
       3758  EAD 006153C8 ??_7DragAndDropContainer@juce@@6B@
       3759  EAE 005EAC08 ??_7DragAndDropTarget@juce@@6B@
       3760  EAF 00614CA0 ??_7Drawable@juce@@6B@
       3761  EB0 00603778 ??_7DrawableButton@juce@@6BComponent@1@@
       3762  EB1 00603138 ??_7DrawableButton@juce@@6BSettableTooltipClient@1@@
       3763  EB2 006170C8 ??_7DrawableComposite@juce@@6B@
       3764  EB3 00604540 ??_7DrawableImage@juce@@6B@
       3765  EB4 006125B8 ??_7DrawablePath@juce@@6B@
       3766  EB5 00603B58 ??_7DrawableRectangle@juce@@6B@
       3767  EB6 00614910 ??_7DrawableShape@juce@@6B@
       3768  EB7 0060E1C0 ??_7DrawableText@juce@@6B@
       3769  EB8 005E7F78 ??_7DropShadowEffect@juce@@6B@
       3770  EB9 00610590 ??_7DropShadower@juce@@6B@
       3771  EBA 005F3FB0 ??_7DynamicObject@juce@@6B@
       3772  EBB 0060A6F8 ??_7ElementBase@RelativePointPath@juce@@6B@
       3773  EBC 0061A1C0 ??_7FileBasedDocument@juce@@6B@
       3774  EBD 00611000 ??_7FileBrowserComponent@juce@@6BComponent@1@@
       3775  EBE 00610920 ??_7FileBrowserComponent@juce@@6BFileBrowserListener@1@@
       3776  EBF 0060B530 ??_7FileBrowserComponent@juce@@6BFileFilter@1@@
       3777  EC0 00605E08 ??_7FileBrowserComponent@juce@@6BTimer@1@@
       3778  EC1 005EBF40 ??_7FileBrowserListener@juce@@6B@
       3779  EC2 0060AE48 ??_7FileChooserDialogBox@juce@@6BFileBrowserListener@1@@
       3780  EC3 0060DED8 ??_7FileChooserDialogBox@juce@@6BResizableWindow@1@@
       3781  EC4 005EA3E0 ??_7FileDragAndDropTarget@juce@@6B@
       3782  EC5 005E6758 ??_7FileFilter@juce@@6B@
       3783  EC6 005F4290 ??_7FileInputSource@juce@@6B@
       3784  EC7 005F3098 ??_7FileInputStream@juce@@6B@
       3785  EC8 006089C0 ??_7FileListComponent@juce@@6BChangeListener@1@@
       3786  EC9 006060F0 ??_7FileListComponent@juce@@6BComponent@1@@
       3787  ECA 00606A00 ??_7FileListComponent@juce@@6BDirectoryContentsDisplayComponent@1@@
       3788  ECB 0060DE50 ??_7FileListComponent@juce@@6BListBoxModel@1@@
       3789  ECC 00602778 ??_7FileListComponent@juce@@6BSettableTooltipClient@1@@
       3790  ECD 005EFCA8 ??_7FileLogger@juce@@6B@
       3791  ECE 005EFCC0 ??_7FileOutputStream@juce@@6B@
       3792  ECF 006080F8 ??_7FilePreviewComponent@juce@@6B@
       3793  ED0 00606DB8 ??_7FileSearchPathListComponent@juce@@6BComponent@1@@
       3794  ED1 006140B0 ??_7FileSearchPathListComponent@juce@@6BFileDragAndDropTarget@1@@
       3795  ED2 00606858 ??_7FileSearchPathListComponent@juce@@6BListBoxModel@1@@
       3796  ED3 0060F9F0 ??_7FileSearchPathListComponent@juce@@6BSettableTooltipClient@1@@
       3797  ED4 00606D18 ??_7FileTreeComponent@juce@@6B@
       3798  ED5 00611B70 ??_7FileTreeComponent@juce@@6BComponent@1@@
       3799  ED6 00611F78 ??_7FileTreeComponent@juce@@6BDragAndDropTarget@1@@
       3800  ED7 0060DDE0 ??_7FileTreeComponent@juce@@6BFileDragAndDropTarget@1@@
       3801  ED8 0060E9D8 ??_7FileTreeComponent@juce@@6BSettableTooltipClient@1@@
       3802  ED9 006064D8 ??_7FilenameComponent@juce@@6BAsyncUpdater@1@@
       3803  EDA 006160F0 ??_7FilenameComponent@juce@@6BComponent@1@@
       3804  EDB 006030F0 ??_7FilenameComponent@juce@@6BFileDragAndDropTarget@1@@
       3805  EDC 00612238 ??_7FilenameComponent@juce@@6BSettableTooltipClient@1@@
       3806  EDD 005E9C08 ??_7FilenameComponentListener@juce@@6B@
       3807  EDE 005E8B68 ??_7FlacAudioFormat@juce@@6B@
       3808  EDF 005E9868 ??_7FocusChangeListener@juce@@6B@
       3809  EE0 006056C8 ??_7FocusOutline@juce@@6B@
       3810  EE1 005EBEE8 ??_7FocusTraverser@juce@@6B@
       3811  EE2 005E80B0 ??_7GIFImageFormat@juce@@6B@
       3812  EE3 005F3CC8 ??_7GZIPCompressorOutputStream@juce@@6B@
       3813  EE4 005F3D80 ??_7GZIPDecompressorInputStream@juce@@6B@
       3814  EE5 005E9388 ??_7GenericAudioProcessorEditor@juce@@6B@
       3815  EE6 005E7A80 ??_7GlowEffect@juce@@6B@
       3816  EE7 00604D48 ??_7GroupComponent@juce@@6B@
       3817  EE8 0061C6C0 ??_7HWNDComponent@juce@@6B@
       3818  EE9 005F4278 ??_7HighResolutionTimer@juce@@6B@
       3819  EEA 005ECC68 ??_7HostedAudioProcessorParameter@juce@@6B@
       3820  EEB 00614288 ??_7HyperlinkButton@juce@@6BComponent@1@@
       3821  EEC 00617BA0 ??_7HyperlinkButton@juce@@6BSettableTooltipClient@1@@
       3822  EED 005E65F0 ??_7IIRFilterAudioSource@juce@@6B@
       3823  EEE 006046F8 ??_7ImageButton@juce@@6BComponent@1@@
       3824  EEF 00603758 ??_7ImageButton@juce@@6BSettableTooltipClient@1@@
       3825  EF0 006173A8 ??_7ImageComponent@juce@@6BComponent@1@@
       3826  EF1 00617968 ??_7ImageComponent@juce@@6BSettableTooltipClient@1@@
       3827  EF2 005E7A98 ??_7ImageEffectFilter@juce@@6B@
       3828  EF3 005E7D30 ??_7ImageFileFormat@juce@@6B@
       3829  EF4 005FD8C0 ??_7ImagePixelData@juce@@6B@
       3830  EF5 00604108 ??_7ImagePreviewComponent@juce@@6BFilePreviewComponent@1@@
       3831  EF6 00615A80 ??_7ImagePreviewComponent@juce@@6BTimer@1@@
       3832  EF7 005EB6A8 ??_7ImageProvider@ComponentBuilder@juce@@6B@
       3833  EF8 005E7DD8 ??_7ImageType@juce@@6B@
       3834  EF9 005E8D48 ??_7IncomingDataReceiver@ThreadedWriter@AudioFormatWriter@juce@@6B@
       3835  EFA 005EA590 ??_7InputFilter@TextEditor@juce@@6B@
       3836  EFB 005E6BB0 ??_7InputSource@juce@@6B@
       3837  EFC 005E6F50 ??_7InputStream@juce@@6B@
       3838  EFD 005FCD28 ??_7InterprocessConnection@juce@@6B@
       3839  EFE 005FD248 ??_7InterprocessConnectionServer@juce@@6B@
       3840  EFF 005E75C0 ??_7JPEGImageFormat@juce@@6B@
       3841  F00 00616C28 ??_7JUCEApplication@juce@@6BApplicationCommandTarget@1@@
       3842  F01 00607500 ??_7JUCEApplication@juce@@6BJUCEApplicationBase@1@@
       3843  F02 005FCF00 ??_7JUCEApplicationBase@juce@@6B@
       3844  F03 005E6EE8 ??_7JobSelector@ThreadPool@juce@@6B@
       3845  F04 005EC610 ??_7KeyListener@juce@@6B@
       3846  F05 006192C8 ??_7KeyMappingEditorComponent@juce@@6B@
       3847  F06 005ED058 ??_7KeyMappingEditorComponentMethods@ExtraLookAndFeelBaseClasses@juce@@6B@
       3848  F07 006064C8 ??_7KeyPressMappingSet@juce@@6BChangeBroadcaster@1@@
       3849  F08 00610D78 ??_7KeyPressMappingSet@juce@@6BFocusChangeListener@1@@
       3850  F09 006051B0 ??_7KeyPressMappingSet@juce@@6BKeyListener@1@@
       3851  F0A 005EF5F0 ??_7KeyboardComponentBase@juce@@6BChangeBroadcaster@1@@
       3852  F0B 005EF980 ??_7KeyboardComponentBase@juce@@6BComponent@1@@
       3853  F0C 005EC648 ??_7KeyboardFocusTraverser@juce@@6B@
       3854  F0D 005EB698 ??_7KnownPluginList@juce@@6B@
       3855  F0E 00615C38 ??_7Label@juce@@6BComponent@1@@
       3856  F0F 00603B08 ??_7Label@juce@@6BComponentListener@1@@
       3857  F10 0060AFF0 ??_7Label@juce@@6BListener@TextEditor@1@@
       3858  F11 00605C78 ??_7Label@juce@@6BListener@Value@1@@
       3859  F12 0060B4E8 ??_7Label@juce@@6BSettableTooltipClient@1@@
       3860  F13 005E9F68 ??_7LassoComponentMethods@ExtraLookAndFeelBaseClasses@juce@@6B@
       3861  F14 00608DF0 ??_7LengthAndCharacterRestriction@TextEditor@juce@@6B@
       3862  F15 006152C8 ??_7LineTo@RelativePointPath@juce@@6B@
       3863  F16 00617598 ??_7ListBox@juce@@6BComponent@1@@
       3864  F17 0060B7C8 ??_7ListBox@juce@@6BSettableTooltipClient@1@@
       3865  F18 005EA018 ??_7ListBoxModel@juce@@6B@
       3866  F19 005EC800 ??_7Listener@AudioProcessorParameter@juce@@6B@
       3867  F1A 005E9720 ??_7Listener@AudioProcessorValueTreeState@juce@@6B@
       3868  F1B 005EADF8 ??_7Listener@Button@juce@@6B@
       3869  F1C 005ED308 ??_7Listener@CodeDocument@juce@@6B@
       3870  F1D 005E91F0 ??_7Listener@ComboBox@juce@@6B@
       3871  F1E 005EA3B8 ??_7Listener@Label@juce@@6B@
       3872  F1F 005E6CD8 ??_7Listener@MPEInstrument@juce@@6B@
       3873  F20 005ED378 ??_7Listener@MarkerList@juce@@6B@
       3874  F21 005EB450 ??_7Listener@MenuBarModel@juce@@6B@
       3875  F22 005E6EC8 ??_7Listener@MidiKeyboardState@juce@@6B@
       3876  F23 005EAFB0 ??_7Listener@ScrollBar@juce@@6B@
       3877  F24 005EC980 ??_7Listener@TableHeaderComponent@juce@@6B@
       3878  F25 005E9BD8 ??_7Listener@TextEditor@juce@@6B@
       3879  F26 005EB010 ??_7Listener@TextPropertyComponent@juce@@6B@
       3880  F27 005E6458 ??_7Listener@Thread@juce@@6B@
       3881  F28 005EB300 ??_7Listener@Value@juce@@6B@
       3882  F29 005EBF70 ??_7Listener@ValueTree@juce@@6B@
       3883  F2A 005E6990 ??_7Listener@WebInputStream@juce@@6B@
       3884  F2B 005E6DE8 ??_7Logger@juce@@6B@
       3885  F2C 0060B550 ??_7LookAndFeel@juce@@6BAudioDeviceSelectorComponentMethods@ExtraLookAndFeelBaseClasses@1@@
       3886  F2D 0060BDB8 ??_7LookAndFeel@juce@@6BKeyMappingEditorComponentMethods@ExtraLookAndFeelBaseClasses@1@@
       3887  F2E 006040F0 ??_7LookAndFeel@juce@@6BLassoComponentMethods@ExtraLookAndFeelBaseClasses@1@@
       3888  F2F 00604340 ??_7LookAndFeel@juce@@6BLookAndFeelMethods@AlertWindow@1@@
       3889  F30 00602708 ??_7LookAndFeel@juce@@6BLookAndFeelMethods@BubbleComponent@1@@
       3890  F31 00610BD8 ??_7LookAndFeel@juce@@6BLookAndFeelMethods@Button@1@@
       3891  F32 00609BA0 ??_7LookAndFeel@juce@@6BLookAndFeelMethods@CallOutBox@1@@
       3892  F33 006166A8 ??_7LookAndFeel@juce@@6BLookAndFeelMethods@ComboBox@1@@
       3893  F34 00610C88 ??_7LookAndFeel@juce@@6BLookAndFeelMethods@ConcertinaPanel@1@@
       3894  F35 00606560 ??_7LookAndFeel@juce@@6BLookAndFeelMethods@DocumentWindow@1@@
       3895  F36 00605718 ??_7LookAndFeel@juce@@6BLookAndFeelMethods@FileBrowserComponent@1@@
       3896  F37 00608B48 ??_7LookAndFeel@juce@@6BLookAndFeelMethods@FilenameComponent@1@@
       3897  F38 0060EDE0 ??_7LookAndFeel@juce@@6BLookAndFeelMethods@GroupComponent@1@@
       3898  F39 006044C8 ??_7LookAndFeel@juce@@6BLookAndFeelMethods@ImageButton@1@@
       3899  F3A 0060E198 ??_7LookAndFeel@juce@@6BLookAndFeelMethods@Label@1@@
       3900  F3B 0060EEA0 ??_7LookAndFeel@juce@@6BLookAndFeelMethods@PopupMenu@1@@
       3901  F3C 00609638 ??_7LookAndFeel@juce@@6BLookAndFeelMethods@ProgressBar@1@@
       3902  F3D 00615B40 ??_7LookAndFeel@juce@@6BLookAndFeelMethods@PropertyComponent@1@@
       3903  F3E 006179C0 ??_7LookAndFeel@juce@@6BLookAndFeelMethods@ResizableWindow@1@@
       3904  F3F 0060CB30 ??_7LookAndFeel@juce@@6BLookAndFeelMethods@ScrollBar@1@@
       3905  F40 00603AE0 ??_7LookAndFeel@juce@@6BLookAndFeelMethods@SidePanel@1@@
       3906  F41 00602500 ??_7LookAndFeel@juce@@6BLookAndFeelMethods@Slider@1@@
       3907  F42 0060BDE0 ??_7LookAndFeel@juce@@6BLookAndFeelMethods@StretchableLayoutResizerBar@1@@
       3908  F43 0060EE30 ??_7LookAndFeel@juce@@6BLookAndFeelMethods@TabbedButtonBar@1@@
       3909  F44 0060E0C8 ??_7LookAndFeel@juce@@6BLookAndFeelMethods@TableHeaderComponent@1@@
       3910  F45 006027B0 ??_7LookAndFeel@juce@@6BLookAndFeelMethods@TextEditor@1@@
       3911  F46 00602B08 ??_7LookAndFeel@juce@@6BLookAndFeelMethods@Toolbar@1@@
       3912  F47 0060AB08 ??_7LookAndFeel@juce@@6BLookAndFeelMethods@TooltipWindow@1@@
       3913  F48 00605890 ??_7LookAndFeel@juce@@6BLookAndFeelMethods@TreeView@1@@
       3914  F49 005EAB60 ??_7LookAndFeelMethods@AlertWindow@juce@@6B@
       3915  F4A 005ECDB0 ??_7LookAndFeelMethods@BubbleComponent@juce@@6B@
       3916  F4B 005EC0C0 ??_7LookAndFeelMethods@Button@juce@@6B@
       3917  F4C 005EB970 ??_7LookAndFeelMethods@CallOutBox@juce@@6B@
       3918  F4D 005EAB20 ??_7LookAndFeelMethods@ComboBox@juce@@6B@
       3919  F4E 005ECA68 ??_7LookAndFeelMethods@ConcertinaPanel@juce@@6B@
       3920  F4F 005ECDD0 ??_7LookAndFeelMethods@DocumentWindow@juce@@6B@
       3921  F50 005EB1F0 ??_7LookAndFeelMethods@FileBrowserComponent@juce@@6B@
       3922  F51 005EA0F0 ??_7LookAndFeelMethods@FilenameComponent@juce@@6B@
       3923  F52 005E9340 ??_7LookAndFeelMethods@GroupComponent@juce@@6B@
       3924  F53 005E9578 ??_7LookAndFeelMethods@ImageButton@juce@@6B@
       3925  F54 005E92A8 ??_7LookAndFeelMethods@Label@juce@@6B@
       3926  F55 005EB6C8 ??_7LookAndFeelMethods@PopupMenu@juce@@6B@
       3927  F56 005E9550 ??_7LookAndFeelMethods@ProgressBar@juce@@6B@
       3928  F57 005EC5C0 ??_7LookAndFeelMethods@PropertyComponent@juce@@6B@
       3929  F58 005EC8B8 ??_7LookAndFeelMethods@ResizableWindow@juce@@6B@
       3930  F59 005EAD00 ??_7LookAndFeelMethods@ScrollBar@juce@@6B@
       3931  F5A 005EB418 ??_7LookAndFeelMethods@SidePanel@juce@@6B@
       3932  F5B 005EC270 ??_7LookAndFeelMethods@Slider@juce@@6B@
       3933  F5C 005EC630 ??_7LookAndFeelMethods@StretchableLayoutResizerBar@juce@@6B@
       3934  F5D 005EB8C8 ??_7LookAndFeelMethods@TabbedButtonBar@juce@@6B@
       3935  F5E 005EC730 ??_7LookAndFeelMethods@TableHeaderComponent@juce@@6B@
       3936  F5F 005EAFE8 ??_7LookAndFeelMethods@TextEditor@juce@@6B@
       3937  F60 005ED328 ??_7LookAndFeelMethods@Toolbar@juce@@6B@
       3938  F61 005EB998 ??_7LookAndFeelMethods@TooltipWindow@juce@@6B@
       3939  F62 005EC958 ??_7LookAndFeelMethods@TreeView@juce@@6B@
       3940  F63 00605DE0 ??_7LookAndFeel_V1@juce@@6BAudioDeviceSelectorComponentMethods@ExtraLookAndFeelBaseClasses@1@@
       3941  F64 00611628 ??_7LookAndFeel_V1@juce@@6BKeyMappingEditorComponentMethods@ExtraLookAndFeelBaseClasses@1@@
       3942  F65 00611580 ??_7LookAndFeel_V1@juce@@6BLassoComponentMethods@ExtraLookAndFeelBaseClasses@1@@
       3943  F66 006095B8 ??_7LookAndFeel_V1@juce@@6BLookAndFeelMethods@AlertWindow@1@@
       3944  F67 00605C90 ??_7LookAndFeel_V1@juce@@6BLookAndFeelMethods@BubbleComponent@1@@
       3945  F68 0060ADF8 ??_7LookAndFeel_V1@juce@@6BLookAndFeelMethods@Button@1@@
       3946  F69 006109B8 ??_7LookAndFeel_V1@juce@@6BLookAndFeelMethods@CallOutBox@1@@
       3947  F6A 00602678 ??_7LookAndFeel_V1@juce@@6BLookAndFeelMethods@ComboBox@1@@
       3948  F6B 00607CB0 ??_7LookAndFeel_V1@juce@@6BLookAndFeelMethods@ConcertinaPanel@1@@
       3949  F6C 0060C698 ??_7LookAndFeel_V1@juce@@6BLookAndFeelMethods@DocumentWindow@1@@
       3950  F6D 00614588 ??_7LookAndFeel_V1@juce@@6BLookAndFeelMethods@FileBrowserComponent@1@@
       3951  F6E 006158C0 ??_7LookAndFeel_V1@juce@@6BLookAndFeelMethods@FilenameComponent@1@@
       3952  F6F 006062A8 ??_7LookAndFeel_V1@juce@@6BLookAndFeelMethods@GroupComponent@1@@
       3953  F70 0060A4B8 ??_7LookAndFeel_V1@juce@@6BLookAndFeelMethods@ImageButton@1@@
       3954  F71 00609810 ??_7LookAndFeel_V1@juce@@6BLookAndFeelMethods@Label@1@@
       3955  F72 006043F8 ??_7LookAndFeel_V1@juce@@6BLookAndFeelMethods@PopupMenu@1@@
       3956  F73 0060FA48 ??_7LookAndFeel_V1@juce@@6BLookAndFeelMethods@ProgressBar@1@@
       3957  F74 0060F9A0 ??_7LookAndFeel_V1@juce@@6BLookAndFeelMethods@PropertyComponent@1@@
       3958  F75 00605E78 ??_7LookAndFeel_V1@juce@@6BLookAndFeelMethods@ResizableWindow@1@@
       3959  F76 006042A8 ??_7LookAndFeel_V1@juce@@6BLookAndFeelMethods@ScrollBar@1@@
       3960  F77 00606830 ??_7LookAndFeel_V1@juce@@6BLookAndFeelMethods@SidePanel@1@@
       3961  F78 006162B8 ??_7LookAndFeel_V1@juce@@6BLookAndFeelMethods@Slider@1@@
       3962  F79 00602888 ??_7LookAndFeel_V1@juce@@6BLookAndFeelMethods@StretchableLayoutResizerBar@1@@
       3963  F7A 0060B718 ??_7LookAndFeel_V1@juce@@6BLookAndFeelMethods@TabbedButtonBar@1@@
       3964  F7B 0060B020 ??_7LookAndFeel_V1@juce@@6BLookAndFeelMethods@TableHeaderComponent@1@@
       3965  F7C 00614168 ??_7LookAndFeel_V1@juce@@6BLookAndFeelMethods@TextEditor@1@@
       3966  F7D 0060A3F8 ??_7LookAndFeel_V1@juce@@6BLookAndFeelMethods@Toolbar@1@@
       3967  F7E 006057F8 ??_7LookAndFeel_V1@juce@@6BLookAndFeelMethods@TooltipWindow@1@@
       3968  F7F 0060D5A0 ??_7LookAndFeel_V1@juce@@6BLookAndFeelMethods@TreeView@1@@
       3969  F80 00608070 ??_7LookAndFeel_V2@juce@@6BAudioDeviceSelectorComponentMethods@ExtraLookAndFeelBaseClasses@1@@
       3970  F81 0060AF38 ??_7LookAndFeel_V2@juce@@6BKeyMappingEditorComponentMethods@ExtraLookAndFeelBaseClasses@1@@
       3971  F82 00615F00 ??_7LookAndFeel_V2@juce@@6BLassoComponentMethods@ExtraLookAndFeelBaseClasses@1@@
       3972  F83 006069B0 ??_7LookAndFeel_V2@juce@@6BLookAndFeelMethods@AlertWindow@1@@
       3973  F84 006090B0 ??_7LookAndFeel_V2@juce@@6BLookAndFeelMethods@BubbleComponent@1@@
       3974  F85 00607B60 ??_7LookAndFeel_V2@juce@@6BLookAndFeelMethods@Button@1@@
       3975  F86 0060D578 ??_7LookAndFeel_V2@juce@@6BLookAndFeelMethods@CallOutBox@1@@
       3976  F87 0060FD78 ??_7LookAndFeel_V2@juce@@6BLookAndFeelMethods@ComboBox@1@@
       3977  F88 006159A0 ??_7LookAndFeel_V2@juce@@6BLookAndFeelMethods@ConcertinaPanel@1@@
       3978  F89 0060B290 ??_7LookAndFeel_V2@juce@@6BLookAndFeelMethods@DocumentWindow@1@@
       3979  F8A 0060FA70 ??_7LookAndFeel_V2@juce@@6BLookAndFeelMethods@FileBrowserComponent@1@@
       3980  F8B 00606C78 ??_7LookAndFeel_V2@juce@@6BLookAndFeelMethods@FilenameComponent@1@@
       3981  F8C 0060B4B8 ??_7LookAndFeel_V2@juce@@6BLookAndFeelMethods@GroupComponent@1@@
       3982  F8D 00609E18 ??_7LookAndFeel_V2@juce@@6BLookAndFeelMethods@ImageButton@1@@
       3983  F8E 00610CA0 ??_7LookAndFeel_V2@juce@@6BLookAndFeelMethods@Label@1@@
       3984  F8F 00614840 ??_7LookAndFeel_V2@juce@@6BLookAndFeelMethods@PopupMenu@1@@
       3985  F90 00607198 ??_7LookAndFeel_V2@juce@@6BLookAndFeelMethods@ProgressBar@1@@
       3986  F91 00607248 ??_7LookAndFeel_V2@juce@@6BLookAndFeelMethods@PropertyComponent@1@@
       3987  F92 00603E08 ??_7LookAndFeel_V2@juce@@6BLookAndFeelMethods@ResizableWindow@1@@
       3988  F93 00602570 ??_7LookAndFeel_V2@juce@@6BLookAndFeelMethods@ScrollBar@1@@
       3989  F94 00603D10 ??_7LookAndFeel_V2@juce@@6BLookAndFeelMethods@SidePanel@1@@
       3990  F95 00602E48 ??_7LookAndFeel_V2@juce@@6BLookAndFeelMethods@Slider@1@@
       3991  F96 00615DF8 ??_7LookAndFeel_V2@juce@@6BLookAndFeelMethods@StretchableLayoutResizerBar@1@@
       3992  F97 00611AA0 ??_7LookAndFeel_V2@juce@@6BLookAndFeelMethods@TabbedButtonBar@1@@
       3993  F98 0060A720 ??_7LookAndFeel_V2@juce@@6BLookAndFeelMethods@TableHeaderComponent@1@@
       3994  F99 006058B8 ??_7LookAndFeel_V2@juce@@6BLookAndFeelMethods@TextEditor@1@@
       3995  F9A 00604F20 ??_7LookAndFeel_V2@juce@@6BLookAndFeelMethods@Toolbar@1@@
       3996  F9B 006033E0 ??_7LookAndFeel_V2@juce@@6BLookAndFeelMethods@TooltipWindow@1@@
       3997  F9C 00614E58 ??_7LookAndFeel_V2@juce@@6BLookAndFeelMethods@TreeView@1@@
       3998  F9D 00608B68 ??_7LookAndFeel_V3@juce@@6BAudioDeviceSelectorComponentMethods@ExtraLookAndFeelBaseClasses@1@@
       3999  F9E 0060AD00 ??_7LookAndFeel_V3@juce@@6BKeyMappingEditorComponentMethods@ExtraLookAndFeelBaseClasses@1@@
       4000  F9F 0060A1E8 ??_7LookAndFeel_V3@juce@@6BLassoComponentMethods@ExtraLookAndFeelBaseClasses@1@@
       4001  FA0 00609230 ??_7LookAndFeel_V3@juce@@6BLookAndFeelMethods@AlertWindow@1@@
       4002  FA1 00614C48 ??_7LookAndFeel_V3@juce@@6BLookAndFeelMethods@BubbleComponent@1@@
       4003  FA2 006138E8 ??_7LookAndFeel_V3@juce@@6BLookAndFeelMethods@Button@1@@
       4004  FA3 00603368 ??_7LookAndFeel_V3@juce@@6BLookAndFeelMethods@CallOutBox@1@@
       4005  FA4 00607C48 ??_7LookAndFeel_V3@juce@@6BLookAndFeelMethods@ComboBox@1@@
       4006  FA5 006115F8 ??_7LookAndFeel_V3@juce@@6BLookAndFeelMethods@ConcertinaPanel@1@@
       4007  FA6 00603158 ??_7LookAndFeel_V3@juce@@6BLookAndFeelMethods@DocumentWindow@1@@
       4008  FA7 00615B78 ??_7LookAndFeel_V3@juce@@6BLookAndFeelMethods@FileBrowserComponent@1@@
       4009  FA8 00609198 ??_7LookAndFeel_V3@juce@@6BLookAndFeelMethods@FilenameComponent@1@@
       4010  FA9 00606290 ??_7LookAndFeel_V3@juce@@6BLookAndFeelMethods@GroupComponent@1@@
       4011  FAA 0060B4D0 ??_7LookAndFeel_V3@juce@@6BLookAndFeelMethods@ImageButton@1@@
       4012  FAB 00612490 ??_7LookAndFeel_V3@juce@@6BLookAndFeelMethods@Label@1@@
       4013  FAC 006068E0 ??_7LookAndFeel_V3@juce@@6BLookAndFeelMethods@PopupMenu@1@@
       4014  FAD 00605578 ??_7LookAndFeel_V3@juce@@6BLookAndFeelMethods@ProgressBar@1@@
       4015  FAE 006026B8 ??_7LookAndFeel_V3@juce@@6BLookAndFeelMethods@PropertyComponent@1@@
       4016  FAF 006090F0 ??_7LookAndFeel_V3@juce@@6BLookAndFeelMethods@ResizableWindow@1@@
       4017  FB0 0060FCE0 ??_7LookAndFeel_V3@juce@@6BLookAndFeelMethods@ScrollBar@1@@
       4018  FB1 0060AB28 ??_7LookAndFeel_V3@juce@@6BLookAndFeelMethods@SidePanel@1@@
       4019  FB2 00603228 ??_7LookAndFeel_V3@juce@@6BLookAndFeelMethods@Slider@1@@
       4020  FB3 006089A8 ??_7LookAndFeel_V3@juce@@6BLookAndFeelMethods@StretchableLayoutResizerBar@1@@
       4021  FB4 006094F8 ??_7LookAndFeel_V3@juce@@6BLookAndFeelMethods@TabbedButtonBar@1@@
       4022  FB5 0060C978 ??_7LookAndFeel_V3@juce@@6BLookAndFeelMethods@TableHeaderComponent@1@@
       4023  FB6 00614BE0 ??_7LookAndFeel_V3@juce@@6BLookAndFeelMethods@TextEditor@1@@
       4024  FB7 0060B830 ??_7LookAndFeel_V3@juce@@6BLookAndFeelMethods@Toolbar@1@@
       4025  FB8 00614C80 ??_7LookAndFeel_V3@juce@@6BLookAndFeelMethods@TooltipWindow@1@@
       4026  FB9 006028A0 ??_7LookAndFeel_V3@juce@@6BLookAndFeelMethods@TreeView@1@@
       4027  FBA 00605608 ??_7LookAndFeel_V4@juce@@6BAudioDeviceSelectorComponentMethods@ExtraLookAndFeelBaseClasses@1@@
       4028  FBB 00606C98 ??_7LookAndFeel_V4@juce@@6BKeyMappingEditorComponentMethods@ExtraLookAndFeelBaseClasses@1@@
       4029  FBC 00616E40 ??_7LookAndFeel_V4@juce@@6BLassoComponentMethods@ExtraLookAndFeelBaseClasses@1@@
       4030  FBD 00610F78 ??_7LookAndFeel_V4@juce@@6BLookAndFeelMethods@AlertWindow@1@@
       4031  FBE 006153A8 ??_7LookAndFeel_V4@juce@@6BLookAndFeelMethods@BubbleComponent@1@@
       4032  FBF 00607FE8 ??_7LookAndFeel_V4@juce@@6BLookAndFeelMethods@Button@1@@
       4033  FC0 00605188 ??_7LookAndFeel_V4@juce@@6BLookAndFeelMethods@CallOutBox@1@@
       4034  FC1 00610188 ??_7LookAndFeel_V4@juce@@6BLookAndFeelMethods@ComboBox@1@@
       4035  FC2 006057C0 ??_7LookAndFeel_V4@juce@@6BLookAndFeelMethods@ConcertinaPanel@1@@
       4036  FC3 0060F2F0 ??_7LookAndFeel_V4@juce@@6BLookAndFeelMethods@DocumentWindow@1@@
       4037  FC4 00602A60 ??_7LookAndFeel_V4@juce@@6BLookAndFeelMethods@FileBrowserComponent@1@@
       4038  FC5 00611560 ??_7LookAndFeel_V4@juce@@6BLookAndFeelMethods@FilenameComponent@1@@
       4039  FC6 00616C58 ??_7LookAndFeel_V4@juce@@6BLookAndFeelMethods@GroupComponent@1@@
       4040  FC7 00602870 ??_7LookAndFeel_V4@juce@@6BLookAndFeelMethods@ImageButton@1@@
       4041  FC8 0060E400 ??_7LookAndFeel_V4@juce@@6BLookAndFeelMethods@Label@1@@
       4042  FC9 00608A78 ??_7LookAndFeel_V4@juce@@6BLookAndFeelMethods@PopupMenu@1@@
       4043  FCA 00617318 ??_7LookAndFeel_V4@juce@@6BLookAndFeelMethods@ProgressBar@1@@
       4044  FCB 00611A08 ??_7LookAndFeel_V4@juce@@6BLookAndFeelMethods@PropertyComponent@1@@
       4045  FCC 0060E740 ??_7LookAndFeel_V4@juce@@6BLookAndFeelMethods@ResizableWindow@1@@
       4046  FCD 006159E8 ??_7LookAndFeel_V4@juce@@6BLookAndFeelMethods@ScrollBar@1@@
       4047  FCE 00611640 ??_7LookAndFeel_V4@juce@@6BLookAndFeelMethods@SidePanel@1@@
       4048  FCF 006167B0 ??_7LookAndFeel_V4@juce@@6BLookAndFeelMethods@Slider@1@@
       4049  FD0 006111A8 ??_7LookAndFeel_V4@juce@@6BLookAndFeelMethods@StretchableLayoutResizerBar@1@@
       4050  FD1 00615A98 ??_7LookAndFeel_V4@juce@@6BLookAndFeelMethods@TabbedButtonBar@1@@
       4051  FD2 00614C08 ??_7LookAndFeel_V4@juce@@6BLookAndFeelMethods@TableHeaderComponent@1@@
       4052  FD3 006067C0 ??_7LookAndFeel_V4@juce@@6BLookAndFeelMethods@TextEditor@1@@
       4053  FD4 00607280 ??_7LookAndFeel_V4@juce@@6BLookAndFeelMethods@Toolbar@1@@
       4054  FD5 00615300 ??_7LookAndFeel_V4@juce@@6BLookAndFeelMethods@TooltipWindow@1@@
       4055  FD6 00608980 ??_7LookAndFeel_V4@juce@@6BLookAndFeelMethods@TreeView@1@@
       4056  FD7 005E78B8 ??_7LowLevelGraphicsContext@juce@@6B@
       4057  FD8 00601200 ??_7LowLevelGraphicsSoftwareRenderer@juce@@6B@
       4058  FD9 0061A948 ??_7LuaTokeniser@juce@@6B@
       4059  FDA 005E6850 ??_7MPEInstrument@juce@@6B@
       4060  FDB 005EF778 ??_7MPEKeyboardComponent@juce@@6BChangeBroadcaster@1@@
       4061  FDC 005EE6B0 ??_7MPEKeyboardComponent@juce@@6BComponent@1@@
       4062  FDD 005EF2B8 ??_7MPEKeyboardComponent@juce@@6BListener@MPEInstrument@1@@
       4063  FDE 005EE698 ??_7MPEKeyboardComponent@juce@@6BTimer@1@@
       4064  FDF 005E67A0 ??_7MPESynthesiser@juce@@6B@
       4065  FE0 005E6BD8 ??_7MPESynthesiserBase@juce@@6B@
       4066  FE1 005E6470 ??_7MPESynthesiserVoice@juce@@6B@
       4067  FE2 005E66B8 ??_7MemoryAudioSource@juce@@6B@
       4068  FE3 005F2ED0 ??_7MemoryInputStream@juce@@6B@
       4069  FE4 005E89E0 ??_7MemoryMappedAudioFormatReader@juce@@6B@
       4070  FE5 005EFBF0 ??_7MemoryOutputStream@juce@@6B@
       4071  FE6 00609E78 ??_7MenuBarComponent@juce@@6BComponent@1@@
       4072  FE7 0060B508 ??_7MenuBarComponent@juce@@6BListener@MenuBarModel@1@@
       4073  FE8 0060A7A8 ??_7MenuBarComponent@juce@@6BTimer@1@@
       4074  FE9 0060CF28 ??_7MenuBarModel@juce@@6BApplicationCommandManagerListener@1@@
       4075  FEA 00602BB0 ??_7MenuBarModel@juce@@6BAsyncUpdater@1@@
       4076  FEB 005FCD50 ??_7Message@juce@@6B@
       4077  FEC 005E7CB0 ??_7MessageBase@MessageManager@juce@@6B@
       4078  FED 005FD2B0 ??_7MessageListener@juce@@6B@
       4079  FEE 005FCE20 ??_7MessageManagerLock@juce@@6B@
       4080  FEF 005E7CF8 ??_7MidiInputCallback@juce@@6B@
       4081  FF0 005EF300 ??_7MidiKeyboardComponent@juce@@6BChangeBroadcaster@1@@
       4082  FF1 005EEEA0 ??_7MidiKeyboardComponent@juce@@6BComponent@1@@
       4083  FF2 005EE2C8 ??_7MidiKeyboardComponent@juce@@6BListener@MidiKeyboardState@1@@
       4084  FF3 005EE2E8 ??_7MidiKeyboardComponent@juce@@6BTimer@1@@
       4085  FF4 005E7F58 ??_7MidiMessageCollector@juce@@6BListener@MidiKeyboardState@1@@
       4086  FF5 005E71A8 ??_7MidiMessageCollector@juce@@6BMidiInputCallback@1@@
       4087  FF6 005E7F18 ??_7MidiOutput@juce@@6B@
       4088  FF7 005E6E28 ??_7MixerAudioSource@juce@@6B@
       4089  FF8 006111C0 ??_7ModalComponentManager@juce@@6BAsyncUpdater@1@@
       4090  FF9 006058F8 ??_7ModalComponentManager@juce@@6BDeletedAtShutdown@1@@
       4091  FFA 005FD318 ??_7MountedVolumeListChangeDetector@juce@@6B@
       4092  FFB 00612258 ??_7MouseInactivityDetector@juce@@6BMouseListener@1@@
       4093  FFC 00605278 ??_7MouseInactivityDetector@juce@@6BTimer@1@@
       4094  FFD 005EA7A8 ??_7MouseListener@juce@@6B@
       4095  FFE 00611FB8 ??_7MultiDocumentPanel@juce@@6BComponent@1@@
       4096  FFF 00605C00 ??_7MultiDocumentPanel@juce@@6BComponentListener@1@@
       4097 1000 00606A70 ??_7MultiDocumentPanelWindow@juce@@6B@
       4098 1001 005FCE60 ??_7MultiTimer@juce@@6B@
       4099 1002 005E7648 ??_7NativeImageType@juce@@6B@
       4100 1003 005EB7D8 ??_7Node@AudioProcessorGraph@juce@@6B@
       4101 1004 005E9058 ??_7OggVorbisAudioFormat@juce@@6B@
       4102 1005 0061F5D8 ??_7OpenGLAppComponent@juce@@6BComponent@1@@
       4103 1006 0061F788 ??_7OpenGLAppComponent@juce@@6BOpenGLRenderer@1@@
       4104 1007 0061EED8 ??_7OpenGLImageType@juce@@6B@
       4105 1008 0061EE40 ??_7OpenGLRenderer@juce@@6B@
       4106 1009 005E9880 ??_7OutlineWindowProperties@FocusOutline@juce@@6B@
       4107 100A 005EFD88 ??_7OutputStream@juce@@6B@
       4108 100B 005E74C8 ??_7PNGImageFormat@juce@@6B@
       4109 100C 005E9FA8 ??_7PluginListComponent@juce@@6BChangeListener@1@@
       4110 100D 005EC348 ??_7PluginListComponent@juce@@6BComponent@1@@
       4111 100E 005EC2E0 ??_7PluginListComponent@juce@@6BFileDragAndDropTarget@1@@
       4112 100F 005E65A0 ??_7PositionableAudioSource@juce@@6B@
       4113 1010 00614098 ??_7Positioner@Component@juce@@6B@
       4114 1011 0061B010 ??_7PreferencesPanel@juce@@6B@
       4115 1012 00603458 ??_7ProgressBar@juce@@6BComponent@1@@
       4116 1013 0060F590 ??_7ProgressBar@juce@@6BSettableTooltipClient@1@@
       4117 1014 006055A0 ??_7ProgressBar@juce@@6BTimer@1@@
       4118 1015 005FCA20 ??_7PropertiesFile@juce@@6BChangeBroadcaster@1@@
       4119 1016 005FCC88 ??_7PropertiesFile@juce@@6BPropertySet@1@@
       4120 1017 005FCB48 ??_7PropertiesFile@juce@@6BTimer@1@@
       4121 1018 0060FFE8 ??_7PropertyComponent@juce@@6BComponent@1@@
       4122 1019 0060A4F8 ??_7PropertyComponent@juce@@6BSettableTooltipClient@1@@
       4123 101A 0060B9F8 ??_7PropertyPanel@juce@@6B@
       4124 101B 005F3160 ??_7PropertySet@juce@@6B@
       4125 101C 00619BD0 ??_7PushNotifications@juce@@6B@
       4126 101D 00616BA0 ??_7QuadraticTo@RelativePointPath@juce@@6B@
       4127 101E 005EB828 ??_7RangedAudioParameter@juce@@6B@
       4128 101F 005E6778 ??_7ReferenceCountedObject@juce@@6B@
       4129 1020 00611D08 ??_7RelativeCoordinatePositionerBase@juce@@6BComponentListener@1@@
       4130 1021 00605EA8 ??_7RelativeCoordinatePositionerBase@juce@@6BListener@MarkerList@1@@
       4131 1022 0060EBB8 ??_7RelativeCoordinatePositionerBase@juce@@6BPositioner@Component@1@@
       4132 1023 005E64F0 ??_7ResamplingAudioSource@juce@@6B@
       4133 1024 0060EA20 ??_7ResizableBorderComponent@juce@@6B@
       4134 1025 0060CD68 ??_7ResizableCornerComponent@juce@@6B@
       4135 1026 00616378 ??_7ResizableEdgeComponent@juce@@6B@
       4136 1027 0060E7E0 ??_7ResizableWindow@juce@@6B@
       4137 1028 005E6968 ??_7ReverbAudioSource@juce@@6B@
       4138 1029 005E9038 ??_7SamplerSound@juce@@6B@
       4139 102A 005E8CD8 ??_7SamplerVoice@juce@@6B@
       4140 102B 005ECD00 ??_7ScaleFactorListener@ComponentPeer@juce@@6B@
       4141 102C 005E6E50 ??_7Scope@Expression@juce@@6B@
       4142 102D 0060E398 ??_7ScrollBar@juce@@6BAsyncUpdater@1@@
       4143 102E 00609C80 ??_7ScrollBar@juce@@6BComponent@1@@
       4144 102F 006170A0 ??_7ScrollBar@juce@@6BTimer@1@@
       4145 1030 005EB478 ??_7SettableTooltipClient@juce@@6B@
       4146 1031 0060EBF0 ??_7ShapeButton@juce@@6BComponent@1@@
       4147 1032 006054D8 ??_7ShapeButton@juce@@6BSettableTooltipClient@1@@
       4148 1033 005E6448 ??_7SingleThreadedReferenceCountedObject@juce@@6B@
       4149 1034 0060D768 ??_7Slider@juce@@6BComponent@1@@
       4150 1035 00616820 ??_7Slider@juce@@6BSettableTooltipClient@1@@
       4151 1036 006177B8 ??_7SliderPropertyComponent@juce@@6BComponent@1@@
       4152 1037 0060C328 ??_7SliderPropertyComponent@juce@@6BSettableTooltipClient@1@@
       4153 1038 005E73B0 ??_7SoftwareImageType@juce@@6B@
       4154 1039 005EDCA8 ??_7SoundPlayer@juce@@6B@
       4155 103A 0061A5A8 ??_7SplashScreen@juce@@6BComponent@1@@
       4156 103B 0061D130 ??_7SplashScreen@juce@@6BDeletedAtShutdown@1@@
       4157 103C 0061BB10 ??_7SplashScreen@juce@@6BTimer@1@@
       4158 103D 0060A4D0 ??_7StartSubPath@RelativePointPath@juce@@6B@
       4159 103E 00603EF8 ??_7StretchableLayoutResizerBar@juce@@6B@
       4160 103F 005F4718 ??_7SubregionStream@juce@@6B@
       4161 1040 005E68D0 ??_7Synthesiser@juce@@6B@
       4162 1041 005E64D0 ??_7SynthesiserSound@juce@@6B@
       4163 1042 005E6618 ??_7SynthesiserVoice@juce@@6B@
       4164 1043 0061C498 ??_7SystemTrayIconComponent@juce@@6B@
       4165 1044 0060A518 ??_7TabBarButton@juce@@6BComponent@1@@
       4166 1045 006057D8 ??_7TabBarButton@juce@@6BSettableTooltipClient@1@@
       4167 1046 006043A8 ??_7TabbedButtonBar@juce@@6BChangeBroadcaster@1@@
       4168 1047 0060F7F0 ??_7TabbedButtonBar@juce@@6BComponent@1@@
       4169 1048 00609660 ??_7TabbedComponent@juce@@6B@
       4170 1049 0060AB50 ??_7TableHeaderComponent@juce@@6BAsyncUpdater@1@@
       4171 104A 006087C8 ??_7TableHeaderComponent@juce@@6BComponent@1@@
       4172 104B 0060C348 ??_7TableListBox@juce@@6BComponent@1@@
       4173 104C 00617018 ??_7TableListBox@juce@@6BListBoxModel@1@@
       4174 104D 0060FF50 ??_7TableListBox@juce@@6BListener@TableHeaderComponent@1@@
       4175 104E 00610D20 ??_7TableListBox@juce@@6BSettableTooltipClient@1@@
       4176 104F 005EC678 ??_7TableListBoxModel@juce@@6B@
       4177 1050 00613E88 ??_7TextButton@juce@@6BComponent@1@@
       4178 1051 006090D0 ??_7TextButton@juce@@6BSettableTooltipClient@1@@
       4179 1052 005EACC8 ??_7TextDragAndDropTarget@juce@@6B@
       4180 1053 0060BE50 ??_7TextEditor@juce@@6BComponent@1@@
       4181 1054 0060BE30 ??_7TextEditor@juce@@6BSettableTooltipClient@1@@
       4182 1055 00615E10 ??_7TextEditor@juce@@6BTextInputTarget@1@@
       4183 1056 005E96B0 ??_7TextInputTarget@juce@@6B@
       4184 1057 006168E0 ??_7TextPropertyComponent@juce@@6BComponent@1@@
       4185 1058 0060F7D0 ??_7TextPropertyComponent@juce@@6BSettableTooltipClient@1@@
       4186 1059 005F3F98 ??_7Thread@juce@@6B@
       4187 105A 005F45D8 ??_7ThreadPoolJob@juce@@6B@
       4188 105B 00609018 ??_7ThreadWithProgressWindow@juce@@6BThread@1@@
       4189 105C 0060D9B8 ??_7ThreadWithProgressWindow@juce@@6BTimer@1@@
       4190 105D 005E6740 ??_7TimeSliceClient@juce@@6B@
       4191 105E 005F2CD8 ??_7TimeSliceThread@juce@@6B@
       4192 105F 005FD200 ??_7Timer@juce@@6B@
       4193 1060 006122C8 ??_7ToggleButton@juce@@6BComponent@1@@
       4194 1061 00607A40 ??_7ToggleButton@juce@@6BSettableTooltipClient@1@@
       4195 1062 005E68A8 ??_7ToneGeneratorAudioSource@juce@@6B@
       4196 1063 00610D90 ??_7Toolbar@juce@@6BComponent@1@@
       4197 1064 00615BE0 ??_7Toolbar@juce@@6BDragAndDropContainer@1@@
       4198 1065 0060C938 ??_7Toolbar@juce@@6BDragAndDropTarget@1@@
       4199 1066 00604A98 ??_7ToolbarButton@juce@@6BComponent@1@@
       4200 1067 006140E8 ??_7ToolbarButton@juce@@6BSettableTooltipClient@1@@
       4201 1068 00608E30 ??_7ToolbarItemComponent@juce@@6BComponent@1@@
       4202 1069 006147F0 ??_7ToolbarItemComponent@juce@@6BSettableTooltipClient@1@@
       4203 106A 005ECFE8 ??_7ToolbarItemFactory@juce@@6B@
       4204 106B 0060C998 ??_7ToolbarItemPalette@juce@@6BComponent@1@@
       4205 106C 00603638 ??_7ToolbarItemPalette@juce@@6BDragAndDropContainer@1@@
       4206 106D 005EB520 ??_7TooltipClient@juce@@6B@
       4207 106E 0060A010 ??_7TooltipWindow@juce@@6BComponent@1@@
       4208 106F 00614C68 ??_7TooltipWindow@juce@@6BTimer@1@@
       4209 1070 00607CC8 ??_7TopLevelWindow@juce@@6B@
       4210 1071 0060C500 ??_7TreeView@juce@@6BComponent@1@@
       4211 1072 0060E0E8 ??_7TreeView@juce@@6BDragAndDropTarget@1@@
       4212 1073 0060B7F8 ??_7TreeView@juce@@6BFileDragAndDropTarget@1@@
       4213 1074 00605928 ??_7TreeView@juce@@6BSettableTooltipClient@1@@
       4214 1075 00604C80 ??_7TreeViewItem@juce@@6B@
       4215 1076 00616C70 ??_7TypeHandler@ComponentBuilder@juce@@6B@
       4216 1077 00600FF8 ??_7Typeface@juce@@6B@
       4217 1078 005F3EF8 ??_7URLInputSource@juce@@6B@
       4218 1079 005FCBF8 ??_7UndoManager@juce@@6B@
       4219 107A 005ED010 ??_7UndoableAction@juce@@6B@
       4220 107B 005F2DA8 ??_7UnitTest@juce@@6B@
       4221 107C 005F3208 ??_7UnitTestRunner@juce@@6B@
       4222 107D 005EBC08 ??_7VBlankAttachment@juce@@6BComponentListener@1@@
       4223 107E 005EA5C0 ??_7VBlankAttachment@juce@@6BVBlankListener@ComponentPeer@1@@
       4224 107F 005EADB8 ??_7VBlankListener@ComponentPeer@juce@@6B@
       4225 1080 005FCB20 ??_7ValueSource@Value@juce@@6BAsyncUpdater@2@@
       4226 1081 005FCC08 ??_7ValueSource@Value@juce@@6BReferenceCountedObject@2@@
       4227 1082 005EA838 ??_7ValueTreePropertyWithDefault@juce@@6B@
       4228 1083 005FCA58 ??_7ValueTreeSynchroniser@juce@@6B@
       4229 1084 0061F930 ??_7VideoComponent@juce@@6BComponent@1@@
       4230 1085 0061FAD8 ??_7VideoComponent@juce@@6BTimer@1@@
       4231 1086 0060DC30 ??_7Viewport@juce@@6BComponent@1@@
       4232 1087 00607BD8 ??_7Viewport@juce@@6BComponentListener@1@@
       4233 1088 00617368 ??_7Viewport@juce@@6BListener@ScrollBar@1@@
       4234 1089 005E8EB0 ??_7WavAudioFormat@juce@@6B@
       4235 108A 00617BD8 ??_7WebBrowserComponent@juce@@6B@
       4236 108B 0061C2A0 ??_7WebComboBoxRelay@juce@@6B?$OptionsBuilder@VOptions@WebBrowserComponent@juce@@@@@
       4237 108C 0061C1F8 ??_7WebComboBoxRelay@juce@@6BWebViewLifetimeListener@1@@
       4238 108D 005EC318 ??_7WebControlParameterIndexReceiver@juce@@6B@
       4239 108E 005F3A38 ??_7WebInputStream@juce@@6B@
       4240 108F 0061AFC0 ??_7WebSliderRelay@juce@@6B?$OptionsBuilder@VOptions@WebBrowserComponent@juce@@@@@
       4241 1090 0061BAD0 ??_7WebSliderRelay@juce@@6BWebViewLifetimeListener@1@@
       4242 1091 0061A968 ??_7WebToggleButtonRelay@juce@@6B?$OptionsBuilder@VOptions@WebBrowserComponent@juce@@@@@
       4243 1092 00619868 ??_7WebToggleButtonRelay@juce@@6BWebViewLifetimeListener@1@@
       4244 1093 005ECD18 ??_7WebViewLifetimeListener@juce@@6B@
       4245 1094 005E6EA8 ??_7WildcardFileFilter@juce@@6B@
       4246 1095 0061CCD0 ??_7XmlTokeniser@juce@@6B@
       4247 1096 0009D6D0 ??_FAudioProcessorPlayer@juce@@QEAAXXZ
       4248 1097 00079BB0 ??_FBubbleMessageComponent@juce@@QEAAXXZ
       4249 1098 00079BC0 ??_FColourSelector@juce@@QEAAXXZ
       4250 1099 00077040 ??_FComboBox@juce@@QEAAXXZ
       4251 109A 00075130 ??_FGroupComponent@juce@@QEAAXXZ
       4252 109B 000750C0 ??_FImageButton@juce@@QEAAXXZ
       4253 109C 00077060 ??_FImageComponent@juce@@QEAAXXZ
       4254 109D 0001F4C0 ??_FInterprocessConnection@juce@@QEAAXXZ
       4255 109E 00076F60 ??_FLabel@juce@@QEAAXXZ
       4256 109F 00077350 ??_FListBox@juce@@QEAAXXZ
       4257 10A0 000061B0 ??_FMemoryOutputStream@juce@@QEAAXXZ
       4258 10A1 00076500 ??_FMenuBarComponent@juce@@QEAAXXZ
       4259 10A2 0001EEB0 ??_FMessageManagerLock@juce@@QEAAXXZ
       4260 10A3 00202920 ??_FOpenGLPixelFormat@juce@@QEAAXXZ
       4261 10A4 00007E80 ??_FPropertySet@juce@@QEAAXXZ
       4262 10A5 000060B0 ??_FRelativeTime@juce@@QEAAXXZ
       4263 10A6 00005D80 ??_FStringPairArray@juce@@QEAAXXZ
       4264 10A7 000774B0 ??_FTableListBox@juce@@QEAAXXZ
       4265 10A8 00006750 ??_FTemporaryFile@juce@@QEAAXXZ
       4266 10A9 00076E60 ??_FTextEditor@juce@@QEAAXXZ
       4267 10AA 000781E0 ??_FTooltipWindow@juce@@QEAAXXZ
       4268 10AB 00077680 ??_FTreeView@juce@@QEAAXXZ
       4269 10AC 00072240 ??_FUndoManager@juce@@QEAAXXZ
       4270 10AD 00075FC0 ??_FViewport@juce@@QEAAXXZ
       4271 10AE 00006C00 ??_FWaitableEvent@juce@@QEAAXXZ
       4272 10AF 005D29F4 ?F10Key@KeyPress@juce@@2HB
       4273 10B0 005D2A00 ?F11Key@KeyPress@juce@@2HB
       4274 10B1 005D278C ?F12Key@KeyPress@juce@@2HB
       4275 10B2 005D27CC ?F13Key@KeyPress@juce@@2HB
       4276 10B3 005D2734 ?F14Key@KeyPress@juce@@2HB
       4277 10B4 005D2A10 ?F15Key@KeyPress@juce@@2HB
       4278 10B5 005D29F0 ?F16Key@KeyPress@juce@@2HB
       4279 10B6 005D2710 ?F17Key@KeyPress@juce@@2HB
       4280 10B7 005D27C4 ?F18Key@KeyPress@juce@@2HB
       4281 10B8 005D29B4 ?F19Key@KeyPress@juce@@2HB
       4282 10B9 005D29FC ?F1Key@KeyPress@juce@@2HB
       4283 10BA 005D2780 ?F20Key@KeyPress@juce@@2HB
       4284 10BB 005D29EC ?F21Key@KeyPress@juce@@2HB
       4285 10BC 005D29D0 ?F22Key@KeyPress@juce@@2HB
       4286 10BD 005D2774 ?F23Key@KeyPress@juce@@2HB
       4287 10BE 005D2790 ?F24Key@KeyPress@juce@@2HB
       4288 10BF 005D275C ?F25Key@KeyPress@juce@@2HB
       4289 10C0 005D2A0C ?F26Key@KeyPress@juce@@2HB
       4290 10C1 005D2768 ?F27Key@KeyPress@juce@@2HB
       4291 10C2 005D2788 ?F28Key@KeyPress@juce@@2HB
       4292 10C3 005D27C0 ?F29Key@KeyPress@juce@@2HB
       4293 10C4 005D2738 ?F2Key@KeyPress@juce@@2HB
       4294 10C5 005D2744 ?F30Key@KeyPress@juce@@2HB
       4295 10C6 005D2A08 ?F31Key@KeyPress@juce@@2HB
       4296 10C7 005D29DC ?F32Key@KeyPress@juce@@2HB
       4297 10C8 005D2778 ?F33Key@KeyPress@juce@@2HB
       4298 10C9 005D29AC ?F34Key@KeyPress@juce@@2HB
       4299 10CA 005D273C ?F35Key@KeyPress@juce@@2HB
       4300 10CB 005D2A04 ?F3Key@KeyPress@juce@@2HB
       4301 10CC 005D2728 ?F4Key@KeyPress@juce@@2HB
       4302 10CD 005D2764 ?F5Key@KeyPress@juce@@2HB
       4303 10CE 005D2998 ?F6Key@KeyPress@juce@@2HB
       4304 10CF 005D29D4 ?F7Key@KeyPress@juce@@2HB
       4305 10D0 005D29D8 ?F8Key@KeyPress@juce@@2HB
       4306 10D1 005D27B4 ?F9Key@KeyPress@juce@@2HB
       4307 10D2 0031DFE0 ?F@BlowFish@juce@@AEBAII@Z
       4308 10D3 0059B010 ?ISRC@WavAudioFormat@juce@@2QEBDEB
       4309 10D4 005E9EE8 ?InfoIcon@AlertWindow@juce@@2W4MessageBoxIconType@2@B
       4310 10D5 005E9EFC ?NoIcon@AlertWindow@juce@@2W4MessageBoxIconType@2@B
       4311 10D6 005E9F58 ?QuestionIcon@AlertWindow@juce@@2W4MessageBoxIconType@2@B
       4312 10D7 005E9F50 ?WarningIcon@AlertWindow@juce@@2W4MessageBoxIconType@2@B
       4313 10D8 0032BDC0 ?abort@Lock@MessageManager@juce@@QEBAXXZ
       4314 10D9 0000DCF0 ?abs@?$FloatVectorOperationsBase@MH@juce@@SAXPEAMPEBMH@Z
       4315 10DA 0000E050 ?abs@?$FloatVectorOperationsBase@M_K@juce@@SAXPEAMPEBM_K@Z
       4316 10DB 0000E5B0 ?abs@?$FloatVectorOperationsBase@NH@juce@@SAXPEANPEBNH@Z
       4317 10DC 0000EB30 ?abs@?$FloatVectorOperationsBase@N_K@juce@@SAXPEANPEBN_K@Z
       4318 10DD 002A4040 ?acceptsMidi@AudioGraphIOProcessor@AudioProcessorGraph@juce@@UEBA_NXZ
       4319 10DE 002A4FA0 ?acceptsMidi@AudioProcessorGraph@juce@@UEBA_NXZ
       4320 10DF 00348610 ?access@ShapedText@juce@@QEBAXAEBV?$function@$$A6AXV?$Span@$$CBUShapedGlyph@juce@@$0?0@juce@@V?$Span@V?$Point@M@juce@@$0?0@2@VFont@2@V?$Range@_J@2@_J@Z@std@@@Z
       4321 10E0 0059C568 ?acidBeats@WavAudioFormat@juce@@2QEBDEB
       4322 10E1 0059C5A8 ?acidDenominator@WavAudioFormat@juce@@2QEBDEB
       4323 10E2 0059ADF0 ?acidDiskBased@WavAudioFormat@juce@@2QEBDEB
       4324 10E3 00509C50 ?acidNumerator@WavAudioFormat@juce@@2QEBDEB
       4325 10E4 0059ADB8 ?acidOneShot@WavAudioFormat@juce@@2QEBDEB
       4326 10E5 0059AF88 ?acidRootNote@WavAudioFormat@juce@@2QEBDEB
       4327 10E6 0059AEC8 ?acidRootSet@WavAudioFormat@juce@@2QEBDEB
       4328 10E7 0059C500 ?acidStretch@WavAudioFormat@juce@@2QEBDEB
       4329 10E8 0059AD80 ?acidTempo@WavAudioFormat@juce@@2QEBDEB
       4330 10E9 0059C648 ?acidizerFlag@WavAudioFormat@juce@@2QEBDEB
       4331 10EA 00475040 ?activeDocumentChanged@MultiDocumentPanel@juce@@UEAAXXZ
       4332 10EB 00407C80 ?activeWindowStatusChanged@DocumentWindow@juce@@UEAAXXZ
       4333 10EC 00476F60 ?activeWindowStatusChanged@MultiDocumentPanelWindow@juce@@UEAAXXZ
       4334 10ED 00405F60 ?activeWindowStatusChanged@ResizableWindow@juce@@MEAAXXZ
       4335 10EE 00402E90 ?activeWindowStatusChanged@TopLevelWindow@juce@@MEAAXXZ
       4336 10EF 0000DAE0 ?add@?$FloatVectorOperationsBase@MH@juce@@SAXPEAMMH@Z
       4337 10F0 0000DAB0 ?add@?$FloatVectorOperationsBase@MH@juce@@SAXPEAMPEBM1H@Z
       4338 10F1 0000DAC0 ?add@?$FloatVectorOperationsBase@MH@juce@@SAXPEAMPEBMH@Z
       4339 10F2 0000DAD0 ?add@?$FloatVectorOperationsBase@MH@juce@@SAXPEAMPEBMMH@Z
       4340 10F3 0000DE60 ?add@?$FloatVectorOperationsBase@M_K@juce@@SAXPEAMM_K@Z
       4341 10F4 0000DE30 ?add@?$FloatVectorOperationsBase@M_K@juce@@SAXPEAMPEBM1_K@Z
       4342 10F5 0000DE50 ?add@?$FloatVectorOperationsBase@M_K@juce@@SAXPEAMPEBMM_K@Z
       4343 10F6 0000DE40 ?add@?$FloatVectorOperationsBase@M_K@juce@@SAXPEAMPEBM_K@Z
       4344 10F7 0000E360 ?add@?$FloatVectorOperationsBase@NH@juce@@SAXPEANNH@Z
       4345 10F8 0000E330 ?add@?$FloatVectorOperationsBase@NH@juce@@SAXPEANPEBN1H@Z
       4346 10F9 0000E340 ?add@?$FloatVectorOperationsBase@NH@juce@@SAXPEANPEBNH@Z
       4347 10FA 0000E350 ?add@?$FloatVectorOperationsBase@NH@juce@@SAXPEANPEBNNH@Z
       4348 10FB 0000E920 ?add@?$FloatVectorOperationsBase@N_K@juce@@SAXPEANN_K@Z
       4349 10FC 0000E8F0 ?add@?$FloatVectorOperationsBase@N_K@juce@@SAXPEANPEBN1_K@Z
       4350 10FD 0000E910 ?add@?$FloatVectorOperationsBase@N_K@juce@@SAXPEANPEBNN_K@Z
       4351 10FE 0000E900 ?add@?$FloatVectorOperationsBase@N_K@juce@@SAXPEANPEBN_K@Z
       4352 10FF 00303810 ?add@FileSearchPath@juce@@QEAAXAEBVFile@2@H@Z
       4353 1100 00005960 ?add@ParameterLayout@AudioProcessorValueTreeState@juce@@AEAAXXZ
       4354 1101 003194B0 ?add@StringArray@juce@@QEAAXVString@2@@Z
       4355 1102 000755E0 ?addAction@AccessibilityActions@juce@@QEAAAEAV12@W4AccessibilityActionType@2@V?$function@$$A6AXXZ@std@@@Z
       4356 1103 0032B7B0 ?addActionListener@ActionBroadcaster@juce@@QEAAXPEAVActionListener@2@@Z
       4357 1104 0030AB00 ?addAllPropertiesFrom@PropertySet@juce@@QEAAXAEBV12@@Z
       4358 1105 004BCFC0 ?addAndMakeVisible@Component@juce@@QEAAXAEAV12@H@Z
       4359 1106 004B1960 ?addAndMakeVisible@Component@juce@@QEAAXPEAV12@H@Z
       4360 1107 0039E7C0 ?addArc@Path@juce@@QEAAXMMMMMM_N@Z
       4361 1108 00312800 ?addArray@StringArray@juce@@QEAAXAEBV12@HH@Z
       4362 1109 002E6C90 ?addArray@StringPairArray@juce@@QEAAXAEBV12@@Z
       4363 110A 0039DE10 ?addArrow@Path@juce@@QEAAXV?$Line@M@2@MMM@Z
       4364 110B 00238D80 ?addAudioCallback@AudioDeviceManager@juce@@QEAAXPEAVAudioIODeviceCallback@2@@Z
       4365 110C 0023DA40 ?addAudioDeviceType@AudioDeviceManager@juce@@QEAAXV?$unique_ptr@VAudioIODeviceType@juce@@U?$default_delete@VAudioIODeviceType@juce@@@std@@@std@@@Z
       4366 110D 002B84F0 ?addBlock@AudioThumbnail@juce@@UEAAX_JAEBV?$AudioBuffer@M@2@HH@Z
       4367 110E 0039D520 ?addBubble@Path@juce@@QEAAXV?$Rectangle@M@2@0V?$Point@M@2@MM@Z
       4368 110F 002ABA60 ?addBus@AudioProcessor@juce@@QEAA_N_N@Z
       4369 1110 004B4390 ?addButton@AlertWindow@juce@@QEAAXAEBVString@2@HAEBVKeyPress@2@1@Z
       4370 1111 0039E460 ?addCentredArc@Path@juce@@QEAAXMMMMMMM_N@Z
       4371 1112 0032DEE0 ?addChangeListener@ChangeBroadcaster@juce@@QEAAXPEAVChangeListener@2@@Z
       4372 1113 0022DF50 ?addChannel@AudioChannelSet@juce@@QEAAXW4ChannelType@12@@Z
       4373 1114 00324B30 ?addChild@ValueTree@juce@@QEAAXAEBV12@HPEAVUndoManager@2@@Z
       4374 1115 00499460 ?addChildAndSetID@Component@juce@@QEAAXPEAV12@AEBVString@2@@Z
       4375 1116 004B19B0 ?addChildComponent@Component@juce@@QEAAXAEAV12@H@Z
       4376 1117 004BD010 ?addChildComponent@Component@juce@@QEAAXPEAV12@H@Z
       4377 1118 00310F80 ?addChildElement@XmlElement@juce@@QEAAXPEAV12@@Z
       4378 1119 0001F0E0 ?addChildProcessExitedListener@ChildProcessManager@juce@@QEAA@V?$function@$$A6AXPEAVChildProcess@juce@@@Z@std@@@Z
       4379 111A 003A15F0 ?addColour@ColourGradient@juce@@QEAAHNVColour@2@@Z
       4380 111B 0043C820 ?addColouredItem@PopupMenu@juce@@QEAAXHVString@2@VColour@2@_N2AEBVImage@2@@Z
       4381 111C 0043CA80 ?addColouredItem@PopupMenu@juce@@QEAAXHVString@2@VColour@2@_N2V?$unique_ptr@VDrawable@juce@@U?$default_delete@VDrawable@juce@@@std@@@std@@@Z
       4382 111D 004B7A80 ?addColumn@TableHeaderComponent@juce@@QEAAXAEBVString@2@HHHHHH@Z
       4383 111E 0043BE80 ?addColumnBreak@PopupMenu@juce@@QEAAXXZ
       4384 111F 0040EBF0 ?addComboBox@AlertWindow@juce@@QEAAXAEBVString@2@AEBVStringArray@2@0@Z
       4385 1120 0043CCE0 ?addCommandItem@PopupMenu@juce@@QEAAXPEAVApplicationCommandManager@2@HVString@2@V?$unique_ptr@VDrawable@juce@@U?$default_delete@VDrawable@juce@@@std@@@std@@@Z
       4386 1121 00413AD0 ?addComponent@ToolbarItemPalette@juce@@AEAAXHH@Z
       4387 1122 004BC650 ?addComponentListener@Component@juce@@QEAAXPEAVComponentListener@2@@Z
       4388 1123 002A4E50 ?addConnection@AudioProcessorGraph@juce@@QEAA_NAEBUConnection@12@W4UpdateKind@12@@Z
       4389 1124 004358A0 ?addCoordinate@RelativeCoordinatePositionerBase@juce@@QEAA_NAEBVRelativeCoordinate@2@@Z
       4390 1125 00347330 ?addCurtailedLineOfText@GlyphArrangement@juce@@QEAAXAEBVFont@2@AEBVString@2@MMM_N@Z
       4391 1126 004B4170 ?addCustomComponent@AlertWindow@juce@@QEAAXPEAVComponent@2@@Z
       4392 1127 0043C330 ?addCustomItem@PopupMenu@juce@@QEAAXHAEAVComponent@2@HH_NV?$unique_ptr@$$CBVPopupMenu@juce@@U?$default_delete@$$CBVPopupMenu@juce@@@std@@@std@@AEBVString@2@@Z
       4393 1128 0043C4C0 ?addCustomItem@PopupMenu@juce@@QEAAXHV?$unique_ptr@VCustomComponent@PopupMenu@juce@@U?$default_delete@VCustomComponent@PopupMenu@juce@@@std@@@std@@V?$unique_ptr@$$CBVPopupMenu@juce@@U?$default_delete@$$CBVPopupMenu@juce@@@std@@@4@AEBVString@2@@Z
       4394 1129 00490C20 ?addDarkModeSettingListener@Desktop@juce@@QEAAXPEAVDarkModeSettingListener@2@@Z
       4395 112A 002ACAC0 ?addDefaultFormats@AudioPluginFormatManager@juce@@QEAAXXZ
       4396 112B 00415F50 ?addDefaultItems@Toolbar@juce@@QEAAXAEAVToolbarItemFactory@2@@Z
       4397 112C 0049EEB0 ?addDefaultKeypress@ApplicationCommandInfo@juce@@QEAAXHVModifierKeys@2@@Z
       4398 112D 00491520 ?addDesktopComponent@Desktop@juce@@AEAAXPEAVComponent@2@@Z
       4399 112E 00475E60 ?addDocument@MultiDocumentPanel@juce@@QEAA_NPEAVComponent@2@VColour@2@_N@Z
       4400 112F 0039FCD0 ?addEdgePoint@EdgeTable@juce@@AEAAXHHH@Z
       4401 1130 0039FC30 ?addEdgePointPair@EdgeTable@juce@@AEAAXHHHH@Z
       4402 1131 00433500 ?addElement@RelativePointPath@juce@@QEAAXPEAVElementBase@12@@Z
       4403 1132 0039E850 ?addEllipse@Path@juce@@QEAAXMMMM@Z
       4404 1133 003A91A0 ?addEllipse@Path@juce@@QEAAXV?$Rectangle@M@2@@Z
       4405 1134 002CA540 ?addEntry@Builder@ZipFile@juce@@QEAAXPEAVInputStream@3@HAEBVString@3@VTime@3@@Z
       4406 1135 002BF8E0 ?addEscapeChars@URL@juce@@SA?AVString@2@AEBV32@_N1@Z
       4407 1136 0022A290 ?addEvent@MidiBuffer@juce@@QEAA_NAEBVMidiMessage@2@H@Z
       4408 1137 0022A0C0 ?addEvent@MidiBuffer@juce@@QEAA_NPEBXHH@Z
       4409 1138 00224280 ?addEvent@MidiMessageSequence@juce@@AEAAPEAVMidiEventHolder@12@PEAV312@N@Z
       4410 1139 00224190 ?addEvent@MidiMessageSequence@juce@@QEAAPEAVMidiEventHolder@12@$$QEAVMidiMessage@2@N@Z
       4411 113A 00224210 ?addEvent@MidiMessageSequence@juce@@QEAAPEAVMidiEventHolder@12@AEBVMidiMessage@2@N@Z
       4412 113B 0022A000 ?addEvents@MidiBuffer@juce@@QEAAXAEBV12@HHH@Z
       4413 113C 002DE430 ?addFail@UnitTestRunner@juce@@AEAAXAEBVString@2@@Z
       4414 113D 002CA620 ?addFile@Builder@ZipFile@juce@@QEAAXAEBVFile@3@HAEBVString@3@@Z
       4415 113E 00487AA0 ?addFile@DirectoryContentsList@juce@@AEAA_NAEBVFile@2@_N_JVTime@2@31@Z
       4416 113F 004C4930 ?addFile@RecentlyOpenedFilesList@juce@@QEAAXAEBVFile@2@@Z
       4417 1140 00344800 ?addFittedText@GlyphArrangement@juce@@QEAAXAEBVFont@2@AEBVString@2@MMMMVJustification@2@HM@Z
       4418 1141 00490FE0 ?addFocusChangeListener@Desktop@juce@@QEAAXPEAVFocusChangeListener@2@@Z
       4419 1142 002AC9D0 ?addFormat@AudioPluginFormatManager@juce@@QEAAXPEAVAudioPluginFormat@2@@Z
       4420 1143 004D9B60 ?addFragmentShader@OpenGLShaderProgram@juce@@QEAA_NAEBVString@2@@Z
       4421 1144 00490960 ?addGlobalMouseListener@Desktop@juce@@QEAAXPEAVMouseListener@2@@Z
       4422 1145 00347D40 ?addGlyph@GlyphArrangement@juce@@QEAAXAEBVPositionedGlyph@2@@Z
       4423 1146 00347DD0 ?addGlyphArrangement@GlyphArrangement@juce@@QEAAXAEBV12@@Z
       4424 1147 002A5CC0 ?addHostedParameter@AudioPluginInstance@juce@@QEAAXV?$unique_ptr@UHostedAudioProcessorParameter@juce@@U?$default_delete@UHostedAudioProcessorParameter@juce@@@std@@@std@@@Z
       4425 1148 002A5C60 ?addHostedParameterGroup@AudioPluginInstance@juce@@QEAAXV?$unique_ptr@VAudioProcessorParameterGroup@juce@@U?$default_delete@VAudioProcessorParameterGroup@juce@@@std@@@std@@@Z
       4426 1149 00303710 ?addIfNotAlreadyThere@FileSearchPath@juce@@QEAA_NAEBVFile@2@@Z
       4427 114A 002E75D0 ?addIfNotAlreadyThere@StringArray@juce@@QEAA_NAEBVString@2@_N@Z
       4428 114B 00390FD0 ?addImageToCache@ImageCache@juce@@SAXAEBVImage@2@_J@Z
       4429 114C 0021A4F0 ?addInputSource@MixerAudioSource@juce@@QEAAXPEAVAudioSource@2@_N@Z
       4430 114D 004B1330 ?addItem@ComboBox@juce@@QEAAXAEBVString@2@H@Z
       4431 114E 004B6C40 ?addItem@PopupMenu@juce@@QEAAXHVString@2@_N1@Z
       4432 114F 0043D340 ?addItem@PopupMenu@juce@@QEAAXHVString@2@_N1AEBVImage@2@@Z
       4433 1150 0043D100 ?addItem@PopupMenu@juce@@QEAAXHVString@2@_N1V?$unique_ptr@VDrawable@juce@@U?$default_delete@VDrawable@juce@@@std@@@std@@@Z
       4434 1151 004B6BD0 ?addItem@PopupMenu@juce@@QEAAXUItem@12@@Z
       4435 1152 0043D720 ?addItem@PopupMenu@juce@@QEAAXVString@2@V?$function@$$A6AXXZ@std@@@Z
       4436 1153 0043D4B0 ?addItem@PopupMenu@juce@@QEAAXVString@2@_N1V?$function@$$A6AXXZ@std@@@Z
       4437 1154 00416030 ?addItem@Toolbar@juce@@QEAAXAEAVToolbarItemFactory@2@HH@Z
       4438 1155 00416060 ?addItemInternal@Toolbar@juce@@AEAAXAEAVToolbarItemFactory@2@HH@Z
       4439 1156 004BA590 ?addItemList@ComboBox@juce@@QEAAXAEBVStringArray@2@H@Z
       4440 1157 0030FF30 ?addJob@ThreadPool@juce@@QEAAXPEAVThreadPoolJob@2@_N@Z
       4441 1158 002E4E90 ?addJob@ThreadPool@juce@@QEAAXV?$function@$$A6A?AW4JobStatus@ThreadPoolJob@juce@@XZ@std@@@Z
       4442 1159 002E4AE0 ?addJob@ThreadPool@juce@@QEAAXV?$function@$$A6AXXZ@std@@@Z
       4443 115A 00346C80 ?addJustifiedText@GlyphArrangement@juce@@QEAAXAEBVFont@2@AEBVString@2@MMMVJustification@2@M@Z
       4444 115B 004929A0 ?addKeyListener@Component@juce@@QEAAXPEAVKeyListener@2@@Z
       4445 115C 0049D030 ?addKeyPress@KeyPressMappingSet@juce@@QEAAXHAEBVKeyPress@2@H@Z
       4446 115D 00342E90 ?addLine@TextLayout@juce@@QEAAXV?$unique_ptr@VLine@TextLayout@juce@@U?$default_delete@VLine@TextLayout@juce@@@std@@@std@@@Z
       4447 115E 003A98B0 ?addLineOfText@GlyphArrangement@juce@@QEAAXAEBVFont@2@AEBVString@2@MM@Z
       4448 115F 003A8F60 ?addLineSegment@Path@juce@@QEAAXV?$Line@M@2@M@Z
       4449 1160 002E6FB0 ?addLines@StringArray@juce@@QEAAHVStringRef@2@@Z
       4450 1161 0049DE60 ?addListener@ApplicationCommandManager@juce@@QEAAXPEAVApplicationCommandManagerListener@2@@Z
       4451 1162 00236AE0 ?addListener@AudioIODeviceType@juce@@QEAAXPEAVListener@12@@Z
       4452 1163 002AA440 ?addListener@AudioProcessor@juce@@UEAAXPEAVAudioProcessorListener@2@@Z
       4453 1164 002A6620 ?addListener@AudioProcessorParameter@juce@@QEAAXPEAVListener@12@@Z
       4454 1165 004B5E00 ?addListener@Button@juce@@QEAAXPEAVListener@12@@Z
       4455 1166 004D1FC0 ?addListener@CodeDocument@juce@@QEAAXPEAVListener@12@@Z
       4456 1167 004BA2A0 ?addListener@ComboBox@juce@@QEAAXPEAVListener@12@@Z
       4457 1168 00488BF0 ?addListener@DirectoryContentsDisplayComponent@juce@@QEAAXPEAVFileBrowserListener@2@@Z
       4458 1169 00486BB0 ?addListener@FileBrowserComponent@juce@@QEAAXPEAVFileBrowserListener@2@@Z
       4459 116A 0047E850 ?addListener@FilenameComponent@juce@@QEAAXPEAVFilenameComponentListener@2@@Z
       4460 116B 00428710 ?addListener@Label@juce@@QEAAXPEAVListener@12@@Z
       4461 116C 002216F0 ?addListener@MPEInstrument@juce@@QEAAXPEAVListener@12@@Z
       4462 116D 00221FC0 ?addListener@MPEZoneLayout@juce@@QEAAXQEAVListener@12@@Z
       4463 116E 004367A0 ?addListener@MarkerList@juce@@QEAAXPEAVListener@12@@Z
       4464 116F 0043E590 ?addListener@MenuBarModel@juce@@QEAAXPEAVListener@12@@Z
       4465 1170 00227C20 ?addListener@MidiKeyboardState@juce@@QEAAXPEAVListener@12@@Z
       4466 1171 00437930 ?addListener@MouseInactivityDetector@juce@@QEAAXPEAVListener@12@@Z
       4467 1172 004C4D30 ?addListener@PushNotifications@juce@@QEAAXPEAUListener@12@@Z
       4468 1173 00472CC0 ?addListener@ScrollBar@juce@@QEAAXPEAVListener@12@@Z
       4469 1174 004BAED0 ?addListener@Slider@juce@@QEAAXPEAV?$SliderListener@VSlider@juce@@@2@@Z
       4470 1175 004227A0 ?addListener@TableHeaderComponent@juce@@QEAAXPEAVListener@12@@Z
       4471 1176 0041D6B0 ?addListener@TextEditor@juce@@QEAAXPEAVListener@12@@Z
       4472 1177 0042C430 ?addListener@TextPropertyComponent@juce@@QEAAXPEAVListener@12@@Z
       4473 1178 002E5570 ?addListener@Thread@juce@@QEAAXPEAVListener@12@@Z
       4474 1179 002E5210 ?addListener@ThreadPoolJob@juce@@QEAAXPEAVListener@Thread@2@@Z
       4475 117A 003270E0 ?addListener@Value@juce@@QEAAXPEAVListener@12@@Z
       4476 117B 003265B0 ?addListener@ValueTree@juce@@QEAAXPEAVListener@12@@Z
       4477 117C 004D62B0 ?addListener@WebComboBoxRelay@juce@@QEAAXPEAUListener@12@@Z
       4478 117D 004D5E50 ?addListener@WebSliderRelay@juce@@QEAAXPEAUListener@12@@Z
       4479 117E 004D5670 ?addListener@WebToggleButtonRelay@juce@@QEAAXPEAUListener@12@@Z
       4480 117F 00311230 ?addMap@StringPairArray@juce@@QEAAXAEBV?$map@VString@juce@@V12@U?$less@VString@juce@@@std@@V?$allocator@U?$pair@$$CBVString@juce@@V12@@std@@@4@@std@@@Z
       4481 1180 00422590 ?addMenuItems@TableHeaderComponent@juce@@UEAAXAEAVPopupMenu@2@H@Z
       4482 1181 00236520 ?addMessageToQueue@MidiMessageCollector@juce@@QEAAXAEBVMidiMessage@2@@Z
       4483 1182 00236FA0 ?addMidiInputCallback@AudioDeviceManager@juce@@QEAAXAEBVString@2@PEAVMidiInputCallback@2@@Z
       4484 1183 00237C80 ?addMidiInputDeviceCallback@AudioDeviceManager@juce@@QEAAXAEBVString@2@PEAVMidiInputCallback@2@@Z
       4485 1184 00497330 ?addMouseListener@Component@juce@@QEAAXPEAVMouseListener@2@_N@Z
       4486 1185 002B0CA0 ?addNewNote@MPEKeyboardComponent@juce@@AEAAXUMPENote@2@@Z
       4487 1186 002A4570 ?addNode@AudioProcessorGraph@juce@@QEAA?AV?$ReferenceCountedObjectPtr@VNode@AudioProcessorGraph@juce@@@2@V?$unique_ptr@VAudioProcessor@juce@@U?$default_delete@VAudioProcessor@juce@@@std@@@std@@V?$optional@UNodeID@AudioProcessorGraph@juce@@@5@W4UpdateKind@12@@Z
       4488 1187 004797E0 ?addPanel@ConcertinaPanel@juce@@QEAAXHPEAVComponent@2@_N@Z
       4489 1188 002A9E50 ?addParameter@AudioProcessor@juce@@QEAAXPEAVAudioProcessorParameter@2@@Z
       4490 1189 002C3470 ?addParameter@URL@juce@@AEAAXAEBVString@2@0@Z
       4491 118A 00294400 ?addParameterAdapter@AudioProcessorValueTreeState@juce@@AEAAXAEAVRangedAudioParameter@2@@Z
       4492 118B 002A9C60 ?addParameterGroup@AudioProcessor@juce@@QEAAXV?$unique_ptr@VAudioProcessorParameterGroup@juce@@U?$default_delete@VAudioProcessorParameterGroup@juce@@@std@@@std@@@Z
       4493 118C 002942C0 ?addParameterListener@AudioProcessorValueTreeState@juce@@QEAAXVStringRef@2@PEAUListener@12@@Z
       4494 118D 002DE640 ?addPass@UnitTestRunner@juce@@AEAAXXZ
       4495 118E 003035E0 ?addPath@FileSearchPath@juce@@QEAAXAEBV12@@Z
       4496 118F 00480A00 ?addPath@FileSearchPathListComponent@juce@@AEAAXXZ
       4497 1190 0039D280 ?addPath@Path@juce@@QEAAXAEBV12@@Z
       4498 1191 0039CF50 ?addPath@Path@juce@@QEAAXAEBV12@AEBVAffineTransform@2@@Z
       4499 1192 0039E1D0 ?addPieSegment@Path@juce@@QEAAXMMMMMMM@Z
       4500 1193 0039E180 ?addPieSegment@Path@juce@@QEAAXV?$Rectangle@M@2@MMM@Z
       4501 1194 00435840 ?addPoint@RelativeCoordinatePositionerBase@juce@@QEAA_NAEBVRelativePoint@2@@Z
       4502 1195 0039DC90 ?addPolygon@Path@juce@@QEAAXV?$Point@M@2@HMM@Z
       4503 1196 004C9B30 ?addPopupMenuItems@CodeEditorComponent@juce@@UEAAXAEAVPopupMenu@2@PEBVMouseEvent@2@@Z
       4504 1197 00419FF0 ?addPopupMenuItems@TextEditor@juce@@UEAAXAEAVPopupMenu@2@PEBVMouseEvent@2@@Z
       4505 1198 004B4240 ?addProgressBarComponent@AlertWindow@juce@@QEAAXAEANV?$optional@W4Style@ProgressBar@juce@@@std@@@Z
       4506 1199 0042E120 ?addProperties@PropertyPanel@juce@@QEAAXAEBV?$Array@PEAVPropertyComponent@juce@@VDummyCriticalSection@2@$0A@@2@H@Z
       4507 119A 0039E8A0 ?addQuadrilateral@Path@juce@@QEAAXMMMMMMMM@Z
       4508 119B 0047E8E0 ?addRecentlyUsedFile@FilenameComponent@juce@@QEAAXAEBVFile@2@@Z
       4509 119C 003A93E0 ?addRectangle@Path@juce@@QEAAXMMMM@Z
       4510 119D 0039E980 ?addRoundedRectangle@Path@juce@@QEAAXMMMMM@Z
       4511 119E 003A9380 ?addRoundedRectangle@Path@juce@@QEAAXMMMMMM@Z
       4512 119F 0039E9D0 ?addRoundedRectangle@Path@juce@@QEAAXMMMMMM_N000@Z
       4513 11A0 00077D20 ?addScaleFactorListener@ComponentPeer@juce@@QEAAXPEAUScaleFactorListener@12@@Z
       4514 11A1 0042E020 ?addSection@PropertyPanel@juce@@QEAAXAEBVString@2@AEBV?$Array@PEAVPropertyComponent@juce@@VDummyCriticalSection@2@$0A@@2@_NHH@Z
       4515 11A2 0043BEA0 ?addSectionHeader@PopupMenu@juce@@QEAAXVString@2@@Z
       4516 11A3 0042BFF0 ?addSectionHeading@ComboBox@juce@@QEAAXAEBVString@2@@Z
       4517 11A4 004B1310 ?addSeparator@ComboBox@juce@@QEAAXXZ
       4518 11A5 004B6680 ?addSeparator@PopupMenu@juce@@QEAAXXZ
       4519 11A6 00224000 ?addSequence@MidiMessageSequence@juce@@QEAAXAEBV12@N@Z
       4520 11A7 00223ED0 ?addSequence@MidiMessageSequence@juce@@QEAAXAEBV12@NNN@Z
       4521 11A8 004C5A10 ?addSettingsPage@PreferencesPanel@juce@@QEAAXAEBVString@2@PEBVDrawable@2@11@Z
       4522 11A9 004C5440 ?addSettingsPage@PreferencesPanel@juce@@QEAAXAEBVString@2@PEBXH@Z
       4523 11AA 004D9BA0 ?addShader@OpenGLShaderProgram@juce@@QEAA_NAEBVString@2@I@Z
       4524 11AB 004A25D0 ?addShortcut@Button@juce@@QEAAXAEBVKeyPress@2@@Z
       4525 11AC 00217750 ?addSound@Synthesiser@juce@@QEAAPEAVSynthesiserSound@2@AEBV?$ReferenceCountedObjectPtr@VSynthesiserSound@juce@@@2@@Z
       4526 11AD 0039DAA0 ?addStar@Path@juce@@QEAAXV?$Point@M@2@HMMM@Z
       4527 11AE 002EEAA0 ?addStrings@LocalisedStrings@juce@@QEAAXAEBV12@@Z
       4528 11AF 004B39A0 ?addSubItem@TreeViewItem@juce@@QEAAXPEAV12@H@Z
       4529 11B0 0043C230 ?addSubMenu@PopupMenu@juce@@QEAAXVString@2@V12@_N@Z
       4530 11B1 0043C0D0 ?addSubMenu@PopupMenu@juce@@QEAAXVString@2@V12@_NAEBVImage@2@2H@Z
       4531 11B2 004B68E0 ?addSubMenu@PopupMenu@juce@@QEAAXVString@2@V12@_NV?$unique_ptr@VDrawable@juce@@U?$default_delete@VDrawable@juce@@@std@@@std@@2H@Z
       4532 11B3 0046D6E0 ?addTab@TabbedButtonBar@juce@@QEAAXAEBVString@2@VColour@2@H@Z
       4533 11B4 0046B8C0 ?addTab@TabbedComponent@juce@@QEAAXAEBVString@2@VColour@2@PEAVComponent@2@_NH@Z
       4534 11B5 0040E960 ?addTextBlock@AlertWindow@juce@@QEAAXAEBVString@2@@Z
       4535 11B6 0040EEF0 ?addTextEditor@AlertWindow@juce@@QEAAXAEBVString@2@00_N@Z
       4536 11B7 00310C20 ?addTextElement@XmlElement@juce@@QEAAXAEBVString@2@@Z
       4537 11B8 00317100 ?addTimeSliceClient@TimeSliceThread@juce@@QEAAXPEAVTimeSliceClient@2@H@Z
       4538 11B9 002239F0 ?addTimeToMessages@MidiMessageSequence@juce@@QEAAXN@Z
       4539 11BA 002A1210 ?addToBlacklist@KnownPluginList@juce@@QEAAXAEBVString@2@@Z
       4540 11BB 002E3F90 ?addToDeleteList@ThreadPool@juce@@AEBAXAEAV?$OwnedArray@VThreadPoolJob@juce@@VDummyCriticalSection@2@@2@PEAVThreadPoolJob@2@@Z
       4541 11BC 004BD6B0 ?addToDesktop@Component@juce@@UEAAXHPEAX@Z
       4542 11BD 00402AA0 ?addToDesktop@TopLevelWindow@juce@@QEAAXXZ
       4543 11BE 00402A60 ?addToDesktop@TopLevelWindow@juce@@UEAAXHPEAX@Z
       4544 11BF 002A00B0 ?addToMenu@KnownPluginList@juce@@QEBAXAEAVPopupMenu@2@W4SortMethod@12@AEBVString@2@@Z
       4545 11C0 002A0200 ?addToMenu@KnownPluginList@juce@@SAXAEAVPopupMenu@2@AEBV?$Array@VPluginDescription@juce@@VDummyCriticalSection@2@$0A@@2@W4SortMethod@12@AEBVString@2@@Z
       4546 11C1 004332E0 ?addToPath@CloseSubPath@RelativePointPath@juce@@UEBAXAEAVPath@3@PEAVScope@Expression@3@@Z
       4547 11C2 00432D40 ?addToPath@CubicTo@RelativePointPath@juce@@UEBAXAEAVPath@3@PEAVScope@Expression@3@@Z
       4548 11C3 004331D0 ?addToPath@LineTo@RelativePointPath@juce@@UEBAXAEAVPath@3@PEAVScope@Expression@3@@Z
       4549 11C4 00432FC0 ?addToPath@QuadraticTo@RelativePointPath@juce@@UEBAXAEAVPath@3@PEAVScope@Expression@3@@Z
       4550 11C5 00433390 ?addToPath@StartSubPath@RelativePointPath@juce@@UEBAXAEAVPath@3@PEAVScope@Expression@3@@Z
       4551 11C6 00009D20 ?addToTimeStamp@MidiMessage@juce@@QEAAXN@Z
       4552 11C7 002E71B0 ?addTokens@StringArray@juce@@QEAAHVStringRef@2@00@Z
       4553 11C8 00319480 ?addTokens@StringArray@juce@@QEAAHVStringRef@2@_N@Z
       4554 11C9 00229270 ?addTrack@MidiFile@juce@@QEAAXAEBVMidiMessageSequence@2@@Z
       4555 11CA 00315030 ?addTrailingSeparator@File@juce@@SA?AVString@2@AEBV32@@Z
       4556 11CB 00032E50 ?addTransform@?$StackBasedLowLevelGraphicsContext@VSoftwareRendererSavedState@RenderingHelpers@juce@@@RenderingHelpers@juce@@UEAAXAEBVAffineTransform@3@@Z
       4557 11CC 00397080 ?addTransform@Graphics@juce@@QEAAXAEBVAffineTransform@2@@Z
       4558 11CD 003A4280 ?addTriangle@Path@juce@@QEAAXMMMMMM@Z
       4559 11CE 0039E910 ?addTriangle@Path@juce@@QEAAXV?$Point@M@2@00@Z
       4560 11CF 002A1E10 ?addType@KnownPluginList@juce@@QEAA_NAEBVPluginDescription@2@@Z
       4561 11D0 00311220 ?addUnorderedMap@StringPairArray@juce@@QEAAXAEBV?$unordered_map@VString@juce@@V12@U?$hash@VString@juce@@@std@@U?$equal_to@VString@juce@@@4@V?$allocator@U?$pair@$$CBVString@juce@@V12@@std@@@4@@std@@@Z
       4562 11D1 00077E90 ?addVBlankListener@ComponentPeer@juce@@QEAAXPEAUVBlankListener@12@@Z
       4563 11D2 004D9B80 ?addVertexShader@OpenGLShaderProgram@juce@@QEAA_NAEBVString@2@@Z
       4564 11D3 0021CE70 ?addVoice@MPESynthesiser@juce@@QEAAXPEAVMPESynthesiserVoice@2@@Z
       4565 11D4 002178F0 ?addVoice@Synthesiser@juce@@QEAAPEAVSynthesiserVoice@2@PEAV32@@Z
       4566 11D5 00476360 ?addWindow@MultiDocumentPanel@juce@@AEAAXPEAVComponent@2@@Z
       4567 11D6 0000DBC0 ?addWithMultiply@?$FloatVectorOperationsBase@MH@juce@@SAXPEAMPEBM1H@Z
       4568 11D7 0000DBD0 ?addWithMultiply@?$FloatVectorOperationsBase@MH@juce@@SAXPEAMPEBMMH@Z
       4569 11D8 0000DF30 ?addWithMultiply@?$FloatVectorOperationsBase@M_K@juce@@SAXPEAMPEBM1_K@Z
       4570 11D9 0000DF40 ?addWithMultiply@?$FloatVectorOperationsBase@M_K@juce@@SAXPEAMPEBMM_K@Z
       4571 11DA 0000E460 ?addWithMultiply@?$FloatVectorOperationsBase@NH@juce@@SAXPEANPEBN1H@Z
       4572 11DB 0000E470 ?addWithMultiply@?$FloatVectorOperationsBase@NH@juce@@SAXPEANPEBNNH@Z
       4573 11DC 0000EA00 ?addWithMultiply@?$FloatVectorOperationsBase@N_K@juce@@SAXPEANPEBN1_K@Z
       4574 11DD 0000EA10 ?addWithMultiply@?$FloatVectorOperationsBase@N_K@juce@@SAXPEANPEBNN_K@Z
       4575 11DE 002FCA30 ?adjustedToGiveNewResult@Expression@juce@@QEBA?AV12@NAEBVScope@12@@Z
       4576 11DF 002261C0 ?aftertouchChange@MidiMessage@juce@@SA?AV12@HHH@Z
       4577 11E0 00218050 ?aftertouchChanged@SynthesiserVoice@juce@@UEAAXH@Z
       4578 11E1 00225A80 ?allControllersOff@MidiMessage@juce@@SA?AV12@H@Z
       4579 11E2 002280E0 ?allNotesOff@MidiKeyboardState@juce@@QEAAXH@Z
       4580 11E3 00225B90 ?allNotesOff@MidiMessage@juce@@SA?AV12@H@Z
       4581 11E4 00216CC0 ?allNotesOff@Synthesiser@juce@@UEAAXH_N@Z
       4582 11E5 00225B20 ?allSoundOff@MidiMessage@juce@@SA?AV12@H@Z
       4583 11E6 003A0160 ?allocate@EdgeTable@juce@@AEAAXXZ
       4584 11E7 00227460 ?allocateSpace@MidiMessage@juce@@AEAAPEAEH@Z
       4585 11E8 004A8040 ?allowedOrientationsChanged@Desktop@juce@@AEAAXXZ
       4586 11E9 004BC9B0 ?alphaChanged@Component@juce@@UEAAXXZ
       4587 11EA 0022CC60 ?ambisonic@AudioChannelSet@juce@@SA?AV12@H@Z
       4588 11EB 0047C4E0 ?animateComponent@ComponentAnimator@juce@@QEAAXPEAVComponent@2@AEBV?$Rectangle@H@2@MH_NNN@Z
       4589 11EC 004A3D30 ?anotherInstanceStarted@JUCEApplication@juce@@UEAAXAEBVString@2@@Z
       4590 11ED 002F2870 ?any@IPAddress@juce@@SA?AV12@XZ
       4591 11EE 007BF070 ?appInstance@JUCEApplicationBase@juce@@0PEAV12@EA
       4592 11EF 00005960 ?appStyleChanged@ComponentPeer@juce@@EEAAXXZ
       4593 11F0 0032D780 ?appWillTerminateByForce@JUCEApplicationBase@juce@@SAXXZ
       4594 11F1 003559E0 ?append@AttributedString@juce@@QEAAXAEBV12@@Z
       4595 11F2 00355C20 ?append@AttributedString@juce@@QEAAXAEBVString@2@@Z
       4596 11F3 003A6850 ?append@AttributedString@juce@@QEAAXAEBVString@2@AEBVFont@2@@Z
       4597 11F4 00355AF0 ?append@AttributedString@juce@@QEAAXAEBVString@2@AEBVFont@2@VColour@2@@Z
       4598 11F5 00355B90 ?append@AttributedString@juce@@QEAAXAEBVString@2@VColour@2@@Z
       4599 11F6 0029B6A0 ?append@AudioProcessorParameterGroup@juce@@AEAAXV?$unique_ptr@VAudioProcessorParameter@juce@@U?$default_delete@VAudioProcessorParameter@juce@@@std@@@std@@@Z
       4600 11F7 0029B610 ?append@AudioProcessorParameterGroup@juce@@AEAAXV?$unique_ptr@VAudioProcessorParameterGroup@juce@@U?$default_delete@VAudioProcessorParameterGroup@juce@@@std@@@std@@@Z
       4601 11F8 002FBD60 ?append@MemoryBlock@juce@@QEAAXPEBX_K@Z
       4602 11F9 002ECBF0 ?append@String@juce@@QEAAXAEBV12@_K@Z
       4603 11FA 002DC960 ?append@var@juce@@QEAAXAEBV12@@Z
       4604 11FB 002ECB40 ?appendCharPointer@String@juce@@QEAAXVCharPointer_UTF8@2@0@Z
       4605 11FC 002ECBC0 ?appendCharPointer@String@juce@@QEAAXVCharPointer_UTF8@2@@Z
       4606 11FD 00326710 ?appendChild@ValueTree@juce@@QEAAXAEBV12@PEAVUndoManager@2@@Z
       4607 11FE 003052F0 ?appendData@File@juce@@QEBA_NPEBX_K@Z
       4608 11FF 003144C0 ?appendNumbersToDuplicates@StringArray@juce@@QEAAX_N0VCharPointer_UTF8@2@1@Z
       4609 1200 00304F80 ?appendText@File@juce@@QEBA_NAEBVString@2@_N1PEBD@Z
       4610 1201 002F0CD0 ?appendUTF8Char@MemoryOutputStream@juce@@QEAA_NI@Z
       4611 1202 0059ADC8 ?appleBeats@AiffAudioFormat@juce@@2QEBDEB
       4612 1203 0059C588 ?appleDenominator@AiffAudioFormat@juce@@2QEBDEB
       4613 1204 0059AD90 ?appleKey@AiffAudioFormat@juce@@2QEBDEB
       4614 1205 0059AE08 ?appleNumerator@AiffAudioFormat@juce@@2QEBDEB
       4615 1206 0059AF00 ?appleOneShot@AiffAudioFormat@juce@@2QEBDEB
       4616 1207 0059B0F0 ?appleRootNote@AiffAudioFormat@juce@@2QEBDEB
       4617 1208 0059B048 ?appleRootSet@AiffAudioFormat@juce@@2QEBDEB
       4618 1209 0059AD68 ?appleTag@AiffAudioFormat@juce@@2QEBDEB
       4619 120A 0043E410 ?applicationCommandInvoked@MenuBarModel@juce@@UEAAXAEBUInvocationInfo@ApplicationCommandTarget@2@@Z
       4620 120B 004A2610 ?applicationCommandListChangeCallback@Button@juce@@AEAAXXZ
       4621 120C 0043E3C0 ?applicationCommandListChanged@MenuBarModel@juce@@UEAAXXZ
       4622 120D 002E6150 ?appliedTo@TextDiff@juce@@QEBA?AVString@2@V32@@Z
       4623 120E 0028CE80 ?appliesToChannel@SamplerSound@juce@@UEAA_NH@Z
       4624 120F 0028CE90 ?appliesToNote@SamplerSound@juce@@UEAA_NH@Z
       4625 1210 0031D4A0 ?apply@BlowFish@juce@@AEBA_NPEAX_KP812@EBAXAEAI2@Z@Z
       4626 1211 00435930 ?apply@RelativeCoordinatePositionerBase@juce@@QEAAXXZ
       4627 1212 0029F490 ?applyBlacklistingsFromDeadMansPedal@PluginDirectoryScanner@juce@@SAXAEAVKnownPluginList@2@AEBVFile@2@@Z
       4628 1213 004B7200 ?applyBoundsToComponent@ComponentBoundsConstrainer@juce@@UEAAXAEAVComponent@2@V?$Rectangle@H@2@@Z
       4629 1214 002A87B0 ?applyBusLayouts@AudioProcessor@juce@@MEAA_NAEBUBusesLayout@12@@Z
       4630 1215 00321F50 ?applyChange@ValueTreeSynchroniser@juce@@SA_NAEAVValueTree@2@PEBX_KPEAVUndoManager@2@@Z
       4631 1216 004D30F0 ?applyChanges@CodeDocument@juce@@QEAAXAEBVString@2@@Z
       4632 1217 0041E5F0 ?applyColourToAllText@TextEditor@juce@@QEAAXAEBVColour@2@_N@Z
       4633 1218 0048DF90 ?applyDrawableClipPath@Drawable@juce@@IEAAXAEAVGraphics@2@@Z
       4634 1219 003A75B0 ?applyEffect@DropShadowEffect@juce@@UEAAXAEAVImage@2@AEAVGraphics@2@MM@Z
       4635 121A 003A5110 ?applyEffect@GlowEffect@juce@@UEAAXAEAVImage@2@AEAVGraphics@2@MM@Z
       4636 121B 00218A10 ?applyFilter@ResamplingAudioSource@juce@@AEAAXPEAMHAEAUFilterState@12@@Z
       4637 121C 0041E680 ?applyFontToAllText@TextEditor@juce@@QEAAXAEBVFont@2@_N@Z
       4638 121D 00393490 ?applyGaussianBlurEffect@ImagePixelData@juce@@UEAAXMAEAVImage@2@@Z
       4639 121E 00478F80 ?applyLayout@ConcertinaPanel@juce@@AEAAXAEBUPanelSizes@12@_N@Z
       4640 121F 00393460 ?applySingleChannelBoxBlurEffect@ImagePixelData@juce@@UEAAXHAEAVImage@2@@Z
       4641 1220 00397930 ?applyTo@RectanglePlacement@juce@@QEBAXAEAN000NNNN@Z
       4642 1221 00431380 ?applyToComponent@RelativeRectangle@juce@@QEBAXAEAVComponent@2@@Z
       4643 1222 00390540 ?applyToImage@ImageConvolutionKernel@juce@@QEBAXAEAVImage@2@AEBV32@AEBV?$Rectangle@H@2@@Z
       4644 1223 0031B240 ?applyToValue@RSAKey@juce@@QEBA_NAEAVBigInteger@2@@Z
       4645 1224 003A8BB0 ?applyTransform@Path@juce@@QEAAXAEBVAffineTransform@2@@Z
       4646 1225 00354DD0 ?applyVerticalHintingTransform@Typeface@juce@@QEAAXMAEAVPath@2@@Z
       4647 1226 00411270 ?areAllParentsOpen@TreeViewItem@juce@@QEBA_NXZ
       4648 1227 002315A0 ?areDenormalsDisabled@FloatVectorOperations@juce@@SA_NXZ
       4649 1228 003085F0 ?areFileNamesCaseSensitive@File@juce@@SA_NXZ
       4650 1229 00077640 ?areItemsOpenByDefault@TreeView@juce@@QEBA_NXZ
       4651 122A 00410F10 ?areLinesDrawn@TreeViewItem@juce@@AEBA_NXZ
       4652 122B 0045F970 ?areLinesDrawnForTreeView@LookAndFeel_V2@juce@@UEAA_NAEAVTreeView@2@@Z
       4653 122C 0044D480 ?areLinesDrawnForTreeView@LookAndFeel_V3@juce@@UEAA_NAEAVTreeView@2@@Z
       4654 122D 00079BA0 ?areMouseEventsAllowed@ActiveXControlComponent@juce@@QEBA_NXZ
       4655 122E 004C4B70 ?areNotificationsEnabled@PushNotifications@juce@@QEBA_NXZ
       4656 122F 00077660 ?areOpenCloseButtonsVisible@TreeView@juce@@QEBA_NXZ
       4657 1230 004C0600 ?areOptionsSupported@WebBrowserComponent@juce@@SA_NAEBVOptions@12@@Z
       4658 1231 00460DD0 ?areScrollbarButtonsVisible@LookAndFeel_V2@juce@@UEAA_NXZ
       4659 1232 0044F750 ?areScrollbarButtonsVisible@LookAndFeel_V3@juce@@UEAA_NXZ
       4660 1233 00076CF0 ?areScrollbarsShown@TextEditor@juce@@QEBA_NXZ
       4661 1234 004D8130 ?areShadersAvailable@OpenGLContext@juce@@QEBA_NXZ
       4662 1235 00079960 ?areSpacesInsertedForTabs@CodeEditorComponent@juce@@QEBA_NXZ
       4663 1236 00222A80 ?as14BitInt@MPEValue@juce@@QEBAHXZ
       4664 1237 00222A90 ?as7BitInt@MPEValue@juce@@QEBAHXZ
       4665 1238 00222A30 ?asSignedFloat@MPEValue@juce@@QEBAMXZ
       4666 1239 00222A00 ?asUnsignedFloat@MPEValue@juce@@QEBAMXZ
       4667 123A 002A5FD0 ?assertOnceOnDeprecatedMethodUse@AudioPluginInstance@juce@@AEBAXXZ
       4668 123B 00428190 ?assignModelPtr@ListBox@juce@@AEAAXPEAVListBoxModel@2@@Z
       4669 123C 0059ADC0 ?aswgAccent@WavAudioFormat@juce@@2QEBDEB
       4670 123D 0059B0A0 ?aswgActorGender@WavAudioFormat@juce@@2QEBDEB
       4671 123E 0059C628 ?aswgActorName@WavAudioFormat@juce@@2QEBDEB
       4672 123F 0059AF40 ?aswgAmbisonicChnOrder@WavAudioFormat@juce@@2QEBDEB
       4673 1240 0059C4C0 ?aswgAmbisonicFormat@WavAudioFormat@juce@@2QEBDEB
       4674 1241 0059AE40 ?aswgAmbisonicNorm@WavAudioFormat@juce@@2QEBDEB
       4675 1242 0059AE60 ?aswgArtist@WavAudioFormat@juce@@2QEBDEB
       4676 1243 0059AD98 ?aswgBillingCode@WavAudioFormat@juce@@2QEBDEB
       4677 1244 0059C4F8 ?aswgCatId@WavAudioFormat@juce@@2QEBDEB
       4678 1245 0059C598 ?aswgCategory@WavAudioFormat@juce@@2QEBDEB
       4679 1246 0059AF98 ?aswgChannelConfig@WavAudioFormat@juce@@2QEBDEB
       4680 1247 0059C538 ?aswgCharacterAge@WavAudioFormat@juce@@2QEBDEB
       4681 1248 0059C470 ?aswgCharacterGender@WavAudioFormat@juce@@2QEBDEB
       4682 1249 0059C548 ?aswgCharacterName@WavAudioFormat@juce@@2QEBDEB
       4683 124A 0059AD78 ?aswgCharacterRole@WavAudioFormat@juce@@2QEBDEB
       4684 124B 0059AEB8 ?aswgComposor@WavAudioFormat@juce@@2QEBDEB
       4685 124C 0059C400 ?aswgContentType@WavAudioFormat@juce@@2QEBDEB
       4686 124D 0059AF30 ?aswgCreatorId@WavAudioFormat@juce@@2QEBDEB
       4687 124E 0059C690 ?aswgDirection@WavAudioFormat@juce@@2QEBDEB
       4688 124F 0059AF38 ?aswgDirector@WavAudioFormat@juce@@2QEBDEB
       4689 1250 0059C5B0 ?aswgEditor@WavAudioFormat@juce@@2QEBDEB
       4690 1251 0059C448 ?aswgEffortType@WavAudioFormat@juce@@2QEBDEB
       4691 1252 0059B100 ?aswgEfforts@WavAudioFormat@juce@@2QEBDEB
       4692 1253 0059AE00 ?aswgEmotion@WavAudioFormat@juce@@2QEBDEB
       4693 1254 0059AE28 ?aswgFxChainName@WavAudioFormat@juce@@2QEBDEB
       4694 1255 0059B0D0 ?aswgFxName@WavAudioFormat@juce@@2QEBDEB
       4695 1256 0059B028 ?aswgFxUsed@WavAudioFormat@juce@@2QEBDEB
       4696 1257 0059B0B0 ?aswgGenre@WavAudioFormat@juce@@2QEBDEB
       4697 1258 0059B0D8 ?aswgImpulseLocation@WavAudioFormat@juce@@2QEBDEB
       4698 1259 0059B098 ?aswgInKey@WavAudioFormat@juce@@2QEBDEB
       4699 125A 0059C678 ?aswgInstrument@WavAudioFormat@juce@@2QEBDEB
       4700 125B 0059AFB8 ?aswgIntensity@WavAudioFormat@juce@@2QEBDEB
       4701 125C 0059C450 ?aswgIsCinematic@WavAudioFormat@juce@@2QEBDEB
       4702 125D 0059C578 ?aswgIsDesigned@WavAudioFormat@juce@@2QEBDEB
       4703 125E 0059AFB0 ?aswgIsDiegetic@WavAudioFormat@juce@@2QEBDEB
       4704 125F 0059C3F8 ?aswgIsFinal@WavAudioFormat@juce@@2QEBDEB
       4705 1260 0059C4A8 ?aswgIsLicensed@WavAudioFormat@juce@@2QEBDEB
       4706 1261 0059AE98 ?aswgIsLoop@WavAudioFormat@juce@@2QEBDEB
       4707 1262 0059C5E0 ?aswgIsOst@WavAudioFormat@juce@@2QEBDEB
       4708 1263 0059B0E8 ?aswgIsSource@WavAudioFormat@juce@@2QEBDEB
       4709 1264 0059AFD0 ?aswgIsUnion@WavAudioFormat@juce@@2QEBDEB
       4710 1265 0059C490 ?aswgIsrcId@WavAudioFormat@juce@@2QEBDEB
       4711 1266 0059C660 ?aswgLanguage@WavAudioFormat@juce@@2QEBDEB
       4712 1267 0059AF78 ?aswgLibrary@WavAudioFormat@juce@@2QEBDEB
       4713 1268 0059C498 ?aswgLoudness@WavAudioFormat@juce@@2QEBDEB
       4714 1269 0059C680 ?aswgLoudnessRange@WavAudioFormat@juce@@2QEBDEB
       4715 126A 0059C688 ?aswgMaxPeak@WavAudioFormat@juce@@2QEBDEB
       4716 126B 0059B090 ?aswgMicConfig@WavAudioFormat@juce@@2QEBDEB
       4717 126C 0059AF48 ?aswgMicDistance@WavAudioFormat@juce@@2QEBDEB
       4718 126D 0059C5B8 ?aswgMicType@WavAudioFormat@juce@@2QEBDEB
       4719 126E 0059AED8 ?aswgMixer@WavAudioFormat@juce@@2QEBDEB
       4720 126F 0059C520 ?aswgMusicPublisher@WavAudioFormat@juce@@2QEBDEB
       4721 1270 0059AD50 ?aswgMusicSup@WavAudioFormat@juce@@2QEBDEB
       4722 1271 0059C468 ?aswgMusicVersion@WavAudioFormat@juce@@2QEBDEB
       4723 1272 00509C48 ?aswgNotes@WavAudioFormat@juce@@2QEBDEB
       4724 1273 0059C630 ?aswgOrderRef@WavAudioFormat@juce@@2QEBDEB
       4725 1274 0059AFF8 ?aswgOriginator@WavAudioFormat@juce@@2QEBDEB
       4726 1275 0059AEF0 ?aswgOriginatorStudio@WavAudioFormat@juce@@2QEBDEB
       4727 1276 0059C4B8 ?aswgPapr@WavAudioFormat@juce@@2QEBDEB
       4728 1277 0059B0F8 ?aswgProducer@WavAudioFormat@juce@@2QEBDEB
       4729 1278 0059B0E0 ?aswgProject@WavAudioFormat@juce@@2QEBDEB
       4730 1279 0059C668 ?aswgProjection@WavAudioFormat@juce@@2QEBDEB
       4731 127A 0059C5A0 ?aswgRecEngineer@WavAudioFormat@juce@@2QEBDEB
       4732 127B 0059AE10 ?aswgRecStudio@WavAudioFormat@juce@@2QEBDEB
       4733 127C 0059C620 ?aswgRecordingLoc@WavAudioFormat@juce@@2QEBDEB
       4734 127D 0059C550 ?aswgRightsOwner@WavAudioFormat@juce@@2QEBDEB
       4735 127E 0059AE58 ?aswgRmsPower@WavAudioFormat@juce@@2QEBDEB
       4736 127F 0059C508 ?aswgSession@WavAudioFormat@juce@@2QEBDEB
       4737 1280 0059ADE8 ?aswgSongTitle@WavAudioFormat@juce@@2QEBDEB
       4738 1281 0059C698 ?aswgSourceId@WavAudioFormat@juce@@2QEBDEB
       4739 1282 0059AFF0 ?aswgSpecDensity@WavAudioFormat@juce@@2QEBDEB
       4740 1283 0059AE18 ?aswgState@WavAudioFormat@juce@@2QEBDEB
       4741 1284 0059B008 ?aswgSubCategory@WavAudioFormat@juce@@2QEBDEB
       4742 1285 0059C478 ?aswgSubGenre@WavAudioFormat@juce@@2QEBDEB
       4743 1286 0059AFE8 ?aswgTempo@WavAudioFormat@juce@@2QEBDEB
       4744 1287 00509C08 ?aswgText@WavAudioFormat@juce@@2QEBDEB
       4745 1288 0059AF60 ?aswgTimeSig@WavAudioFormat@juce@@2QEBDEB
       4746 1289 0059AF58 ?aswgTimingRestriction@WavAudioFormat@juce@@2QEBDEB
       4747 128A 0059B030 ?aswgUsageRights@WavAudioFormat@juce@@2QEBDEB
       4748 128B 0059B0B8 ?aswgUserCategory@WavAudioFormat@juce@@2QEBDEB
       4749 128C 0059C458 ?aswgUserData@WavAudioFormat@juce@@2QEBDEB
       4750 128D 0059B060 ?aswgVendorCategory@WavAudioFormat@juce@@2QEBDEB
       4751 128E 00509C38 ?aswgVersion@WavAudioFormat@juce@@2QEBDEB
       4752 128F 0059AEF8 ?aswgZeroCrossRate@WavAudioFormat@juce@@2QEBDEB
       4753 1290 004922D0 ?attachCallback@ModalComponentManager@juce@@QEAAXPEAVComponent@2@PEAVCallback@12@@Z
       4754 1291 002A56C0 ?attachConstrainer@AudioProcessorEditor@juce@@AEAAXPEAVComponentBoundsConstrainer@2@@Z
       4755 1292 002A55A0 ?attachResizableCornerComponent@AudioProcessorEditor@juce@@AEAAXXZ
       4756 1293 004D8620 ?attachTo@OpenGLContext@juce@@QEAAXAEAVComponent@2@@Z
       4757 1294 004B1390 ?attachToComponent@Label@juce@@QEAAXPEAVComponent@2@_N@Z
       4758 1295 0032BB30 ?attemptLock@MessageManagerLock@juce@@AEAA_NPEAVThread@2@PEAVThreadPoolJob@2@@Z
       4759 1296 002AD6E0 ?audioDeviceAboutToStart@AudioProcessorPlayer@juce@@UEAAXPEAVAudioIODevice@2@@Z
       4760 1297 00235680 ?audioDeviceAboutToStart@AudioSourcePlayer@juce@@UEAAXPEAVAudioIODevice@2@@Z
       4761 1298 002AECB0 ?audioDeviceAboutToStart@SoundPlayer@juce@@UEAAXPEAVAudioIODevice@2@@Z
       4762 1299 002383D0 ?audioDeviceAboutToStartInt@AudioDeviceManager@juce@@AEAAXPEAVAudioIODevice@2@@Z
       4763 129A 00236C60 ?audioDeviceError@AudioIODeviceCallback@juce@@UEAAXAEBVString@2@@Z
       4764 129B 002AEC70 ?audioDeviceError@SoundPlayer@juce@@UEAAXAEBVString@2@@Z
       4765 129C 002382B0 ?audioDeviceErrorInt@AudioDeviceManager@juce@@AEAAXAEBVString@2@@Z
       4766 129D 002384A0 ?audioDeviceIOCallbackInt@AudioDeviceManager@juce@@AEAAXPEBQEBMHPEBQEAMHHAEBUAudioIODeviceCallbackContext@2@@Z
       4767 129E 00236D40 ?audioDeviceIOCallbackWithContext@AudioIODeviceCallback@juce@@UEAAXPEBQEBMHPEBQEAMHHAEBUAudioIODeviceCallbackContext@2@@Z
       4768 129F 002ADA40 ?audioDeviceIOCallbackWithContext@AudioProcessorPlayer@juce@@UEAAXPEBQEBMHPEBQEAMHHAEBUAudioIODeviceCallbackContext@2@@Z
       4769 12A0 00235700 ?audioDeviceIOCallbackWithContext@AudioSourcePlayer@juce@@UEAAXPEBQEBMHPEBQEAMHHAEBUAudioIODeviceCallbackContext@2@@Z
       4770 12A1 002AED10 ?audioDeviceIOCallbackWithContext@SoundPlayer@juce@@UEAAXPEBQEBMHPEBQEAMHHAEBUAudioIODeviceCallbackContext@2@@Z
       4771 12A2 0023E0A0 ?audioDeviceListChanged@AudioDeviceManager@juce@@AEAAXXZ
       4772 12A3 002AD580 ?audioDeviceStopped@AudioProcessorPlayer@juce@@UEAAXXZ
       4773 12A4 00235510 ?audioDeviceStopped@AudioSourcePlayer@juce@@UEAAXXZ
       4774 12A5 002AEC90 ?audioDeviceStopped@SoundPlayer@juce@@UEAAXXZ
       4775 12A6 00238330 ?audioDeviceStoppedInt@AudioDeviceManager@juce@@AEAAXXZ
       4776 12A7 002A8600 ?audioIOChanged@AudioProcessor@juce@@AEAAX_N0@Z
       4777 12A8 002A6C20 ?audioProcessorParameterChangeGestureBegin@AudioProcessorListener@juce@@UEAAXPEAVAudioProcessor@2@H@Z
       4778 12A9 002A6C10 ?audioProcessorParameterChangeGestureEnd@AudioProcessorListener@juce@@UEAAXPEAVAudioProcessor@2@H@Z
       4779 12AA 00005960 ?audioWorkgroupContextChanged@AudioProcessor@juce@@UEAAXAEBVAudioWorkgroup@2@@Z
       4780 12AB 00472890 ?autoHides@ScrollBar@juce@@QEBA_NXZ
       4781 12AC 00469E20 ?autoScroll@Viewport@juce@@QEAA_NHHHH@Z
       4782 12AD 004205B0 ?autoSizeAllColumns@TableListBox@juce@@QEAAXXZ
       4783 12AE 004206D0 ?autoSizeColumn@TableListBox@juce@@QEAAXH@Z
       4784 12AF 005E9EF0 ?autoValue@FlexItem@juce@@2HB
       4785 12B0 00004FE0 ?backButtonPressed@JUCEApplicationBase@juce@@UEAA_NXZ
       4786 12B1 004B3D00 ?backgroundClicked@ListBoxModel@juce@@UEAAXAEBVMouseEvent@2@@Z
       4787 12B2 00420020 ?backgroundClicked@TableListBox@juce@@UEAAXAEBVMouseEvent@2@@Z
       4788 12B3 004B5030 ?backgroundClicked@TableListBoxModel@juce@@UEAAXAEBVMouseEvent@2@@Z
       4789 12B4 005D29A0 ?backspaceKey@KeyPress@juce@@2HB
       4790 12B5 000056F0 ?begin@AudioFormatManager@juce@@QEAAPEAPEAVAudioFormat@2@XZ
       4791 12B6 000056F0 ?begin@AudioFormatManager@juce@@QEBAPEBQEAVAudioFormat@2@XZ
       4792 12B7 0029B740 ?begin@AudioProcessorParameterGroup@juce@@QEBAPEBQEBVAudioProcessorParameterNode@12@XZ
       4793 12B8 000056F0 ?begin@GlyphArrangement@juce@@QEBAPEBVPositionedGlyph@2@XZ
       4794 12B9 00004FB0 ?begin@KnownPluginList@juce@@QEAAPEAPEAVPluginDescription@2@XZ
       4795 12BA 00004FB0 ?begin@KnownPluginList@juce@@QEBAPEBQEAVPluginDescription@2@XZ
       4796 12BB 000056F0 ?begin@MemoryBlock@juce@@QEAAPEADXZ
       4797 12BC 000056F0 ?begin@MemoryBlock@juce@@QEBAPEBDXZ
       4798 12BD 000056B0 ?begin@MidiBuffer@juce@@QEBA?AVMidiBufferIterator@2@XZ
       4799 12BE 00224540 ?begin@MidiMessageSequence@juce@@QEAAPEAPEAVMidiEventHolder@12@XZ
       4800 12BF 00224530 ?begin@MidiMessageSequence@juce@@QEBAPEBQEAVMidiEventHolder@12@XZ
       4801 12C0 000056F0 ?begin@NamedValueSet@juce@@QEBAPEBUNamedValue@12@XZ
       4802 12C1 000056B0 ?begin@String@juce@@QEBA?AVCharPointer_UTF8@2@XZ
       4803 12C2 000056F0 ?begin@StringArray@juce@@QEAAPEAVString@2@XZ
       4804 12C3 000056F0 ?begin@StringArray@juce@@QEBAPEBVString@2@XZ
       4805 12C4 000056B0 ?begin@TextLayout@juce@@QEAA?AV?$DereferencingIterator@PEBQEAVLine@TextLayout@juce@@@12@XZ
       4806 12C5 000056B0 ?begin@TextLayout@juce@@QEBA?AV?$DereferencingIterator@PEBQEBVLine@TextLayout@juce@@@12@XZ
       4807 12C6 003266A0 ?begin@ValueTree@juce@@QEBA?AUIterator@12@XZ
       4808 12C7 002A6AA0 ?beginChangeGesture@AudioProcessorParameter@juce@@QEAAXXZ
       4809 12C8 00421370 ?beginDrag@TableHeaderComponent@juce@@AEAAXAEBVMouseEvent@2@@Z
       4810 12C9 00493EF0 ?beginDragAutoRepeat@Component@juce@@SAXH@Z
       4811 12CA 00491070 ?beginDragAutoRepeat@Desktop@juce@@QEAAXH@Z
       4812 12CB 002DEAB0 ?beginNewTest@UnitTestRunner@juce@@AEAAXPEAVUnitTest@2@AEBVString@2@@Z
       4813 12CC 00321710 ?beginNewTransaction@UndoManager@juce@@QEAAXAEBVString@2@@Z
       4814 12CD 00327430 ?beginNewTransaction@UndoManager@juce@@QEAAXXZ
       4815 12CE 002A73D0 ?beginParameterChangeGesture@AudioProcessor@juce@@QEAAXH@Z
       4816 12CF 002DF3C0 ?beginTest@UnitTest@juce@@QEAAXAEBVString@2@@Z
       4817 12D0 00032AC0 ?beginTransparencyLayer@?$StackBasedLowLevelGraphicsContext@VSoftwareRendererSavedState@RenderingHelpers@juce@@@RenderingHelpers@juce@@UEAAXM@Z
       4818 12D1 00397010 ?beginTransparencyLayer@Graphics@juce@@QEAAXM@Z
       4819 12D2 00329690 ?beginWaitingForSocket@InterprocessConnectionServer@juce@@QEAA_NHAEBVString@2@@Z
       4820 12D3 00005240 ?bigEndian24Bit@ByteOrder@juce@@SAHPEBX@Z
       4821 12D4 00005280 ?bigEndian24BitToChars@ByteOrder@juce@@SAXHPEAX@Z
       4822 12D5 000051C0 ?bigEndianInt64@ByteOrder@juce@@SA_KPEBX@Z
       4823 12D6 000051A0 ?bigEndianInt@ByteOrder@juce@@SAIPEBX@Z
       4824 12D7 00005190 ?bigEndianShort@ByteOrder@juce@@SAGPEBX@Z
       4825 12D8 004D8B20 ?bind@OpenGLTexture@juce@@QEBAXXZ
       4826 12D9 002F3E70 ?bindToPort@DatagramSocket@juce@@QEAA_NH@Z
       4827 12DA 002F3E10 ?bindToPort@DatagramSocket@juce@@QEAA_NHAEBVString@2@@Z
       4828 12DB 002F4670 ?bindToPort@StreamingSocket@juce@@QEAA_NH@Z
       4829 12DC 002F4660 ?bindToPort@StreamingSocket@juce@@QEAA_NHAEBVString@2@@Z
       4830 12DD 0001FE40 ?blend@PixelARGB@juce@@QEAAXVPixelRGB@2@@Z
       4831 12DE 0001FDB0 ?blend@PixelRGB@juce@@QEAAXV12@@Z
       4832 12DF 00351A60 ?boldened@Font@juce@@QEBA?AV12@XZ
       4833 12E0 003A3D50 ?brighter@Colour@juce@@QEBA?AV12@M@Z
       4834 12E1 00491D50 ?bringModalComponentsToFront@ModalComponentManager@juce@@QEAAX_N@Z
       4835 12E2 002F2850 ?broadcast@IPAddress@juce@@SA?AV12@XZ
       4836 12E3 00327AA0 ?broadcastMessage@MessageManager@juce@@SAXAEBVString@2@@Z
       4837 12E4 004BC6E0 ?broughtToFront@Component@juce@@UEAAXXZ
       4838 12E5 00476F50 ?broughtToFront@MultiDocumentPanelWindow@juce@@UEAAXXZ
       4839 12E6 00485310 ?browserRootChanged@FileBrowserComponent@juce@@UEAAXAEBVFile@2@@Z
       4840 12E7 004830B0 ?browserRootChanged@FileChooserDialogBox@juce@@EEAAXAEBVFile@2@@Z
       4841 12E8 0008BEC0 ?buildOptions@?$OptionsBuilder@VOptions@WebBrowserComponent@juce@@@@QEAA?AVOptions@WebBrowserComponent@juce@@XZ
       4842 12E9 004C0D50 ?buildOptions@WebComboBoxRelay@juce@@UEAA?AVOptions@WebBrowserComponent@2@AEBV342@@Z
       4843 12EA 0007B7B0 ?buildOptions@WebControlParameterIndexReceiver@juce@@UEAA?AVOptions@WebBrowserComponent@2@AEBV342@@Z
       4844 12EB 004C1830 ?buildOptions@WebSliderRelay@juce@@UEAA?AVOptions@WebBrowserComponent@2@AEBV342@@Z
       4845 12EC 004C1220 ?buildOptions@WebToggleButtonRelay@juce@@UEAA?AVOptions@WebBrowserComponent@2@AEBV342@@Z
       4846 12ED 002A93F0 ?busesPropertiesFromLayoutArray@AudioProcessor@juce@@CA?AUBusesProperties@12@AEBV?$Array@UInOutChannelPair@AudioProcessor@juce@@VDummyCriticalSection@3@$0A@@2@@Z
       4847 12EE 004AF490 ?buttonStateChanged@Button@juce@@MEAAXXZ
       4848 12EF 004A1910 ?buttonStateChanged@DrawableButton@juce@@UEAAXXZ
       4849 12F0 00005960 ?buttonStateChanged@Listener@Button@juce@@UEAAXPEAV23@@Z
       4850 12F1 0049F040 ?buttonStateChanged@ToolbarButton@juce@@UEAAXXZ
       4851 12F2 0059ADB0 ?bwavCodingHistory@WavAudioFormat@juce@@2QEBDEB
       4852 12F3 0059C3F0 ?bwavDescription@WavAudioFormat@juce@@2QEBDEB
       4853 12F4 0059C488 ?bwavOriginationDate@WavAudioFormat@juce@@2QEBDEB
       4854 12F5 00509C18 ?bwavOriginationTime@WavAudioFormat@juce@@2QEBDEB
       4855 12F6 0059AFA0 ?bwavOriginator@WavAudioFormat@juce@@2QEBDEB
       4856 12F7 0059B068 ?bwavOriginatorRef@WavAudioFormat@juce@@2QEBDEB
       4857 12F8 00509C60 ?bwavTimeReference@WavAudioFormat@juce@@2QEBDEB
       4858 12F9 0046DF80 ?calcAreas@TabBarButton@juce@@AEBAXAEAV?$Rectangle@H@2@0@Z
       4859 12FA 002DCD70 ?call@var@juce@@QEAA?AV12@AEBVIdentifier@2@AEBV12@11@Z
       4860 12FB 002DCF70 ?call@var@juce@@QEBA?AV12@AEBVIdentifier@2@@Z
       4861 12FC 002DCB00 ?call@var@juce@@QEBA?AV12@AEBVIdentifier@2@AEBV12@1111@Z
       4862 12FD 002DCC50 ?call@var@juce@@QEBA?AV12@AEBVIdentifier@2@AEBV12@111@Z
       4863 12FE 002DCE70 ?call@var@juce@@QEBA?AV12@AEBVIdentifier@2@AEBV12@1@Z
       4864 12FF 002DCF40 ?call@var@juce@@QEBA?AV12@AEBVIdentifier@2@AEBV12@@Z
       4865 1300 0032ABD0 ?callAfterDelay@Timer@juce@@SAXHV?$function@$$A6AXXZ@std@@@Z
       4866 1301 0032D7E0 ?callAsync@MessageManager@juce@@SA_NV?$function@$$A6AXXZ@std@@@Z
       4867 1302 00428580 ?callChangeListeners@Label@juce@@IEAAXXZ
       4868 1303 002369E0 ?callDeviceChangeListeners@AudioIODeviceType@juce@@IEAAXXZ
       4869 1304 0032C7C0 ?callFunctionOnMessageThread@MessageManager@juce@@QEAAPEAXP6APEAXPEAX@Z0@Z
       4870 1305 0032B2D0 ?callListeners@ChangeBroadcaster@juce@@AEAAXXZ
       4871 1306 0042C2C0 ?callListeners@TextPropertyComponent@juce@@AEAAXXZ
       4872 1307 00325F20 ?callListeners@Value@juce@@AEAAXXZ
       4873 1308 0021FE10 ?callListenersDimensionChanged@MPEInstrument@juce@@AEAAXAEBUMPENote@2@AEBUMPEDimension@12@@Z
       4874 1309 0032ACE0 ?callPendingTimersSynchronously@Timer@juce@@SAXXZ
       4875 130A 004096B0 ?callVBlankListeners@ComponentPeer@juce@@IEAAXN@Z
       4876 130B 002A6C40 ?canAddBus@AudioProcessor@juce@@UEBA_N_N@Z
       4877 130C 002A7E60 ?canApplyBusCountChange@AudioProcessor@juce@@MEAA_N_N0AEAUBusProperties@12@@Z
       4878 130D 0007C1F0 ?canApplyBusesLayout@AudioProcessor@juce@@MEBA_NAEBUBusesLayout@12@@Z
       4879 130E 00005BA0 ?canBeSelected@TreeViewItem@juce@@UEBA_NXZ
       4880 130F 002A4850 ?canConnect@AudioProcessorGraph@juce@@QEBA_NAEBUConnection@12@@Z
       4881 1310 00216460 ?canControlTransport@AudioPlayHead@juce@@UEAA_NXZ
       4882 1311 0028AF10 ?canDoMono@AiffAudioFormat@juce@@UEAA_NXZ
       4883 1312 0026BA60 ?canDoMono@FlacAudioFormat@juce@@UEAA_NXZ
       4884 1313 002463C0 ?canDoMono@OggVorbisAudioFormat@juce@@UEAA_NXZ
       4885 1314 00242EE0 ?canDoMono@WavAudioFormat@juce@@UEAA_NXZ
       4886 1315 0028AF20 ?canDoStereo@AiffAudioFormat@juce@@UEAA_NXZ
       4887 1316 0026BA70 ?canDoStereo@FlacAudioFormat@juce@@UEAA_NXZ
       4888 1317 002463D0 ?canDoStereo@OggVorbisAudioFormat@juce@@UEAA_NXZ
       4889 1318 00242EF0 ?canDoStereo@WavAudioFormat@juce@@UEAA_NXZ
       4890 1319 004372C0 ?canDoUnboundedMovement@MouseInputSource@juce@@QEBA_NXZ
       4891 131A 00290A20 ?canHandleFile@AudioFormat@juce@@UEAA_NAEBVFile@2@@Z
       4892 131B 00437730 ?canHover@MouseInputSource@juce@@QEBA_NXZ
       4893 131C 004BC2D0 ?canModalEventBeSentToComponent@Component@juce@@UEAA_NPEBV12@@Z
       4894 131D 0028CD30 ?canPlaySound@SamplerVoice@juce@@UEAA_NPEAVSynthesiserSound@2@@Z
       4895 131E 00321570 ?canRedo@UndoManager@juce@@QEBA_NXZ
       4896 131F 002A6C30 ?canRemoveBus@AudioProcessor@juce@@UEBA_N_N@Z
       4897 1320 0046A440 ?canScrollHorizontally@Viewport@juce@@QEBA_NXZ
       4898 1321 0046A480 ?canScrollVertically@Viewport@juce@@QEBA_NXZ
       4899 1322 003A7AD0 ?canUnderstand@GIFImageFormat@juce@@UEAA_NAEAVInputStream@2@@Z
       4900 1323 003AB190 ?canUnderstand@JPEGImageFormat@juce@@UEAA_NAEAVInputStream@2@@Z
       4901 1324 003A8AE0 ?canUnderstand@PNGImageFormat@juce@@UEAA_NAEAVInputStream@2@@Z
       4902 1325 003215A0 ?canUndo@UndoManager@juce@@QEBA_NXZ
       4903 1326 004A98B0 ?canUseSemiTransparentWindows@Desktop@juce@@SA_NXZ
       4904 1327 002BE150 ?cancel@WebInputStream@juce@@QEAAXXZ
       4905 1328 0047C0D0 ?cancelAllAnimations@ComponentAnimator@juce@@QEAAX_N@Z
       4906 1329 00491C90 ?cancelAllModalComponents@ModalComponentManager@juce@@QEAA_NXZ
       4907 132A 0047C020 ?cancelAnimation@ComponentAnimator@juce@@QEAAXPEAVComponent@2@_N@Z
       4908 132B 0032E610 ?cancelPendingUpdate@AsyncUpdater@juce@@QEAAXXZ
       4909 132C 0032B3C0 ?cancelPendingUpdate@LockingAsyncUpdater@juce@@QEAAXXZ
       4910 132D 0022C630 ?canonicalChannelSet@AudioChannelSet@juce@@SA?AV12@H@Z
       4911 132E 004CABC0 ?caretPositionMoved@CodeEditorComponent@juce@@UEAAXXZ
       4912 132F 000056B0 ?cbegin@MidiBuffer@juce@@QEBA?AVMidiBufferIterator@2@XZ
       4913 1330 000056B0 ?cbegin@TextLayout@juce@@QEBA?AV?$DereferencingIterator@PEBQEBVLine@TextLayout@juce@@@12@XZ
       4914 1331 004B5050 ?cellClicked@TableListBoxModel@juce@@UEAAXHHAEBVMouseEvent@2@@Z
       4915 1332 004B5040 ?cellDoubleClicked@TableListBoxModel@juce@@UEAAXHHAEBVMouseEvent@2@@Z
       4916 1333 00009DB0 ?cend@MidiBuffer@juce@@QEBA?AVMidiBufferIterator@2@XZ
       4917 1334 00021B50 ?cend@TextLayout@juce@@QEBA?AV?$DereferencingIterator@PEBQEBVLine@TextLayout@juce@@@12@XZ
       4918 1335 00402790 ?centreAroundComponent@TopLevelWindow@juce@@QEAAXPEAVComponent@2@HH@Z
       4919 1336 00222AB0 ?centreValue@MPEValue@juce@@SA?AV12@XZ
       4920 1337 004831F0 ?centreWithDefaultSize@FileChooserDialogBox@juce@@QEAAXPEAVComponent@2@@Z
       4921 1338 00499DD0 ?centreWithSize@Component@juce@@QEAAXHH@Z
       4922 1339 0046AC10 ?changeCallback@TabbedComponent@juce@@AEAAXHAEBVString@2@@Z
       4923 133A 004C6800 ?changeColour@ColourSelector@juce@@AEAAXXZ
       4924 133B 00484FA0 ?changeFilename@FileBrowserComponent@juce@@AEAAXXZ
       4925 133C 0042F510 ?changeIndex@ChoicePropertyComponent@juce@@AEAAXXZ
       4926 133D 0042BF30 ?changeItemText@ComboBox@juce@@QEAAXHAEBVString@2@@Z
       4927 133E 002B9AC0 ?changeListenerCallback@AudioDeviceSelectorComponent@juce@@EEAAXPEAVChangeBroadcaster@2@@Z
       4928 133F 00481C50 ?changeListenerCallback@FileListComponent@juce@@EEAAXPEAVChangeBroadcaster@2@@Z
       4929 1340 0029E6A0 ?changeListenerCallback@PluginListComponent@juce@@EEAAXPEAVChangeBroadcaster@2@@Z
       4930 1341 002A3F60 ?changeProgramName@AudioGraphIOProcessor@AudioProcessorGraph@juce@@UEAAXHAEBVString@3@@Z
       4931 1342 00005960 ?changeProgramName@AudioProcessorGraph@juce@@UEAAXHAEBVString@2@@Z
       4932 1343 004626C0 ?changeToggleButtonWidthToFitText@LookAndFeel_V2@juce@@UEAAXAEAVToggleButton@2@@Z
       4933 1344 004493F0 ?changeToggleButtonWidthToFitText@LookAndFeel_V4@juce@@UEAAXAEAVToggleButton@2@@Z
       4934 1345 004A0EA0 ?changeWidthToFitText@HyperlinkButton@juce@@QEAAXXZ
       4935 1346 004B2DD0 ?changeWidthToFitText@TextButton@juce@@QEAAXH@Z
       4936 1347 004AE9C0 ?changeWidthToFitText@TextButton@juce@@QEAAXXZ
       4937 1348 0049F550 ?changeWidthToFitText@ToggleButton@juce@@QEAAXXZ
       4938 1349 004880A0 ?changed@DirectoryContentsList@juce@@AEAAXXZ
       4939 134A 004D51C0 ?changed@FileBasedDocument@juce@@UEAAXXZ
       4940 134B 00481620 ?changed@FileSearchPathListComponent@juce@@AEAAXXZ
       4941 134C 00226140 ?channelPressureChange@MidiMessage@juce@@SA?AV12@HH@Z
       4942 134D 00218040 ?channelPressureChanged@SynthesiserVoice@juce@@UEAAXH@Z
       4943 134E 0022B6D0 ?channelSetWithChannels@AudioChannelSet@juce@@SA?AV12@AEBV?$Array@W4ChannelType@AudioChannelSet@juce@@VDummyCriticalSection@3@$0A@@2@@Z
       4944 134F 0022C1B0 ?channelSetsWithNumberOfChannels@AudioChannelSet@juce@@SA?AV?$Array@VAudioChannelSet@juce@@VDummyCriticalSection@2@$0A@@2@H@Z
       4945 1350 002EE000 ?charToString@String@juce@@SA?AV12@I@Z
       4946 1351 00221E90 ?checkAndLimitZoneParameters@MPEZoneLayout@juce@@AEAAXHHAEAH@Z
       4947 1352 004B5070 ?checkBounds@BorderedComponentBoundsConstrainer@juce@@UEAAXAEAV?$Rectangle@H@2@AEBV32@1_N222@Z
       4948 1353 0047B4A0 ?checkBounds@ComponentBoundsConstrainer@juce@@UEAAXAEAV?$Rectangle@H@2@AEBV32@1_N222@Z
       4949 1354 002AB090 ?checkBusesLayoutSupported@AudioProcessor@juce@@QEBA_NAEBUBusesLayout@12@@Z
       4950 1355 004DAE40 ?checkCompilation@OpenGLGraphicsContextCustomShader@juce@@QEAA?AVResult@2@AEAVLowLevelGraphicsContext@2@@Z
       4951 1356 0047B900 ?checkComponentBounds@ComponentBoundsConstrainer@juce@@QEAAXPEAVComponent@2@@Z
       4952 1357 0041D4D0 ?checkFocus@TextEditor@juce@@AEAAXXZ
       4953 1358 002A9EF0 ?checkForDuplicateGroupIDs@AudioProcessor@juce@@AEAAXAEBVAudioProcessorParameterGroup@2@@Z
       4954 1359 002A9F00 ?checkForDuplicateParamID@AudioProcessor@juce@@AEAAXPEAVAudioProcessorParameter@2@@Z
       4955 135A 002A9F10 ?checkForDuplicateTrimmedParamID@AudioProcessor@juce@@AEAAXPEAVAudioProcessorParameter@2@@Z
       4956 135B 004D2050 ?checkLastLineStatus@CodeDocument@juce@@AEAAXXZ
       4957 135C 0041C520 ?checkLayout@TextEditor@juce@@AEAAXXZ
       4958 135D 004B8940 ?checkModelPtrIsValid@ListBox@juce@@AEBAXXZ
       4959 135E 00487D20 ?checkNextFile@DirectoryContentsList@juce@@AEAA_NAEA_N@Z
       4960 135F 0032E7A0 ?checkProcesses@ChildProcessManager@juce@@AEAAXXZ
       4961 1360 004A3100 ?checkToggleableState@Button@juce@@AEAAX_N@Z
       4962 1361 002B9B70 ?childBoundsChanged@AudioDeviceSelectorComponent@juce@@UEAAXPEAVComponent@2@@Z
       4963 1362 0040C8F0 ?childBoundsChanged@CallOutBox@juce@@UEAAXPEAVComponent@2@@Z
       4964 1363 004BC700 ?childBoundsChanged@Component@juce@@UEAAXPEAV12@@Z
       4965 1364 0048C870 ?childBoundsChanged@DrawableComposite@juce@@UEAAXPEAVComponent@2@@Z
       4966 1365 00406090 ?childBoundsChanged@ResizableWindow@juce@@MEAAXPEAVComponent@2@@Z
       4967 1366 0046DD60 ?childBoundsChanged@TabBarButton@juce@@UEAAXPEAVComponent@2@@Z
       4968 1367 004BCFA0 ?childrenChanged@Component@juce@@UEAAXXZ
       4969 1368 0048C860 ?childrenChanged@DrawableComposite@juce@@UEAAXXZ
       4970 1369 00239C30 ?chooseBestBufferSize@AudioDeviceManager@juce@@AEBAHH@Z
       4971 136A 00239CE0 ?chooseBestSampleRate@AudioDeviceManager@juce@@AEBANN@Z
       4972 136B 00401DA0 ?cleanup@VBlankAttachment@juce@@AEAAXXZ
       4973 136C 0000DA10 ?clear@?$FloatVectorOperationsBase@MH@juce@@SAXPEAMH@Z
       4974 136D 0000DD90 ?clear@?$FloatVectorOperationsBase@M_K@juce@@SAXPEAM_K@Z
       4975 136E 0000E290 ?clear@?$FloatVectorOperationsBase@NH@juce@@SAXPEANH@Z
       4976 136F 0000E850 ?clear@?$FloatVectorOperationsBase@N_K@juce@@SAXPEAN_K@Z
       4977 1370 00355960 ?clear@AttributedString@juce@@QEAAXXZ
       4978 1371 002A4BB0 ?clear@AudioProcessorGraph@juce@@QEAAXW4UpdateKind@12@@Z
       4979 1372 002B95B0 ?clear@AudioThumbnail@juce@@UEAAXXZ
       4980 1373 002B7560 ?clear@AudioThumbnailCache@juce@@QEAAXXZ
       4981 1374 002B6E00 ?clear@AudioVisualiserComponent@juce@@QEAAXXZ
       4982 1375 00315CC0 ?clear@BigInteger@juce@@QEAAAEAV12@XZ
       4983 1376 004B1270 ?clear@ComboBox@juce@@QEAAXW4NotificationType@2@@Z
       4984 1377 0042A420 ?clear@ComboBox@juce@@QEAAX_N@Z
       4985 1378 00488530 ?clear@DirectoryContentsList@juce@@QEAAXXZ
       4986 1379 002DB220 ?clear@DynamicObject@juce@@QEAAXXZ
       4987 137A 00347EB0 ?clear@GlyphArrangement@juce@@QEAAXXZ
       4988 137B 00392640 ?clear@Image@juce@@QEAAXAEBV?$Rectangle@H@2@VColour@2@@Z
       4989 137C 00390BF0 ?clear@ImageConvolutionKernel@juce@@QEAAXXZ
       4990 137D 002A22E0 ?clear@KnownPluginList@juce@@QEAAXXZ
       4991 137E 0022A2B0 ?clear@MidiBuffer@juce@@QEAAXHH@Z
       4992 137F 0022A3F0 ?clear@MidiBuffer@juce@@QEAAXXZ
       4993 1380 00229320 ?clear@MidiFile@juce@@QEAAXXZ
       4994 1381 00224580 ?clear@MidiMessageSequence@juce@@QEAAXXZ
       4995 1382 0030C190 ?clear@NamedValueSet@juce@@QEAAXXZ
       4996 1383 004DB7D0 ?clear@OpenGLFrameBuffer@juce@@QEAAXVColour@2@@Z
       4997 1384 004DA910 ?clear@OpenGLHelpers@juce@@SAXVColour@2@@Z
       4998 1385 0039F180 ?clear@Path@juce@@QEAAXXZ
       4999 1386 0043E140 ?clear@PopupMenu@juce@@QEAAXXZ
       5000 1387 0042E2A0 ?clear@PropertyPanel@juce@@QEAAXXZ
       5001 1388 0030B1E0 ?clear@PropertySet@juce@@QEAAXXZ
       5002 1389 004C49D0 ?clear@RecentlyOpenedFilesList@juce@@QEAAXXZ
       5003 138A 00313FE0 ?clear@String@juce@@QEAAXXZ
       5004 138B 00314B30 ?clear@StringArray@juce@@QEAAXXZ
       5005 138C 002E6C30 ?clear@StringPairArray@juce@@QEAAXXZ
       5006 138D 0041DE90 ?clear@TextEditor@juce@@QEAAXXZ
       5007 138E 00416190 ?clear@Toolbar@juce@@QEAAXXZ
       5008 138F 0000A600 ?clearActiveBufferRegion@AudioSourceChannelInfo@juce@@QEBAXXZ
       5009 1390 00470320 ?clearAllItems@StretchableLayoutManager@juce@@QEAAXXZ
       5010 1391 0049CD10 ?clearAllKeyPresses@KeyPressMappingSet@juce@@QEAAXH@Z
       5011 1392 0049CE10 ?clearAllKeyPresses@KeyPressMappingSet@juce@@QEAAXXZ
       5012 1393 0023EF80 ?clearAllPendingMessages@MidiOutput@juce@@QEAAXXZ
       5013 1394 0021E470 ?clearAllZones@MPEMessages@juce@@SA?AVMidiBuffer@2@XZ
       5014 1395 00222470 ?clearAllZones@MPEZoneLayout@juce@@QEAAXXZ
       5015 1396 00315C30 ?clearBit@BigInteger@juce@@QEAAAEAV12@H@Z
       5016 1397 002A1110 ?clearBlacklistedFiles@KnownPluginList@juce@@QEAAXXZ
       5017 1398 004C8720 ?clearCachedIterators@CodeEditorComponent@juce@@AEAAXH@Z
       5018 1399 002B9520 ?clearChannelData@AudioThumbnail@juce@@AEAAXXZ
       5019 139A 003A1750 ?clearColours@ColourGradient@juce@@QEAAXXZ
       5020 139B 0049EBC0 ?clearCommands@ApplicationCommandManager@juce@@QEAAXXZ
       5021 139C 004067A0 ?clearContentComponent@ResizableWindow@juce@@QEAAXXZ
       5022 139D 004C0620 ?clearCookies@WebBrowserComponent@juce@@SAXXZ
       5023 139E 0021DB40 ?clearCurrentNote@MPESynthesiserVoice@juce@@IEAAXXZ
       5024 139F 00218060 ?clearCurrentNote@SynthesiserVoice@juce@@IEAAXXZ
       5025 13A0 00075D30 ?clearCurrentlyFocusedHandler@AccessibilityHandler@juce@@SAXXZ
       5026 13A1 002903D0 ?clearFormats@AudioFormatManager@juce@@QEAAXXZ
       5027 13A2 00418340 ?clearInternal@TextEditor@juce@@AEAAXPEAVUndoManager@2@@Z
       5028 13A3 002B4510 ?clearKeyMappings@MidiKeyboardComponent@juce@@QEAAXXZ
       5029 13A4 003A0130 ?clearLineSizes@EdgeTable@juce@@AEAAXXZ
       5030 13A5 0021E770 ?clearLowerZone@MPEMessages@juce@@SA?AVMidiBuffer@2@XZ
       5031 13A6 002E7660 ?clearQuick@StringArray@juce@@QEAAXXZ
       5032 13A7 004C4480 ?clearRecentFilesNatively@RecentlyOpenedFilesList@juce@@SAXXZ
       5033 13A8 0005B890 ?clearSamplesBeyondAvailableLength@AudioFormatReader@juce@@KAXPEBQEAHHH_JAEAH1@Z
       5034 13A9 004135C0 ?clearSelectedItems@TreeView@juce@@QEAAXXZ
       5035 13AA 004A2570 ?clearShortcuts@Button@juce@@QEAAXXZ
       5036 13AB 0001F240 ?clearSingletonInstance@ChildProcessManager@juce@@QEAAXXZ
       5037 13AC 00073F40 ?clearSingletonInstance@ModalComponentManager@juce@@QEAAXXZ
       5038 13AD 00079D30 ?clearSingletonInstance@PushNotifications@juce@@QEAAXXZ
       5039 13AE 002177E0 ?clearSounds@Synthesiser@juce@@QEAAXXZ
       5040 13AF 00411980 ?clearSubItems@TreeViewItem@juce@@QEAAXXZ
       5041 13B0 0046D8C0 ?clearTabs@TabbedButtonBar@juce@@QEAAXXZ
       5042 13B1 0046BA50 ?clearTabs@TabbedComponent@juce@@QEAAXXZ
       5043 13B2 00352DA0 ?clearTypefaceCache@Typeface@juce@@SAXXZ
       5044 13B3 004D2DB0 ?clearUndoHistory@CodeDocument@juce@@QEAAXXZ
       5045 13B4 00327470 ?clearUndoHistory@UndoManager@juce@@QEAAXXZ
       5046 13B5 0021E730 ?clearUpperZone@MPEMessages@juce@@SA?AVMidiBuffer@2@XZ
       5047 13B6 0021CE00 ?clearVoices@MPESynthesiser@juce@@QEAAXXZ
       5048 13B7 002179D0 ?clearVoices@Synthesiser@juce@@QEAAXXZ
       5049 13B8 004AF4A0 ?clicked@Button@juce@@MEAAXAEBVModifierKeys@2@@Z
       5050 13B9 004A2AE0 ?clicked@Button@juce@@MEAAXXZ
       5051 13BA 004A0DF0 ?clicked@HyperlinkButton@juce@@MEAAXXZ
       5052 13BB 0046E3F0 ?clicked@TabBarButton@juce@@UEAAXAEBVModifierKeys@2@@Z
       5053 13BC 004C4E00 ?clickedPage@PreferencesPanel@juce@@AEAAXXZ
       5054 13BD 0000DD40 ?clip@?$FloatVectorOperationsBase@MH@juce@@SAXPEAMPEBMMMH@Z
       5055 13BE 0000E0A0 ?clip@?$FloatVectorOperationsBase@M_K@juce@@SAXPEAMPEBMMM_K@Z
       5056 13BF 0000E600 ?clip@?$FloatVectorOperationsBase@NH@juce@@SAXPEANPEBNNNH@Z
       5057 13C0 0000EB80 ?clip@?$FloatVectorOperationsBase@N_K@juce@@SAXPEANPEBNNN_K@Z
       5058 13C1 0039F570 ?clipEdgeTableLineToRange@EdgeTable@juce@@AEAAXPEAHHH@Z
       5059 13C2 003A5680 ?clipLineToMask@EdgeTable@juce@@QEAAXHHPEBEHH@Z
       5060 13C3 00032CD0 ?clipRegionIntersects@?$StackBasedLowLevelGraphicsContext@VSoftwareRendererSavedState@RenderingHelpers@juce@@@RenderingHelpers@juce@@UEAA_NAEBV?$Rectangle@H@3@@Z
       5061 13C4 00397060 ?clipRegionIntersects@Graphics@juce@@QEBA_NV?$Rectangle@H@2@@Z
       5062 13C5 003A57D0 ?clipToEdgeTable@EdgeTable@juce@@QEAAXAEBV12@@Z
       5063 13C6 00032B20 ?clipToImageAlpha@?$StackBasedLowLevelGraphicsContext@VSoftwareRendererSavedState@RenderingHelpers@juce@@@RenderingHelpers@juce@@UEAAXAEBVImage@3@AEBVAffineTransform@3@@Z
       5064 13C7 00032C70 ?clipToPath@?$StackBasedLowLevelGraphicsContext@VSoftwareRendererSavedState@RenderingHelpers@juce@@@RenderingHelpers@juce@@UEAAXAEBVPath@3@AEBVAffineTransform@3@@Z
       5065 13C8 00032CB0 ?clipToRectangle@?$StackBasedLowLevelGraphicsContext@VSoftwareRendererSavedState@RenderingHelpers@juce@@@RenderingHelpers@juce@@UEAA_NAEBV?$Rectangle@H@3@@Z
       5066 13C9 003A5A50 ?clipToRectangle@EdgeTable@juce@@QEAAXV?$Rectangle@H@2@@Z
       5067 13CA 00032CA0 ?clipToRectangleList@?$StackBasedLowLevelGraphicsContext@VSoftwareRendererSavedState@RenderingHelpers@juce@@@RenderingHelpers@juce@@UEAA_NAEBV?$RectangleList@H@3@@Z
       5068 13CB 004332A0 ?clone@CloseSubPath@RelativePointPath@juce@@UEBAPEAVElementBase@23@XZ
       5069 13CC 00432CE0 ?clone@CubicTo@RelativePointPath@juce@@UEBAPEAVElementBase@23@XZ
       5070 13CD 002DB0D0 ?clone@DynamicObject@juce@@UEBA?AV?$unique_ptr@VDynamicObject@juce@@U?$default_delete@VDynamicObject@juce@@@std@@@std@@XZ
       5071 13CE 00433150 ?clone@LineTo@RelativePointPath@juce@@UEBAPEAVElementBase@23@XZ
       5072 13CF 00432F60 ?clone@QuadraticTo@RelativePointPath@juce@@UEBAPEAVElementBase@23@XZ
       5073 13D0 00433310 ?clone@StartSubPath@RelativePointPath@juce@@UEBAPEAVElementBase@23@XZ
       5074 13D1 002DD440 ?clone@var@juce@@QEBA?AV12@XZ
       5075 13D2 002DB150 ?cloneAllProperties@DynamicObject@juce@@QEAAXXZ
       5076 13D3 00319900 ?close@DynamicLibrary@juce@@QEAAXXZ
       5077 13D4 002F5C80 ?close@NamedPipe@juce@@QEAAXXZ
       5078 13D5 004048D0 ?close@ScopedMessageBox@juce@@QEAAXXZ
       5079 13D6 002F4370 ?close@StreamingSocket@juce@@QEAAXXZ
       5080 13D7 004767A0 ?closeAllDocumentsAsync@MultiDocumentPanel@juce@@QEAAX_NV?$function@$$A6AX_N@Z@std@@@Z
       5081 13D8 00239B40 ?closeAudioDevice@AudioDeviceManager@juce@@QEAAXXZ
       5082 13D9 00408A60 ?closeButtonPressed@DocumentWindow@juce@@UEAAXXZ
       5083 13DA 004831B0 ?closeButtonPressed@FileChooserDialogBox@juce@@AEAAXXZ
       5084 13DB 00476F90 ?closeButtonPressed@MultiDocumentPanelWindow@juce@@UEAAXXZ
       5085 13DC 004752C0 ?closeDocumentAsync@MultiDocumentPanel@juce@@QEAAXPEAVComponent@2@_NV?$function@$$A6AX_N@Z@std@@@Z
       5086 13DD 004754E0 ?closeDocumentInternal@MultiDocumentPanel@juce@@AEAAXPEAVComponent@2@@Z
       5087 13DE 00320B50 ?closeFiles@ApplicationProperties@juce@@QEAAXXZ
       5088 13DF 002F7AB0 ?closeHandle@FileOutputStream@juce@@AEAAXXZ
       5089 13E0 0040AC40 ?closeInputMethodContext@ComponentPeer@juce@@UEAAXXZ
       5090 13E1 00476A10 ?closeLastDocumentRecursive@MultiDocumentPanel@juce@@CAXV?$SafePointer@VMultiDocumentPanel@juce@@@Component@2@_NV?$function@$$A6AX_N@Z@std@@@Z
       5091 13E2 003A43C0 ?closeSubPath@Path@juce@@QEAAXXZ
       5092 13E3 005E73D4 ?closeSubPathMarker@Path@juce@@0MB
       5093 13E4 002C5F70 ?closeThreadHandle@Thread@juce@@AEAAXXZ
       5094 13E5 004DFD70 ?closeVideo@VideoComponent@juce@@QEAAXXZ
       5095 13E6 004164A0 ?coalesceSimilarSections@TextEditor@juce@@AEAAXXZ
       5096 13E7 004CF930 ?codeDocumentChanged@CodeEditorComponent@juce@@AEAAXHH@Z
       5097 13E8 0042B460 ?colourChanged@ComboBox@juce@@UEAAXXZ
       5098 13E9 004BBFB0 ?colourChanged@Component@juce@@UEAAXXZ
       5099 13EA 004A1870 ?colourChanged@DrawableButton@juce@@UEAAXXZ
       5100 13EB 004771E0 ?colourChanged@GroupComponent@juce@@UEAAXXZ
       5101 13EC 004A0E10 ?colourChanged@HyperlinkButton@juce@@MEAAXXZ
       5102 13ED 00428880 ?colourChanged@Label@juce@@MEAAXXZ
       5103 13EE 004AFB50 ?colourChanged@ListBox@juce@@UEAAXXZ
       5104 13EF 002B1F80 ?colourChanged@MPEKeyboardComponent@juce@@UEAAXXZ
       5105 13F0 002B2A70 ?colourChanged@MidiKeyboardComponent@juce@@UEAAXXZ
       5106 13F1 00426AF0 ?colourChanged@ProgressBar@juce@@MEAAXXZ
       5107 13F2 00425830 ?colourChanged@Slider@juce@@UEAAXXZ
       5108 13F3 0049F7A0 ?colourChanged@TextButton@juce@@UEAAXXZ
       5109 13F4 0042C270 ?colourChanged@TextPropertyComponent@juce@@UEAAXXZ
       5110 13F5 0049F510 ?colourChanged@ToggleButton@juce@@MEAAXXZ
       5111 13F6 00413670 ?colourChanged@TreeView@juce@@UEAAXXZ
       5112 13F7 00422690 ?columnClicked@TableHeaderComponent@juce@@UEAAXHAEBVModifierKeys@2@@Z
       5113 13F8 004C8B60 ?columnToIndex@CodeEditorComponent@juce@@AEBAHHH@Z
       5114 13F9 002FC630 ?combineSeed@Random@juce@@QEAAX_J@Z
       5115 13FA 0049E750 ?commandStatusChanged@ApplicationCommandManager@juce@@QEAAXXZ
       5116 13FB 002FFEE0 ?compare@BigInteger@juce@@QEBAHAEBV12@@Z
       5117 13FC 00005320 ?compare@CharacterFunctions@juce@@SAHII@Z
       5118 13FD 003A6DE0 ?compare@Font@juce@@CA_NAEBV12@0@Z
       5119 13FE 002F28A0 ?compare@IPAddress@juce@@QEBAHAEBV12@@Z
       5120 13FF 0030F630 ?compare@String@juce@@QEBAHAEBV12@@Z
       5121 1400 002ED520 ?compare@String@juce@@QEBAHPEBD@Z
       5122 1401 002ED510 ?compare@String@juce@@QEBAHPEB_W@Z
       5123 1402 002FAC20 ?compare@Uuid@juce@@AEBAHV12@@Z
       5124 1403 002FFDC0 ?compareAbsolute@BigInteger@juce@@QEBAHAEBV12@@Z
       5125 1404 002D47E0 ?compareAttribute@XmlElement@juce@@QEBA_NVStringRef@2@0_N@Z
       5126 1405 00005340 ?compareIgnoreCase@CharacterFunctions@juce@@SAHII@Z
       5127 1406 002ED4F0 ?compareIgnoreCase@String@juce@@QEBAHAEBV12@@Z
       5128 1407 0030F620 ?compareNatural@String@juce@@QEBAHVStringRef@2@_N@Z
       5129 1408 004B7150 ?componentBeingDeleted@ComponentListener@juce@@UEAAXAEAVComponent@2@@Z
       5130 1409 00479CD0 ?componentBeingDeleted@ComponentMovementWatcher@juce@@UEAAXAEAVComponent@2@@Z
       5131 140A 00435A50 ?componentBeingDeleted@RelativeCoordinatePositionerBase@juce@@UEAAXAEAVComponent@2@@Z
       5132 140B 004B71A0 ?componentBroughtToFront@ComponentListener@juce@@UEAAXAEAVComponent@2@@Z
       5133 140C 00491460 ?componentBroughtToFront@Desktop@juce@@AEAAXPEAVComponent@2@@Z
       5134 140D 00439ED0 ?componentBroughtToFront@DropShadower@juce@@EEAAXAEAVComponent@2@@Z
       5135 140E 00439910 ?componentBroughtToFront@FocusOutline@juce@@EEAAXAEAVComponent@2@@Z
       5136 140F 004B7180 ?componentChildrenChanged@ComponentListener@juce@@UEAAXAEAVComponent@2@@Z
       5137 1410 00439EC0 ?componentChildrenChanged@DropShadower@juce@@EEAAXAEAVComponent@2@@Z
       5138 1411 00435A80 ?componentChildrenChanged@RelativeCoordinatePositionerBase@juce@@UEAAXAEAVComponent@2@@Z
       5139 1412 004B7140 ?componentEnablementChanged@ComponentListener@juce@@UEAAXAEAVComponent@2@@Z
       5140 1413 004B71B0 ?componentMovedOrResized@ComponentListener@juce@@UEAAXAEAVComponent@2@_N1@Z
       5141 1414 00479D20 ?componentMovedOrResized@ComponentMovementWatcher@juce@@UEAAXAEAVComponent@2@_N1@Z
       5142 1415 00439EF0 ?componentMovedOrResized@DropShadower@juce@@EEAAXAEAVComponent@2@_N1@Z
       5143 1416 00439930 ?componentMovedOrResized@FocusOutline@juce@@EEAAXAEAVComponent@2@_N1@Z
       5144 1417 00429740 ?componentMovedOrResized@Label@juce@@MEAAXAEAVComponent@2@_N1@Z
       5145 1418 00435B20 ?componentMovedOrResized@RelativeCoordinatePositionerBase@juce@@UEAAXAEAVComponent@2@_N1@Z
       5146 1419 00469E00 ?componentMovedOrResized@Viewport@juce@@UEAAXAEAVComponent@2@_N1@Z
       5147 141A 004B7160 ?componentNameChanged@ComponentListener@juce@@UEAAXAEAVComponent@2@@Z
       5148 141B 00474C30 ?componentNameChanged@MultiDocumentPanel@juce@@UEAAXAEAVComponent@2@@Z
       5149 141C 004B7170 ?componentParentHierarchyChanged@ComponentListener@juce@@UEAAXAEAVComponent@2@@Z
       5150 141D 00479E40 ?componentParentHierarchyChanged@ComponentMovementWatcher@juce@@UEAAXAEAVComponent@2@@Z
       5151 141E 00439E80 ?componentParentHierarchyChanged@DropShadower@juce@@EEAAXAEAVComponent@2@@Z
       5152 141F 004398A0 ?componentParentHierarchyChanged@FocusOutline@juce@@EEAAXAEAVComponent@2@@Z
       5153 1420 00429710 ?componentParentHierarchyChanged@Label@juce@@MEAAXAEAVComponent@2@@Z
       5154 1421 00435AE0 ?componentParentHierarchyChanged@RelativeCoordinatePositionerBase@juce@@UEAAXAEAVComponent@2@@Z
       5155 1422 004BE270 ?componentParentHierarchyChanged@VBlankAttachment@juce@@EEAAXAEAVComponent@2@@Z
       5156 1423 004B7190 ?componentVisibilityChanged@ComponentListener@juce@@UEAAXAEAVComponent@2@@Z
       5157 1424 00479C80 ?componentVisibilityChanged@ComponentMovementWatcher@juce@@UEAAXAEAVComponent@2@@Z
       5158 1425 00439E60 ?componentVisibilityChanged@DropShadower@juce@@EEAAXAEAVComponent@2@@Z
       5159 1426 00439880 ?componentVisibilityChanged@FocusOutline@juce@@EEAAXAEAVComponent@2@@Z
       5160 1427 004296F0 ?componentVisibilityChanged@Label@juce@@MEAAXAEAVComponent@2@@Z
       5161 1428 002F4450 ?connect@StreamingSocket@juce@@QEAA_NAEBVString@2@HH@Z
       5162 1429 002BDE70 ?connect@WebInputStream@juce@@QEAA_NPEAVListener@12@@Z
       5163 142A 0032A890 ?connectToPipe@InterprocessConnection@juce@@QEAA_NAEBVString@2@H@Z
       5164 142B 0032A990 ?connectToSocket@InterprocessConnection@juce@@QEAA_NAEBVString@2@HH@Z
       5165 142C 00329D60 ?connectionLostInt@InterprocessConnection@juce@@AEAAXXZ
       5166 142D 00329E40 ?connectionMadeInt@InterprocessConnection@juce@@AEAAXXZ
       5167 142E 00075740 ?contains@AccessibilityActions@juce@@QEBA_NW4AccessibilityActionType@2@@Z
       5168 142F 004997F0 ?contains@Component@juce@@QEAA_NV?$Point@H@2@@Z
       5169 1430 00499610 ?contains@Component@juce@@QEAA_NV?$Point@M@2@@Z
       5170 1431 004880D0 ?contains@DirectoryContentsList@juce@@QEBA_NAEBVFile@2@@Z
       5171 1432 0030BB70 ?contains@NamedValueSet@juce@@QEBA_NAEBVIdentifier@2@@Z
       5172 1433 0039CDB0 ?contains@Path@juce@@QEBA_NMMM@Z
       5173 1434 0039CD80 ?contains@Path@juce@@QEBA_NV?$Point@M@2@M@Z
       5174 1435 00312140 ?contains@String@juce@@QEBA_NVStringRef@2@@Z
       5175 1436 00314C80 ?contains@StringArray@juce@@QEBA_NVStringRef@2@_N@Z
       5176 1437 002E4770 ?contains@ThreadPool@juce@@QEBA_NPEBVThreadPoolJob@2@@Z
       5177 1438 002E3E00 ?contains@TimeSliceThread@juce@@QEBA_NPEBVTimeSliceClient@2@@Z
       5178 1439 0043B390 ?containsAnyActiveItems@PopupMenu@juce@@QEBA_NXZ
       5179 143A 00433550 ?containsAnyDynamicPoints@RelativePointPath@juce@@QEBA_NXZ
       5180 143B 0040D830 ?containsAnyExtraComponents@AlertWindow@juce@@QEBA_NXZ
       5181 143C 002E9370 ?containsAnyOf@String@juce@@QEBA_NVStringRef@2@@Z
       5182 143D 002EB350 ?containsChar@String@juce@@QEBA_NI@Z
       5183 143E 002D42E0 ?containsChildElement@XmlElement@juce@@QEBA_NPEBV12@@Z
       5184 143F 0043B400 ?containsCommandItem@PopupMenu@juce@@QEBA_NH@Z
       5185 1440 00313F80 ?containsIgnoreCase@String@juce@@QEBA_NVStringRef@2@@Z
       5186 1441 0030E330 ?containsKey@PropertySet@juce@@QEBA_NVStringRef@2@@Z
       5187 1442 002E6D10 ?containsKey@StringPairArray@juce@@QEBA_NVStringRef@2@@Z
       5188 1443 002A8D40 ?containsLayout@AudioProcessor@juce@@CA_NAEBUBusesLayout@12@AEBV?$Array@UInOutChannelPair@AudioProcessor@juce@@VDummyCriticalSection@3@$0A@@2@@Z
       5189 1444 0007C140 ?containsLayout@AudioProcessor@juce@@SA_NAEBUBusesLayout@12@AEBV?$initializer_list@$$BY01$$CBF@std@@@Z
       5190 1445 0049C9C0 ?containsMapping@KeyPressMappingSet@juce@@QEBA_NHAEBVKeyPress@2@@Z
       5191 1446 0030F330 ?containsNonWhitespaceChars@String@juce@@QEBA_NXZ
       5192 1447 002E9430 ?containsOnly@String@juce@@QEBA_NVStringRef@2@@Z
       5193 1448 00306270 ?containsSubDirectories@File@juce@@QEBA_NXZ
       5194 1449 002EAFF0 ?containsWholeWord@String@juce@@QEBA_NVStringRef@2@@Z
       5195 144A 002EAFD0 ?containsWholeWordIgnoreCase@String@juce@@QEBA_NVStringRef@2@@Z
       5196 144B 0049F360 ?contentAreaChanged@ToolbarButton@juce@@UEAAXAEBV?$Rectangle@H@2@@Z
       5197 144C 003A23A0 ?contrasting@Colour@juce@@QEBA?AV12@M@Z
       5198 144D 003A2270 ?contrasting@Colour@juce@@QEBA?AV12@V12@M@Z
       5199 144E 003A1F30 ?contrasting@Colour@juce@@SA?AV12@V12@0@Z
       5200 144F 00225DD0 ?controllerEvent@MidiMessage@juce@@SA?AV12@HHH@Z
       5201 1450 0028CB30 ?controllerMoved@SamplerVoice@juce@@UEAAXHH@Z
       5202 1451 003A9920 ?convert@ImageType@juce@@UEBA?AVImage@2@AEBV32@@Z
       5203 1452 00231660 ?convertFixedToFloat@FloatVectorOperations@juce@@SAXPEAMPEBHMH@Z
       5204 1453 00231670 ?convertFixedToFloat@FloatVectorOperations@juce@@SAXPEAMPEBHM_K@Z
       5205 1454 00231970 ?convertFloat32BEToFloat@AudioDataConverters@juce@@SAXPEBXPEAMHH@Z
       5206 1455 00231A10 ?convertFloat32LEToFloat@AudioDataConverters@juce@@SAXPEBXPEAMHH@Z
       5207 1456 00232730 ?convertFloatToFloat32BE@AudioDataConverters@juce@@SAXPEBMPEAXHH@Z
       5208 1457 002327C0 ?convertFloatToFloat32LE@AudioDataConverters@juce@@SAXPEBMPEAXHH@Z
       5209 1458 00231850 ?convertFloatToFormat@AudioDataConverters@juce@@SAXW4DataFormat@12@PEBMPEAXH@Z
       5210 1459 002335F0 ?convertFloatToInt16BE@AudioDataConverters@juce@@SAXPEBMPEAXHH@Z
       5211 145A 00233940 ?convertFloatToInt16LE@AudioDataConverters@juce@@SAXPEBMPEAXHH@Z
       5212 145B 00232E70 ?convertFloatToInt24BE@AudioDataConverters@juce@@SAXPEBMPEAXHH@Z
       5213 145C 00233240 ?convertFloatToInt24LE@AudioDataConverters@juce@@SAXPEBMPEAXHH@Z
       5214 145D 00232840 ?convertFloatToInt32BE@AudioDataConverters@juce@@SAXPEBMPEAXHH@Z
       5215 145E 00232B60 ?convertFloatToInt32LE@AudioDataConverters@juce@@SAXPEBMPEAXHH@Z
       5216 145F 00231730 ?convertFormatToFloat@AudioDataConverters@juce@@SAXW4DataFormat@12@PEBXPEAMH@Z
       5217 1460 0029AFE0 ?convertFrom0to1@RangedAudioParameter@juce@@QEBAMM@Z
       5218 1461 002E5E60 ?convertFromBase64@Base64@juce@@SA_NAEAVOutputStream@2@VStringRef@2@@Z
       5219 1462 002F1B30 ?convertIPv4AddressToIPv4Mapped@IPAddress@juce@@SA?AV12@AEBV12@@Z
       5220 1463 002F1B90 ?convertIPv4MappedAddressToIPv4@IPAddress@juce@@SA?AV12@AEBV12@@Z
       5221 1464 00232350 ?convertInt16BEToFloat@AudioDataConverters@juce@@SAXPEBXPEAMHH@Z
       5222 1465 00232550 ?convertInt16LEToFloat@AudioDataConverters@juce@@SAXPEBXPEAMHH@Z
       5223 1466 00231E60 ?convertInt24BEToFloat@AudioDataConverters@juce@@SAXPEBXPEAMHH@Z
       5224 1467 002320E0 ?convertInt24LEToFloat@AudioDataConverters@juce@@SAXPEBXPEAMHH@Z
       5225 1468 00231A90 ?convertInt32BEToFloat@AudioDataConverters@juce@@SAXPEBXPEAMHH@Z
       5226 1469 00231C90 ?convertInt32LEToFloat@AudioDataConverters@juce@@SAXPEBXPEAMHH@Z
       5227 146A 00228D60 ?convertTimestampTicksToSeconds@MidiFile@juce@@QEAAXXZ
       5228 146B 0029B040 ?convertTo0to1@RangedAudioParameter@juce@@QEBAMM@Z
       5229 146C 002DC990 ?convertToArray@var@juce@@AEAAPEAV?$Array@Vvar@juce@@VDummyCriticalSection@2@$0A@@2@XZ
       5230 146D 002E5FF0 ?convertToBase64@Base64@juce@@SA_NAEAVOutputStream@2@PEBX_K@Z
       5231 146E 003929B0 ?convertedToFormat@Image@juce@@QEBA?AV12@W4PixelFormat@12@@Z
       5232 146F 0000DA90 ?copy@?$FloatVectorOperationsBase@MH@juce@@SAXPEAMPEBMH@Z
       5233 1470 0000DE10 ?copy@?$FloatVectorOperationsBase@M_K@juce@@SAXPEAMPEBM_K@Z
       5234 1471 0000E310 ?copy@?$FloatVectorOperationsBase@NH@juce@@SAXPEANPEBNH@Z
       5235 1472 0000E8D0 ?copy@?$FloatVectorOperationsBase@N_K@juce@@SAXPEANPEBN_K@Z
       5236 1473 0041B5F0 ?copy@TextEditor@juce@@QEAAXXZ
       5237 1474 00497690 ?copyAllExplicitColoursTo@Component@juce@@QEBAXAEAV12@@Z
       5238 1475 002D5D40 ?copyChildrenAndAttributesFrom@XmlElement@juce@@AEAAXAEBV12@@Z
       5239 1476 00307CA0 ?copyDirectoryTo@File@juce@@QEBA_NAEBV12@@Z
       5240 1477 00308120 ?copyFileTo@File@juce@@QEBA_NAEBV12@@Z
       5241 1478 002FBA80 ?copyFrom@MemoryBlock@juce@@QEAAXPEBXH_K@Z
       5242 1479 002F7F50 ?copyInternal@File@juce@@AEBA_NAEBV12@@Z
       5243 147A 00325AF0 ?copyPropertiesAndChildrenFrom@ValueTree@juce@@QEAAXAEBV12@PEAVUndoManager@2@@Z
       5244 147B 00325BE0 ?copyPropertiesFrom@ValueTree@juce@@QEAAXAEBV12@PEAVUndoManager@2@@Z
       5245 147C 00293FE0 ?copyState@AudioProcessorValueTreeState@juce@@QEAA?AVValueTree@2@XZ
       5246 147D 004A8280 ?copyTextToClipboard@SystemClipboard@juce@@SAXAEBVString@2@@Z
       5247 147E 004D7980 ?copyTexture@OpenGLContext@juce@@QEAAXAEBV?$Rectangle@H@2@0HH_N@Z
       5248 147F 002FB9D0 ?copyTo@MemoryBlock@juce@@QEBAXPEAXH_K@Z
       5249 1480 004CD1A0 ?copyToClipboard@CodeEditorComponent@juce@@UEAA_NXZ
       5250 1481 00418EA0 ?copyToClipboard@TextEditor@juce@@QEAA_NXZ
       5251 1482 002E8C90 ?copyToUTF16@String@juce@@QEBA_KPEA_W_K@Z
       5252 1483 002E8B80 ?copyToUTF32@String@juce@@QEBA_KPEAI_K@Z
       5253 1484 00311C70 ?copyToUTF8@String@juce@@QEBA_KPEAD_K@Z
       5254 1485 0030B3B0 ?copyToXmlAttributes@NamedValueSet@juce@@QEBAXAEAVXmlElement@2@@Z
       5255 1486 0000DAA0 ?copyWithMultiply@?$FloatVectorOperationsBase@MH@juce@@SAXPEAMPEBMMH@Z
       5256 1487 0000DE20 ?copyWithMultiply@?$FloatVectorOperationsBase@M_K@juce@@SAXPEAMPEBMM_K@Z
       5257 1488 0000E320 ?copyWithMultiply@?$FloatVectorOperationsBase@NH@juce@@SAXPEANPEBNNH@Z
       5258 1489 0000E8E0 ?copyWithMultiply@?$FloatVectorOperationsBase@N_K@juce@@SAXPEANPEBNN_K@Z
       5259 148A 002A8190 ?copyXmlToBinary@AudioProcessor@juce@@SAXAEBVXmlElement@2@AEAVMemoryBlock@2@@Z
       5260 148B 00315A50 ?countNumberOfSetBits@BigInteger@juce@@QEBAHXZ
       5261 148C 00410CE0 ?countSelectedItemsRecursively@TreeViewItem@juce@@AEBAHH@Z
       5262 148D 0022DCD0 ?create5point0@AudioChannelSet@juce@@SA?AV12@XZ
       5263 148E 0022D670 ?create5point0point2@AudioChannelSet@juce@@SA?AV12@XZ
       5264 148F 0022D580 ?create5point0point4@AudioChannelSet@juce@@SA?AV12@XZ
       5265 1490 0022DC60 ?create5point1@AudioChannelSet@juce@@SA?AV12@XZ
       5266 1491 0022D600 ?create5point1point2@AudioChannelSet@juce@@SA?AV12@XZ
       5267 1492 0022D500 ?create5point1point4@AudioChannelSet@juce@@SA?AV12@XZ
       5268 1493 0022DBF0 ?create6point0@AudioChannelSet@juce@@SA?AV12@XZ
       5269 1494 0022DB00 ?create6point0Music@AudioChannelSet@juce@@SA?AV12@XZ
       5270 1495 0022DB70 ?create6point1@AudioChannelSet@juce@@SA?AV12@XZ
       5271 1496 0022DA80 ?create6point1Music@AudioChannelSet@juce@@SA?AV12@XZ
       5272 1497 0022DA00 ?create7point0@AudioChannelSet@juce@@SA?AV12@XZ
       5273 1498 0022D980 ?create7point0SDDS@AudioChannelSet@juce@@SA?AV12@XZ
       5274 1499 0022D480 ?create7point0point2@AudioChannelSet@juce@@SA?AV12@XZ
       5275 149A 0022D370 ?create7point0point4@AudioChannelSet@juce@@SA?AV12@XZ
       5276 149B 0022D260 ?create7point0point6@AudioChannelSet@juce@@SA?AV12@XZ
       5277 149C 0022D910 ?create7point1@AudioChannelSet@juce@@SA?AV12@XZ
       5278 149D 0022D8A0 ?create7point1SDDS@AudioChannelSet@juce@@SA?AV12@XZ
       5279 149E 0022D400 ?create7point1point2@AudioChannelSet@juce@@SA?AV12@XZ
       5280 149F 0022D2F0 ?create7point1point4@AudioChannelSet@juce@@SA?AV12@XZ
       5281 14A0 0022D1D0 ?create7point1point6@AudioChannelSet@juce@@SA?AV12@XZ
       5282 14A1 0022D140 ?create9point0point4@AudioChannelSet@juce@@SA?AV12@XZ
       5283 14A2 0022CEF0 ?create9point0point4ITU@AudioChannelSet@juce@@SA?AV12@XZ
       5284 14A3 0022D010 ?create9point0point6@AudioChannelSet@juce@@SA?AV12@XZ
       5285 14A4 0022CDC0 ?create9point0point6ITU@AudioChannelSet@juce@@SA?AV12@XZ
       5286 14A5 0022D0B0 ?create9point1point4@AudioChannelSet@juce@@SA?AV12@XZ
       5287 14A6 0022CE60 ?create9point1point4ITU@AudioChannelSet@juce@@SA?AV12@XZ
       5288 14A7 0022CF80 ?create9point1point6@AudioChannelSet@juce@@SA?AV12@XZ
       5289 14A8 0022CD30 ?create9point1point6ITU@AudioChannelSet@juce@@SA?AV12@XZ
       5290 14A9 00306FF0 ?create@File@juce@@QEBA?AVResult@2@XZ
       5291 14AA 00409370 ?create@LaunchOptions@DialogWindow@juce@@QEAAPEAV23@XZ
       5292 14AB 003A7BF0 ?create@NativeImageType@juce@@UEBA?AV?$ReferenceCountedObjectPtr@VImagePixelData@juce@@@2@W4PixelFormat@Image@2@HH_N@Z
       5293 14AC 004DA230 ?create@OpenGLImageType@juce@@UEBA?AV?$ReferenceCountedObjectPtr@VImagePixelData@juce@@@2@W4PixelFormat@Image@2@HH_N@Z
       5294 14AD 004D8F50 ?create@OpenGLTexture@juce@@AEAAXHHPEBXI_N@Z
       5295 14AE 003AB380 ?create@SoftwareImageType@juce@@UEBA?AV?$ReferenceCountedObjectPtr@VImagePixelData@juce@@@2@W4PixelFormat@Image@2@HH_N@Z
       5296 14AF 0007D010 ?createARAFactoryAsync@AudioPluginFormat@juce@@UEAAXAEBVPluginDescription@2@V?$function@$$A6AXUARAFactoryResult@juce@@@Z@std@@@Z
       5297 14B0 002AC7E0 ?createARAFactoryAsync@AudioPluginFormatManager@juce@@QEBAXAEBVPluginDescription@2@V?$function@$$A6AXUARAFactoryResult@juce@@@Z@std@@@Z
       5298 14B1 0040CF20 ?createAccessibilityHandler@AlertWindow@juce@@UEAA?AV?$unique_ptr@VAccessibilityHandler@juce@@U?$default_delete@VAccessibilityHandler@juce@@@std@@@std@@XZ
       5299 14B2 004AEC70 ?createAccessibilityHandler@Button@juce@@MEAA?AV?$unique_ptr@VAccessibilityHandler@juce@@U?$default_delete@VAccessibilityHandler@juce@@@std@@@std@@XZ
       5300 14B3 0040BC50 ?createAccessibilityHandler@CallOutBox@juce@@UEAA?AV?$unique_ptr@VAccessibilityHandler@juce@@U?$default_delete@VAccessibilityHandler@juce@@@std@@@std@@XZ
       5301 14B4 004C8340 ?createAccessibilityHandler@CodeEditorComponent@juce@@UEAA?AV?$unique_ptr@VAccessibilityHandler@juce@@U?$default_delete@VAccessibilityHandler@juce@@@std@@@std@@XZ
       5302 14B5 0042A330 ?createAccessibilityHandler@ComboBox@juce@@UEAA?AV?$unique_ptr@VAccessibilityHandler@juce@@U?$default_delete@VAccessibilityHandler@juce@@@std@@@std@@XZ
       5303 14B6 004BBF70 ?createAccessibilityHandler@Component@juce@@UEAA?AV?$unique_ptr@VAccessibilityHandler@juce@@U?$default_delete@VAccessibilityHandler@juce@@@std@@@std@@XZ
       5304 14B7 00478D60 ?createAccessibilityHandler@ConcertinaPanel@juce@@UEAA?AV?$unique_ptr@VAccessibilityHandler@juce@@U?$default_delete@VAccessibilityHandler@juce@@@std@@@std@@XZ
       5305 14B8 004090F0 ?createAccessibilityHandler@DialogWindow@juce@@UEAA?AV?$unique_ptr@VAccessibilityHandler@juce@@U?$default_delete@VAccessibilityHandler@juce@@@std@@@std@@XZ
       5306 14B9 0048B990 ?createAccessibilityHandler@DrawableImage@juce@@UEAA?AV?$unique_ptr@VAccessibilityHandler@juce@@U?$default_delete@VAccessibilityHandler@juce@@@std@@@std@@XZ
       5307 14BA 00489460 ?createAccessibilityHandler@DrawableText@juce@@UEAA?AV?$unique_ptr@VAccessibilityHandler@juce@@U?$default_delete@VAccessibilityHandler@juce@@@std@@@std@@XZ
       5308 14BB 00484100 ?createAccessibilityHandler@FileBrowserComponent@juce@@UEAA?AV?$unique_ptr@VAccessibilityHandler@juce@@U?$default_delete@VAccessibilityHandler@juce@@@std@@@std@@XZ
       5309 14BC 00477120 ?createAccessibilityHandler@GroupComponent@juce@@UEAA?AV?$unique_ptr@VAccessibilityHandler@juce@@U?$default_delete@VAccessibilityHandler@juce@@@std@@@std@@XZ
       5310 14BD 004A0A40 ?createAccessibilityHandler@HyperlinkButton@juce@@UEAA?AV?$unique_ptr@VAccessibilityHandler@juce@@U?$default_delete@VAccessibilityHandler@juce@@@std@@@std@@XZ
       5311 14BE 00429ED0 ?createAccessibilityHandler@ImageComponent@juce@@UEAA?AV?$unique_ptr@VAccessibilityHandler@juce@@U?$default_delete@VAccessibilityHandler@juce@@@std@@@std@@XZ
       5312 14BF 0047DD00 ?createAccessibilityHandler@ImagePreviewComponent@juce@@UEAA?AV?$unique_ptr@VAccessibilityHandler@juce@@U?$default_delete@VAccessibilityHandler@juce@@@std@@@std@@XZ
       5313 14C0 004282C0 ?createAccessibilityHandler@Label@juce@@UEAA?AV?$unique_ptr@VAccessibilityHandler@juce@@U?$default_delete@VAccessibilityHandler@juce@@@std@@@std@@XZ
       5314 14C1 004AF9F0 ?createAccessibilityHandler@ListBox@juce@@UEAA?AV?$unique_ptr@VAccessibilityHandler@juce@@U?$default_delete@VAccessibilityHandler@juce@@@std@@@std@@XZ
       5315 14C2 0043E8B0 ?createAccessibilityHandler@MenuBarComponent@juce@@UEAA?AV?$unique_ptr@VAccessibilityHandler@juce@@U?$default_delete@VAccessibilityHandler@juce@@@std@@@std@@XZ
       5316 14C3 00426570 ?createAccessibilityHandler@ProgressBar@juce@@UEAA?AV?$unique_ptr@VAccessibilityHandler@juce@@U?$default_delete@VAccessibilityHandler@juce@@@std@@@std@@XZ
       5317 14C4 00471640 ?createAccessibilityHandler@ScrollBar@juce@@UEAA?AV?$unique_ptr@VAccessibilityHandler@juce@@U?$default_delete@VAccessibilityHandler@juce@@@std@@@std@@XZ
       5318 14C5 004242D0 ?createAccessibilityHandler@Slider@juce@@UEAA?AV?$unique_ptr@VAccessibilityHandler@juce@@U?$default_delete@VAccessibilityHandler@juce@@@std@@@std@@XZ
       5319 14C6 0046C030 ?createAccessibilityHandler@TabbedButtonBar@juce@@UEAA?AV?$unique_ptr@VAccessibilityHandler@juce@@U?$default_delete@VAccessibilityHandler@juce@@@std@@@std@@XZ
       5320 14C7 0046AB30 ?createAccessibilityHandler@TabbedComponent@juce@@UEAA?AV?$unique_ptr@VAccessibilityHandler@juce@@U?$default_delete@VAccessibilityHandler@juce@@@std@@@std@@XZ
       5321 14C8 004208E0 ?createAccessibilityHandler@TableHeaderComponent@juce@@UEAA?AV?$unique_ptr@VAccessibilityHandler@juce@@U?$default_delete@VAccessibilityHandler@juce@@@std@@@std@@XZ
       5322 14C9 0041F990 ?createAccessibilityHandler@TableListBox@juce@@UEAA?AV?$unique_ptr@VAccessibilityHandler@juce@@U?$default_delete@VAccessibilityHandler@juce@@@std@@@std@@XZ
       5323 14CA 00416370 ?createAccessibilityHandler@TextEditor@juce@@UEAA?AV?$unique_ptr@VAccessibilityHandler@juce@@U?$default_delete@VAccessibilityHandler@juce@@@std@@@std@@XZ
       5324 14CB 0049F4A0 ?createAccessibilityHandler@ToggleButton@juce@@UEAA?AV?$unique_ptr@VAccessibilityHandler@juce@@U?$default_delete@VAccessibilityHandler@juce@@@std@@@std@@XZ
       5325 14CC 00414620 ?createAccessibilityHandler@Toolbar@juce@@UEAA?AV?$unique_ptr@VAccessibilityHandler@juce@@U?$default_delete@VAccessibilityHandler@juce@@@std@@@std@@XZ
       5326 14CD 00413DB0 ?createAccessibilityHandler@ToolbarItemComponent@juce@@UEAA?AV?$unique_ptr@VAccessibilityHandler@juce@@U?$default_delete@VAccessibilityHandler@juce@@@std@@@std@@XZ
       5327 14CE 00413770 ?createAccessibilityHandler@ToolbarItemPalette@juce@@UEAA?AV?$unique_ptr@VAccessibilityHandler@juce@@U?$default_delete@VAccessibilityHandler@juce@@@std@@@std@@XZ
       5328 14CF 00403890 ?createAccessibilityHandler@TooltipWindow@juce@@UEAA?AV?$unique_ptr@VAccessibilityHandler@juce@@U?$default_delete@VAccessibilityHandler@juce@@@std@@@std@@XZ
       5329 14D0 004029A0 ?createAccessibilityHandler@TopLevelWindow@juce@@UEAA?AV?$unique_ptr@VAccessibilityHandler@juce@@U?$default_delete@VAccessibilityHandler@juce@@@std@@@std@@XZ
       5330 14D1 00411CF0 ?createAccessibilityHandler@TreeView@juce@@UEAA?AV?$unique_ptr@VAccessibilityHandler@juce@@U?$default_delete@VAccessibilityHandler@juce@@@std@@@std@@XZ
       5331 14D2 0007A740 ?createAccessibilityHandler@WebBrowserComponent@juce@@EEAA?AV?$unique_ptr@VAccessibilityHandler@juce@@U?$default_delete@VAccessibilityHandler@juce@@@std@@@std@@XZ
       5332 14D3 00462300 ?createAlertWindow@LookAndFeel_V2@juce@@UEAAPEAVAlertWindow@2@AEBVString@2@0000W4MessageBoxIconType@2@HPEAVComponent@2@@Z
       5333 14D4 00449280 ?createAlertWindow@LookAndFeel_V4@juce@@UEAAPEAVAlertWindow@2@AEBVString@2@0000W4MessageBoxIconType@2@HPEAVComponent@2@@Z
       5334 14D5 002945D0 ?createAndAddParameter@AudioProcessorValueTreeState@juce@@QEAAPEAVRangedAudioParameter@2@AEBVString@2@00V?$NormalisableRange@M@2@MV?$function@$$A6A?AVString@juce@@M@Z@std@@V?$function@$$A6AMAEBVString@juce@@@Z@7@_N44W4Category@AudioProcessorParameter@2@4@Z
       5335 14D6 00294490 ?createAndAddParameter@AudioProcessorValueTreeState@juce@@QEAAPEAVRangedAudioParameter@2@V?$unique_ptr@VRangedAudioParameter@juce@@U?$default_delete@VRangedAudioParameter@juce@@@std@@@std@@@Z
       5336 14D7 0023DC30 ?createAudioDeviceTypes@AudioDeviceManager@juce@@UEAAXAEAV?$OwnedArray@VAudioIODeviceType@juce@@VDummyCriticalSection@2@@2@@Z
       5337 14D8 00236760 ?createAudioIODeviceType_ALSA@AudioIODeviceType@juce@@SAPEAV12@XZ
       5338 14D9 00236770 ?createAudioIODeviceType_ASIO@AudioIODeviceType@juce@@SAPEAV12@XZ
       5339 14DA 00236730 ?createAudioIODeviceType_Android@AudioIODeviceType@juce@@SAPEAV12@XZ
       5340 14DB 00236740 ?createAudioIODeviceType_Bela@AudioIODeviceType@juce@@SAPEAV12@XZ
       5341 14DC 002369C0 ?createAudioIODeviceType_CoreAudio@AudioIODeviceType@juce@@SAPEAV12@XZ
       5342 14DD 00236780 ?createAudioIODeviceType_DirectSound@AudioIODeviceType@juce@@SAPEAV12@XZ
       5343 14DE 00236750 ?createAudioIODeviceType_JACK@AudioIODeviceType@juce@@SAPEAV12@XZ
       5344 14DF 00236710 ?createAudioIODeviceType_Oboe@AudioIODeviceType@juce@@SAPEAV12@XZ
       5345 14E0 00236720 ?createAudioIODeviceType_OpenSLES@AudioIODeviceType@juce@@SAPEAV12@XZ
       5346 14E1 00236970 ?createAudioIODeviceType_WASAPI@AudioIODeviceType@juce@@SAPEAV12@W4WASAPIDeviceMode@2@@Z
       5347 14E2 00236930 ?createAudioIODeviceType_WASAPI@AudioIODeviceType@juce@@SAPEAV12@_N@Z
       5348 14E3 002369B0 ?createAudioIODeviceType_iOSAudio@AudioIODeviceType@juce@@SAPEAV12@XZ
       5349 14E4 00245980 ?createBWAVMetadata@WavAudioFormat@juce@@SA?AVStringPairArray@2@AEBVString@2@00VTime@2@_J0@Z
       5350 14E5 002A9590 ?createBus@AudioProcessor@juce@@AEAAX_NAEBUBusProperties@12@@Z
       5351 14E6 0045D470 ?createCaretComponent@LookAndFeel_V2@juce@@UEAAPEAVCaretComponent@2@PEAVComponent@2@@Z
       5352 14E7 002B93B0 ?createChannels@AudioThumbnail@juce@@AEAAXH@Z
       5353 14E8 003264E0 ?createCoalescedAction@UndoableAction@juce@@UEAAPEAV12@PEAV12@@Z
       5354 14E9 0045C830 ?createComboBoxTextBox@LookAndFeel_V2@juce@@UEAAPEAVLabel@2@AEAVComboBox@2@@Z
       5355 14EA 0047ABC0 ?createComponent@ComponentBuilder@juce@@QEAAPEAVComponent@2@XZ
       5356 14EB 00497BC0 ?createComponentSnapshot@Component@juce@@QEAA?AVImage@2@V?$Rectangle@H@2@_NM@Z
       5357 14EC 004C36C0 ?createControl@ActiveXControlComponent@juce@@QEAA_NPEBX@Z
       5358 14ED 002231A0 ?createControllerUpdatesForTime@MidiMessageSequence@juce@@QEAAXHNAEAV?$Array@VMidiMessage@juce@@VDummyCriticalSection@2@$0A@@2@@Z
       5359 14EE 0048CF60 ?createCopy@DrawableComposite@juce@@UEBA?AV?$unique_ptr@VDrawable@juce@@U?$default_delete@VDrawable@juce@@@std@@@std@@XZ
       5360 14EF 0048C220 ?createCopy@DrawableImage@juce@@UEBA?AV?$unique_ptr@VDrawable@juce@@U?$default_delete@VDrawable@juce@@@std@@@std@@XZ
       5361 14F0 0048B850 ?createCopy@DrawablePath@juce@@UEBA?AV?$unique_ptr@VDrawable@juce@@U?$default_delete@VDrawable@juce@@@std@@@std@@XZ
       5362 14F1 0048B600 ?createCopy@DrawableRectangle@juce@@UEBA?AV?$unique_ptr@VDrawable@juce@@U?$default_delete@VDrawable@juce@@@std@@@std@@XZ
       5363 14F2 0048A2B0 ?createCopy@DrawableText@juce@@UEBA?AV?$unique_ptr@VDrawable@juce@@U?$default_delete@VDrawable@juce@@@std@@@std@@XZ
       5364 14F3 00393040 ?createCopy@Image@juce@@QEBA?AV12@XZ
       5365 14F4 00326B00 ?createCopy@ValueTree@juce@@QEBA?AV12@XZ
       5366 14F5 00397C20 ?createDashedStroke@PathStrokeType@juce@@QEBAXAEAVPath@2@AEBV32@PEBMHAEBVAffineTransform@2@M@Z
       5367 14F6 00302220 ?createDateStampedLogger@FileLogger@juce@@SAPEAV12@AEBVString@2@000@Z
       5368 14F7 003025B0 ?createDefaultAppLogger@FileLogger@juce@@SAPEAV12@AEBVString@2@00_J@Z
       5369 14F8 0023E530 ?createDeviceTypesIfNeeded@AudioDeviceManager@juce@@AEAAXXZ
       5370 14F9 00306E40 ?createDirectory@File@juce@@QEBA?AVResult@2@XZ
       5371 14FA 002F7DB0 ?createDirectoryInternal@File@juce@@AEBA?AVResult@2@AEBVString@2@@Z
       5372 14FB 002D5050 ?createDocument@XmlElement@juce@@QEBA?AVString@2@VStringRef@2@_N10H@Z
       5373 14FC 00463BD0 ?createDocumentWindowButton@LookAndFeel_V1@juce@@UEAAPEAVButton@2@H@Z
       5374 14FD 00458010 ?createDocumentWindowButton@LookAndFeel_V2@juce@@UEAAPEAVButton@2@H@Z
       5375 14FE 0044B280 ?createDocumentWindowButton@LookAndFeel_V3@juce@@UEAAPEAVButton@2@H@Z
       5376 14FF 0044A320 ?createDocumentWindowButton@LookAndFeel_V4@juce@@UEAAPEAVButton@2@H@Z
       5377 1500 00457E20 ?createDropShadowerForComponent@LookAndFeel_V2@juce@@UEAA?AV?$unique_ptr@VDropShadower@juce@@U?$default_delete@VDropShadower@juce@@@std@@@std@@AEAVComponent@2@@Z
       5378 1501 002A3FC0 ?createEditor@AudioGraphIOProcessor@AudioProcessorGraph@juce@@UEAAPEAVAudioProcessorEditor@3@XZ
       5379 1502 00004FB0 ?createEditor@AudioProcessorGraph@juce@@UEAAPEAVAudioProcessorEditor@2@XZ
       5380 1503 0042C630 ?createEditor@TextPropertyComponent@juce@@AEAAXH_N@Z
       5381 1504 00428B60 ?createEditorComponent@Label@juce@@MEAAPEAVTextEditor@2@XZ
       5382 1505 002A8410 ?createEditorIfNeeded@AudioProcessor@juce@@QEAAPEAVAudioProcessorEditor@2@XZ
       5383 1506 002C4AB0 ?createFallbackDownloader@DownloadTask@URL@juce@@CA?AV?$unique_ptr@VDownloadTask@URL@juce@@U?$default_delete@VDownloadTask@URL@juce@@@std@@@std@@AEBV23@AEBVFile@3@AEBVDownloadTaskOptions@23@@Z
       5384 1507 00453060 ?createFileBrowserGoUpButton@LookAndFeel_V2@juce@@UEAAPEAVButton@2@XZ
       5385 1508 00446E90 ?createFileBrowserGoUpButton@LookAndFeel_V4@juce@@UEAAPEAVButton@2@XZ
       5386 1509 004539B0 ?createFileChooserHeaderText@LookAndFeel_V2@juce@@UEAA?AVAttributedString@2@AEBVString@2@0@Z
       5387 150A 0030CBC0 ?createFileWithoutCheckingPath@File@juce@@SA?AV12@AEBVString@2@@Z
       5388 150B 00459400 ?createFilenameComponentBrowseButton@LookAndFeel_V2@juce@@UEAAPEAVButton@2@AEBVString@2@@Z
       5389 150C 00457D80 ?createFocusOutlineForComponent@LookAndFeel_V2@juce@@UEAA?AV?$unique_ptr@VFocusOutline@juce@@U?$default_delete@VFocusOutline@juce@@@std@@@std@@AEAVComponent@2@@Z
       5390 150D 004BCAB0 ?createFocusTraverser@Component@juce@@UEAA?AV?$unique_ptr@VComponentTraverser@juce@@U?$default_delete@VComponentTraverser@juce@@@std@@@std@@XZ
       5391 150E 0047D220 ?createFromDescription@KeyPress@juce@@SA?AV12@AEBVString@2@@Z
       5392 150F 0048D500 ?createFromImageData@Drawable@juce@@SA?AV?$unique_ptr@VDrawable@juce@@U?$default_delete@VDrawable@juce@@@std@@@std@@PEBX_K@Z
       5393 1510 0048D2E0 ?createFromImageDataStream@Drawable@juce@@SA?AV?$unique_ptr@VDrawable@juce@@U?$default_delete@VDrawable@juce@@@std@@@std@@AEAVInputStream@2@@Z
       5394 1511 0048D1F0 ?createFromImageFile@Drawable@juce@@SA?AV?$unique_ptr@VDrawable@juce@@U?$default_delete@VDrawable@juce@@@std@@@std@@AEBVFile@2@@Z
       5395 1512 00489260 ?createFromSVG@Drawable@juce@@SA?AV?$unique_ptr@VDrawable@juce@@U?$default_delete@VDrawable@juce@@@std@@@std@@AEBVXmlElement@2@@Z
       5396 1513 00489160 ?createFromSVGFile@Drawable@juce@@SA?AV?$unique_ptr@VDrawable@juce@@U?$default_delete@VDrawable@juce@@@std@@@std@@AEBVFile@2@@Z
       5397 1514 003907E0 ?createGaussianBlur@ImageConvolutionKernel@juce@@QEAAXM@Z
       5398 1515 00468350 ?createGraphicsContext@LookAndFeel@juce@@UEAA?AV?$unique_ptr@VLowLevelGraphicsContext@juce@@U?$default_delete@VLowLevelGraphicsContext@juce@@@std@@@std@@AEBVImage@2@V?$Point@H@2@AEBV?$RectangleList@H@2@@Z
       5399 1516 002C1B70 ?createHeadersAndPostData@URL@juce@@AEBAXAEAVString@2@AEAVMemoryBlock@2@_N@Z
       5400 1517 002BD9A0 ?createHeadersAndPostData@WebInputStream@juce@@CAXAEBVURL@2@AEAVString@2@AEAVMemoryBlock@2@_N@Z
       5401 1518 002E8FD0 ?createHex@String@juce@@CA?AV12@E@Z
       5402 1519 002E8F50 ?createHex@String@juce@@CA?AV12@G@Z
       5403 151A 0030E6F0 ?createHex@String@juce@@CA?AV12@I@Z
       5404 151B 00313DF0 ?createHex@String@juce@@CA?AV12@_K@Z
       5405 151C 002A36A0 ?createIdentifierString@PluginDescription@juce@@QEBA?AVString@2@XZ
       5406 151D 004926D0 ?createIgnoredAccessibilityHandler@Component@juce@@KA?AV?$unique_ptr@VAccessibilityHandler@juce@@U?$default_delete@VAccessibilityHandler@juce@@@std@@@std@@AEAV12@@Z
       5407 151E 00007EF0 ?createInputStream@AndroidDocumentInputSource@juce@@UEAAPEAVInputStream@2@XZ
       5408 151F 003105F0 ?createInputStream@File@juce@@QEBA?AV?$unique_ptr@VFileInputStream@juce@@U?$default_delete@VFileInputStream@juce@@@std@@@std@@XZ
       5409 1520 002F1380 ?createInputStream@FileInputSource@juce@@UEAAPEAVInputStream@2@XZ
       5410 1521 002C1010 ?createInputStream@URL@juce@@QEBA?AV?$unique_ptr@VInputStream@juce@@U?$default_delete@VInputStream@juce@@@std@@@std@@AEBVInputStreamOptions@12@@Z
       5411 1522 002BECA0 ?createInputStream@URL@juce@@QEBA?AV?$unique_ptr@VInputStream@juce@@U?$default_delete@VInputStream@juce@@@std@@@std@@_NP6A_NPEAXHH@Z1VString@2@HPEAVStringPairArray@2@PEAHH3@Z
       5412 1523 002BD790 ?createInputStream@URLInputSource@juce@@UEAAPEAVInputStream@2@XZ
       5413 1524 00007F10 ?createInputStreamFor@AndroidDocumentInputSource@juce@@UEAAPEAVInputStream@2@AEBVString@2@@Z
       5414 1525 002F12A0 ?createInputStreamFor@FileInputSource@juce@@UEAAPEAVInputStream@2@AEBVString@2@@Z
       5415 1526 002BD490 ?createInputStreamFor@URLInputSource@juce@@UEAAPEAVInputStream@2@AEBVString@2@@Z
       5416 1527 007BF068 ?createInstance@JUCEApplicationBase@juce@@2P6APEAV12@XZEA
       5417 1528 002AD0B0 ?createInstanceFromDescription@AudioPluginFormat@juce@@QEAA?AV?$unique_ptr@VAudioPluginInstance@juce@@U?$default_delete@VAudioPluginInstance@juce@@@std@@@std@@AEBVPluginDescription@2@NH@Z
       5418 1529 002ACE00 ?createInstanceFromDescription@AudioPluginFormat@juce@@QEAA?AV?$unique_ptr@VAudioPluginInstance@juce@@U?$default_delete@VAudioPluginInstance@juce@@@std@@@std@@AEBVPluginDescription@2@NHAEAVString@2@@Z
       5419 152A 004160D0 ?createItem@Toolbar@juce@@SAPEAVToolbarItemComponent@2@AEAVToolbarItemFactory@2@H@Z
       5420 152B 00077610 ?createItemComponent@TreeViewItem@juce@@UEAA?AV?$unique_ptr@VComponent@juce@@U?$default_delete@VComponent@juce@@@std@@@std@@XZ
       5421 152C 0031AB50 ?createKeyPair@RSAKey@juce@@SAXAEAV12@0HPEBHH@Z
       5422 152D 004BCA50 ?createKeyboardFocusTraverser@Component@juce@@UEAA?AV?$unique_ptr@VComponentTraverser@juce@@U?$default_delete@VComponentTraverser@juce@@@std@@@std@@XZ
       5423 152E 0047F8C0 ?createKeyboardFocusTraverser@FilenameComponent@juce@@UEAA?AV?$unique_ptr@VComponentTraverser@juce@@U?$default_delete@VComponentTraverser@juce@@@std@@@std@@XZ
       5424 152F 004287A0 ?createKeyboardFocusTraverser@Label@juce@@MEAA?AV?$unique_ptr@VComponentTraverser@juce@@U?$default_delete@VComponentTraverser@juce@@@std@@@std@@XZ
       5425 1530 0022DE10 ?createLCR@AudioChannelSet@juce@@SA?AV12@XZ
       5426 1531 0022DD40 ?createLCRS@AudioChannelSet@juce@@SA?AV12@XZ
       5427 1532 0022DDA0 ?createLRS@AudioChannelSet@juce@@SA?AV12@XZ
       5428 1533 004C7AF0 ?createLayout@BubbleMessageComponent@juce@@AEAAXAEBVAttributedString@2@@Z
       5429 1534 003AB300 ?createLayout@TextLayout@juce@@QEAAXAEBVAttributedString@2@M@Z
       5430 1535 003A4B80 ?createLayout@TextLayout@juce@@QEAAXAEBVAttributedString@2@MM@Z
       5431 1536 00342E40 ?createLayoutWithBalancedLineLengths@TextLayout@juce@@QEAAXAEBVAttributedString@2@M@Z
       5432 1537 00342C00 ?createLayoutWithBalancedLineLengths@TextLayout@juce@@QEAAXAEBVAttributedString@2@MM@Z
       5433 1538 00304870 ?createLegalFileName@File@juce@@SA?AVString@2@AEBV32@@Z
       5434 1539 00304A80 ?createLegalPathName@File@juce@@SA?AVString@2@AEBV32@@Z
       5435 153A 00324890 ?createListOfChildren@ValueTree@juce@@AEBAXAEAV?$OwnedArray@VValueTree@juce@@VDummyCriticalSection@2@@2@@Z
       5436 153B 002F4280 ?createListener@StreamingSocket@juce@@QEAA_NHAEBVString@2@@Z
       5437 153C 003A73C0 ?createLookupTable@ColourGradient@juce@@QEBAHAEBVAffineTransform@2@AEAV?$HeapBlock@VPixelARGB@juce@@$0A@@2@@Z
       5438 153D 003A11C0 ?createLookupTable@ColourGradient@juce@@QEBAXPEAVPixelARGB@2@H@Z
       5439 153E 003A77C0 ?createLowLevelContext@Image@juce@@QEBA?AV?$unique_ptr@VLowLevelGraphicsContext@juce@@U?$default_delete@VLowLevelGraphicsContext@juce@@@std@@@std@@XZ
       5440 153F 00218E10 ?createLowPass@ResamplingAudioSource@juce@@AEAAXN@Z
       5441 1540 0028ADF0 ?createMemoryMappedReader@AiffAudioFormat@juce@@UEAAPEAVMemoryMappedAudioFormatReader@2@AEBVFile@2@@Z
       5442 1541 0028AC30 ?createMemoryMappedReader@AiffAudioFormat@juce@@UEAAPEAVMemoryMappedAudioFormatReader@2@PEAVFileInputStream@2@@Z
       5443 1542 00290990 ?createMemoryMappedReader@AudioFormat@juce@@UEAAPEAVMemoryMappedAudioFormatReader@2@AEBVFile@2@@Z
       5444 1543 00290960 ?createMemoryMappedReader@AudioFormat@juce@@UEAAPEAVMemoryMappedAudioFormatReader@2@PEAVFileInputStream@2@@Z
       5445 1544 00242C60 ?createMemoryMappedReader@WavAudioFormat@juce@@UEAAPEAVMemoryMappedAudioFormatReader@2@AEBVFile@2@@Z
       5446 1545 00242A80 ?createMemoryMappedReader@WavAudioFormat@juce@@UEAAPEAVMemoryMappedAudioFormatReader@2@PEAVFileInputStream@2@@Z
       5447 1546 0029C780 ?createMenuForRow@PluginListComponent@juce@@QEAA?AVPopupMenu@2@H@Z
       5448 1547 004A96F0 ?createNativeDarkModeChangeDetectorImpl@Desktop@juce@@CA?AV?$unique_ptr@VNativeDarkModeChangeDetectorImpl@Desktop@juce@@U?$default_delete@VNativeDarkModeChangeDetectorImpl@Desktop@juce@@@std@@@std@@XZ
       5449 1548 004A3F90 ?createNativeImpl@AccessibilityHandler@juce@@CA?AV?$unique_ptr@VAccessibilityNativeImpl@AccessibilityHandler@juce@@U?$default_delete@VAccessibilityNativeImpl@AccessibilityHandler@juce@@@std@@@std@@AEAV12@@Z
       5450 1549 002C6040 ?createNativeThread@Thread@juce@@AEAA_NW4Priority@12@@Z
       5451 154A 00313800 ?createNewChildElement@XmlElement@juce@@QEAAPEAV12@VStringRef@2@@Z
       5452 154B 00476720 ?createNewDocumentWindow@MultiDocumentPanel@juce@@UEAAPEAVMultiDocumentPanelWindow@2@XZ
       5453 154C 00482630 ?createNewFolder@FileChooserDialogBox@juce@@AEAAXXZ
       5454 154D 00482A70 ?createNewFolderCallback@FileChooserDialogBox@juce@@CAXHPEAV12@V?$SafePointer@VAlertWindow@juce@@@Component@2@@Z
       5455 154E 00482340 ?createNewFolderConfirmed@FileChooserDialogBox@juce@@AEAAXAEBVString@2@@Z
       5456 154F 002A52F0 ?createNewPeer@AudioProcessorEditor@juce@@EEAAPEAVComponentPeer@2@HPEAX@Z
       5457 1550 004BBEF0 ?createNewPeer@Component@juce@@MEAAPEAVComponentPeer@2@HPEAX@Z
       5458 1551 002F5620 ?createNewPipe@NamedPipe@juce@@QEAA_NAEBVString@2@_N@Z
       5459 1552 004A8860 ?createNonRepaintingEmbeddedWindowsPeer@juce@@YAPEAVComponentPeer@1@AEAVComponent@1@PEAV31@@Z
       5460 1553 0029CE80 ?createOptionsMenu@PluginListComponent@juce@@QEAA?AVPopupMenu@2@XZ
       5461 1554 00310560 ?createOutputStream@File@juce@@QEBA?AV?$unique_ptr@VFileOutputStream@juce@@U?$default_delete@VFileOutputStream@juce@@@std@@@std@@_K@Z
       5462 1555 002C0B40 ?createOutputStream@URL@juce@@QEBA?AV?$unique_ptr@VOutputStream@juce@@U?$default_delete@VOutputStream@juce@@@std@@@std@@XZ
       5463 1556 003438E0 ?createPath@GlyphArrangement@juce@@QEBAXAEAVPath@2@@Z
       5464 1557 00348160 ?createPath@PositionedGlyph@juce@@QEBAXAEAVPath@2@@Z
       5465 1558 00433560 ?createPath@RelativePointPath@juce@@QEBAXAEAVPath@2@PEAVScope@Expression@2@@Z
       5466 1559 0039BDB0 ?createPathWithRoundedCorners@Path@juce@@QEBA?AV12@M@Z
       5467 155A 00483D20 ?createPimpl@FileChooser@juce@@AEAA?AV?$shared_ptr@UPimpl@FileChooser@juce@@@std@@HPEAVFilePreviewComponent@2@@Z
       5468 155B 0032A780 ?createPipe@InterprocessConnection@juce@@QEAA_NAEBVString@2@H_N@Z
       5469 155C 002AC950 ?createPluginInstance@AudioPluginFormatManager@juce@@QEBA?AV?$unique_ptr@VAudioPluginInstance@juce@@U?$default_delete@VAudioPluginInstance@juce@@@std@@@std@@AEBVPluginDescription@2@NHAEAVString@2@@Z
       5470 155D 002ACBB0 ?createPluginInstanceAsync@AudioPluginFormat@juce@@QEAAXAEBVPluginDescription@2@NHV?$function@$$A6AXV?$unique_ptr@VAudioPluginInstance@juce@@U?$default_delete@VAudioPluginInstance@juce@@@std@@@std@@AEBVString@juce@@@Z@std@@@Z
       5471 155E 002AC560 ?createPluginInstanceAsync@AudioPluginFormatManager@juce@@QEAAXAEBVPluginDescription@2@NHV?$function@$$A6AXV?$unique_ptr@VAudioPluginInstance@juce@@U?$default_delete@VAudioPluginInstance@juce@@@std@@@std@@AEBVString@juce@@@Z@std@@@Z
       5472 155F 004C4550 ?createPopupMenuItems@RecentlyOpenedFilesList@juce@@QEAAHAEAVPopupMenu@2@H_N1PEAPEBVFile@2@@Z
       5473 1560 0031BD10 ?createProbablePrime@Primes@juce@@SA?AVBigInteger@2@HHPEBHH@Z
       5474 1561 003203B0 ?createProcessLock@PropertiesFile@juce@@AEBAPEAVScopedLockType@InterProcessLock@2@XZ
       5475 1562 0028AE80 ?createReaderFor@AiffAudioFormat@juce@@UEAAPEAVAudioFormatReader@2@PEAVInputStream@2@_N@Z
       5476 1563 0028FF00 ?createReaderFor@AudioFormatManager@juce@@QEAAPEAVAudioFormatReader@2@AEBVFile@2@@Z
       5477 1564 0028FE40 ?createReaderFor@AudioFormatManager@juce@@QEAAPEAVAudioFormatReader@2@V?$unique_ptr@VInputStream@juce@@U?$default_delete@VInputStream@juce@@@std@@@std@@@Z
       5478 1565 0026B9A0 ?createReaderFor@FlacAudioFormat@juce@@UEAAPEAVAudioFormatReader@2@PEAVInputStream@2@_N@Z
       5479 1566 00246300 ?createReaderFor@OggVorbisAudioFormat@juce@@UEAAPEAVAudioFormatReader@2@PEAVInputStream@2@_N@Z
       5480 1567 00242CF0 ?createReaderFor@WavAudioFormat@juce@@UEAAPEAVAudioFormatReader@2@PEAVInputStream@2@_N@Z
       5481 1568 00468D60 ?createScrollBarComponent@Viewport@juce@@MEAAPEAVScrollBar@2@_N@Z
       5482 1569 002F5F30 ?createShortcut@File@juce@@QEBA_NAEBVString@2@AEBV12@@Z
       5483 156A 00464660 ?createSliderButton@LookAndFeel_V1@juce@@UEAAPEAVButton@2@AEAVSlider@2@_N@Z
       5484 156B 00459CF0 ?createSliderButton@LookAndFeel_V2@juce@@UEAAPEAVButton@2@AEAVSlider@2@_N@Z
       5485 156C 00459A40 ?createSliderTextBox@LookAndFeel_V2@juce@@UEAAPEAVLabel@2@AEAVSlider@2@@Z
       5486 156D 00443B10 ?createSliderTextBox@LookAndFeel_V4@juce@@UEAAPEAVLabel@2@AEAVSlider@2@@Z
       5487 156E 004B0460 ?createSnapshotOfRows@ListBox@juce@@UEAA?AVScaledImage@2@AEBV?$SparseSet@H@2@AEAH1@Z
       5488 156F 00391CD0 ?createSolidAreaMask@Image@juce@@QEBAXAEAV?$RectangleList@H@2@M@Z
       5489 1570 00341870 ?createStandardLayout@TextLayout@juce@@AEAAXAEBVAttributedString@2@@Z
       5490 1571 0023AEB0 ?createStateXml@AudioDeviceManager@juce@@QEBA?AV?$unique_ptr@VXmlElement@juce@@U?$default_delete@VXmlElement@juce@@@std@@@std@@XZ
       5491 1572 002CB610 ?createStreamForEntry@ZipFile@juce@@QEAAPEAVInputStream@2@AEBUZipEntry@12@@Z
       5492 1573 002CB730 ?createStreamForEntry@ZipFile@juce@@QEAAPEAVInputStream@2@H@Z
       5493 1574 00311D70 ?createStringFromData@String@juce@@SA?AV12@PEBXH@Z
       5494 1575 00397BA0 ?createStrokeWithArrowheads@PathStrokeType@juce@@QEBAXAEAVPath@2@AEBV32@MMMMAEBVAffineTransform@2@M@Z
       5495 1576 003A5090 ?createStrokedPath@PathStrokeType@juce@@QEBAXAEAVPath@2@AEBV32@AEBVAffineTransform@2@M@Z
       5496 1577 00303E80 ?createSymbolicLink@File@juce@@QEBA_NAEBV12@_N@Z
       5497 1578 00303EA0 ?createSymbolicLink@File@juce@@SA_NAEBV12@AEBVString@2@_N@Z
       5498 1579 00225930 ?createSysExMessage@MidiMessage@juce@@SA?AV12@PEBXH@Z
       5499 157A 00225900 ?createSysExMessage@MidiMessage@juce@@SA?AV12@V?$Span@$$CBW4byte@std@@$0?0@2@@Z
       5500 157B 0033FC60 ?createSystemTypefaceFor@Typeface@juce@@SA?AV?$ReferenceCountedObjectPtr@VTypeface@juce@@@2@AEBVFont@2@@Z
       5501 157C 00353EA0 ?createSystemTypefaceFor@Typeface@juce@@SA?AV?$ReferenceCountedObjectPtr@VTypeface@juce@@@2@PEBX_K@Z
       5502 157D 0033FC20 ?createSystemTypefaceFor@Typeface@juce@@SA?AV?$ReferenceCountedObjectPtr@VTypeface@juce@@@2@V?$Span@$$CBW4byte@std@@$0?0@2@@Z
       5503 157E 004550B0 ?createTabBarExtrasButton@LookAndFeel_V2@juce@@UEAAPEAVButton@2@XZ
       5504 157F 0046D970 ?createTabButton@TabbedButtonBar@juce@@MEAAPEAVTabBarButton@2@AEBVString@2@H@Z
       5505 1580 0046BC00 ?createTabButton@TabbedComponent@juce@@MEAAPEAVTabBarButton@2@AEBVString@2@H@Z
       5506 1581 00456710 ?createTabButtonShape@LookAndFeel_V2@juce@@UEAAXAEAVTabBarButton@2@AEAVPath@2@_N2@Z
       5507 1582 0044E610 ?createTabTextLayout@LookAndFeel_V3@juce@@SAXAEBVTabBarButton@2@MMVColour@2@AEAVTextLayout@2@@Z
       5508 1583 00304010 ?createTempFile@File@juce@@SA?AV12@VStringRef@2@@Z
       5509 1584 002D3E00 ?createTextElement@XmlElement@juce@@SAPEAV12@AEBVString@2@@Z
       5510 1585 00454510 ?createToolbarMissingItemsButton@LookAndFeel_V2@juce@@UEAAPEAVButton@2@AEAVToolbar@2@@Z
       5511 1586 0029FF40 ?createTree@KnownPluginList@juce@@QEBA?AV?$unique_ptr@UPluginTree@KnownPluginList@juce@@U?$default_delete@UPluginTree@KnownPluginList@juce@@@std@@@std@@W4SortMethod@12@@Z
       5512 1587 002A0260 ?createTree@KnownPluginList@juce@@SA?AV?$unique_ptr@UPluginTree@KnownPluginList@juce@@U?$default_delete@UPluginTree@KnownPluginList@juce@@@std@@@std@@AEBV?$Array@VPluginDescription@juce@@VDummyCriticalSection@2@$0A@@2@W4SortMethod@12@@Z
       5513 1588 0043B910 ?createWindow@PopupMenu@juce@@AEBAPEAVComponent@2@AEBVOptions@12@PEAPEAVApplicationCommandManager@2@@Z
       5514 1589 002C3CE0 ?createWithoutParsing@URL@juce@@SA?AV12@AEBVString@2@@Z
       5515 158A 0028AA40 ?createWriterFor@AiffAudioFormat@juce@@UEAAPEAVAudioFormatWriter@2@PEAVOutputStream@2@NIHAEBVStringPairArray@2@H@Z
       5516 158B 002907C0 ?createWriterFor@AudioFormat@juce@@UEAAPEAVAudioFormatWriter@2@PEAVOutputStream@2@NAEBVAudioChannelSet@2@HAEBVStringPairArray@2@H@Z
       5517 158C 0026B870 ?createWriterFor@FlacAudioFormat@juce@@UEAAPEAVAudioFormatWriter@2@PEAVOutputStream@2@NIHAEBVStringPairArray@2@H@Z
       5518 158D 00246220 ?createWriterFor@OggVorbisAudioFormat@juce@@UEAAPEAVAudioFormatWriter@2@PEAVOutputStream@2@NIHAEBVStringPairArray@2@H@Z
       5519 158E 002428C0 ?createWriterFor@WavAudioFormat@juce@@UEAAPEAVAudioFormatWriter@2@PEAVOutputStream@2@NAEBVAudioChannelSet@2@HAEBVStringPairArray@2@H@Z
       5520 158F 002429D0 ?createWriterFor@WavAudioFormat@juce@@UEAAPEAVAudioFormatWriter@2@PEAVOutputStream@2@NIHAEBVStringPairArray@2@H@Z
       5521 1590 0049BB80 ?createXml@KeyPressMappingSet@juce@@QEBA?AV?$unique_ptr@VXmlElement@juce@@U?$default_delete@VXmlElement@juce@@@std@@@std@@_N@Z
       5522 1591 002A06D0 ?createXml@KnownPluginList@juce@@QEBA?AV?$unique_ptr@VXmlElement@juce@@U?$default_delete@VXmlElement@juce@@@std@@@std@@XZ
       5523 1592 002A2860 ?createXml@PluginDescription@juce@@QEBA?AV?$unique_ptr@VXmlElement@juce@@U?$default_delete@VXmlElement@juce@@@std@@@std@@XZ
       5524 1593 0030A870 ?createXml@PropertySet@juce@@QEBA?AV?$unique_ptr@VXmlElement@juce@@U?$default_delete@VXmlElement@juce@@@std@@@std@@AEBVString@2@@Z
       5525 1594 003246F0 ?createXml@ValueTree@juce@@QEBA?AV?$unique_ptr@VXmlElement@juce@@U?$default_delete@VXmlElement@juce@@@std@@@std@@XZ
       5526 1595 005E7444 ?cubicMarker@Path@juce@@0MB
       5527 1596 0039ED40 ?cubicTo@Path@juce@@QEAAXMMMMMM@Z
       5528 1597 0039ECE0 ?cubicTo@Path@juce@@QEAAXV?$Point@M@2@00@Z
       5529 1598 004868C0 ?currentFileIsValid@FileBrowserComponent@juce@@QEBA_NXZ
       5530 1599 007BF048 ?currentLogger@Logger@juce@@0PEAV12@EA
       5531 159A 007BF338 ?currentModifiers@ModifierKeys@juce@@2V12@A
       5532 159B 0046C100 ?currentTabChanged@TabbedButtonBar@juce@@UEAAXHAEBVString@2@@Z
       5533 159C 0046AC00 ?currentTabChanged@TabbedComponent@juce@@UEAAXHAEBVString@2@@Z
       5534 159D 0032C4B0 ?currentThreadHasLockedMessageManager@MessageManager@juce@@QEBA_NXZ
       5535 159E 002E5690 ?currentThreadShouldExit@Thread@juce@@SA_NXZ
       5536 159F 002E1680 ?currentTimeMillis@Time@juce@@SA_JXZ
       5537 15A0 007BF328 ?currentlyFocusedComponent@Component@juce@@0PEAV12@EA
       5538 15A1 007BF330 ?currentlyFocusedHandler@AccessibilityHandler@juce@@0PEAV12@EA
       5539 15A2 00004FE0 ?customComponentUsesTreeViewMouseHandler@TreeViewItem@juce@@UEBA_NXZ
       5540 15A3 004CD220 ?cut@CodeEditorComponent@juce@@AEAAXXZ
       5541 15A4 0041B4C0 ?cut@TextEditor@juce@@QEAAXXZ
       5542 15A5 004CD170 ?cutToClipboard@CodeEditorComponent@juce@@UEAA_NXZ
       5543 15A6 00418E70 ?cutToClipboard@TextEditor@juce@@QEAA_NXZ
       5544 15A7 00490B00 ?darkModeChanged@Desktop@juce@@AEAAXXZ
       5545 15A8 003A2530 ?darker@Colour@juce@@QEBA?AV12@M@Z
       5546 15A9 002E2AF0 ?days@RelativeTime@juce@@SA?AV12@N@Z
       5547 15AA 004D83C0 ?deactivateCurrentContext@OpenGLContext@juce@@SAXXZ
       5548 15AB 00005980 ?decReferenceCount@ReferenceCountedObject@juce@@QEAAXXZ
       5549 15AC 00005AA0 ?decReferenceCount@SingleThreadedReferenceCountedObject@juce@@QEAAXXZ
       5550 15AD 000059A0 ?decReferenceCountWithoutDeleting@ReferenceCountedObject@juce@@QEAA_NXZ
       5551 15AE 00005AC0 ?decReferenceCountWithoutDeleting@SingleThreadedReferenceCountedObject@juce@@QEAA_NXZ
       5552 15AF 003A7A40 ?decodeImage@GIFImageFormat@juce@@UEAA?AVImage@2@AEAVInputStream@2@@Z
       5553 15B0 003AA510 ?decodeImage@JPEGImageFormat@juce@@UEAA?AVImage@2@AEAVInputStream@2@@Z
       5554 15B1 003A8940 ?decodeImage@PNGImageFormat@juce@@UEAA?AVImage@2@AEAVInputStream@2@@Z
       5555 15B2 0031D510 ?decrypt@BlowFish@juce@@QEBAHPEAX_K@Z
       5556 15B3 0031D820 ?decrypt@BlowFish@juce@@QEBAXAEAI0@Z
       5557 15B4 0031D660 ?decrypt@BlowFish@juce@@QEBAXAEAVMemoryBlock@2@@Z
       5558 15B5 005E73DC ?defaultEdgesPerLine@EdgeTable@juce@@0HB
       5559 15B6 005E9F00 ?defaultOrientation@MouseInputSource@juce@@2MB
       5560 15B7 005E9F5C ?defaultPressure@MouseInputSource@juce@@2MB
       5561 15B8 005E9F54 ?defaultRotation@MouseInputSource@juce@@2MB
       5562 15B9 005E9EF4 ?defaultTiltX@MouseInputSource@juce@@2MB
       5563 15BA 005E9EEC ?defaultTiltY@MouseInputSource@juce@@2MB
       5564 15BB 005A43D8 ?defaultToleranceForMeasurement@Path@juce@@2MB
       5565 15BC 005A46C0 ?defaultToleranceForTesting@Path@juce@@2MB
       5566 15BD 00231690 ?deinterleaveSamples@AudioDataConverters@juce@@SAXPEBMPEAPEAMHH@Z
       5567 15BE 004C3FE0 ?deleteAfterDelay@SplashScreen@juce@@QEAAXVRelativeTime@2@_N@Z
       5568 15BF 0032CC00 ?deleteAll@DeletedAtShutdown@juce@@SAXXZ
       5569 15C0 002D43C0 ?deleteAllChildElements@XmlElement@juce@@QEAAXXZ
       5570 15C1 002D4310 ?deleteAllChildElementsWithTagName@XmlElement@juce@@QEAAXVStringRef@2@@Z
       5571 15C2 004990B0 ?deleteAllChildren@Component@juce@@QEAAXXZ
       5572 15C3 002D3C60 ?deleteAllTextElements@XmlElement@juce@@QEAAXXZ
       5573 15C4 004CB9C0 ?deleteBackwards@CodeEditorComponent@juce@@QEAA_N_N@Z
       5574 15C5 00418F70 ?deleteBackwards@TextEditor@juce@@QEAA_N_N@Z
       5575 15C6 004C3690 ?deleteControl@ActiveXControlComponent@juce@@QEAAXXZ
       5576 15C7 0023ABE0 ?deleteCurrentDevice@AudioDeviceManager@juce@@AEAAXXZ
       5577 15C8 002240E0 ?deleteEvent@MidiMessageSequence@juce@@QEAAXH_N@Z
       5578 15C9 0030D5D0 ?deleteFile@File@juce@@QEBA_NXZ
       5579 15CA 004CB630 ?deleteForwards@CodeEditorComponent@juce@@QEAA_N_N@Z
       5580 15CB 00418ED0 ?deleteForwards@TextEditor@juce@@QEAA_N_N@Z
       5581 15CC 0001F200 ?deleteInstance@ChildProcessManager@juce@@SAXXZ
       5582 15CD 0032CA20 ?deleteInstance@MessageManager@juce@@SAXXZ
       5583 15CE 00073F20 ?deleteInstance@ModalComponentManager@juce@@SAXXZ
       5584 15CF 00079CF0 ?deleteInstance@PushNotifications@juce@@SAXXZ
       5585 15D0 005D29BC ?deleteKey@KeyPress@juce@@2HB
       5586 15D1 002C8BA0 ?deleteKey@WindowsRegistry@juce@@SA_NAEBVString@2@W4WoW64Mode@12@@Z
       5587 15D2 00481930 ?deleteKeyPressed@FileListComponent@juce@@EEAAXH@Z
       5588 15D3 00481350 ?deleteKeyPressed@FileSearchPathListComponent@juce@@UEAAXH@Z
       5589 15D4 004B3CE0 ?deleteKeyPressed@ListBoxModel@juce@@UEAAXH@Z
       5590 15D5 00420060 ?deleteKeyPressed@TableListBox@juce@@UEAAXH@Z
       5591 15D6 004B4FD0 ?deleteKeyPressed@TableListBoxModel@juce@@UEAAXH@Z
       5592 15D7 00223740 ?deleteMidiChannelMessages@MidiMessageSequence@juce@@QEAAXH@Z
       5593 15D8 0046A920 ?deleteOrRemoveContentComp@Viewport@juce@@AEAAXXZ
       5594 15D9 0032A500 ?deletePipeAndSocket@InterprocessConnection@juce@@AEAAXXZ
       5595 15DA 00308290 ?deleteRecursively@File@juce@@QEBA_N_N@Z
       5596 15DB 004136E0 ?deleteRootItem@TreeView@juce@@QEAAXXZ
       5597 15DC 004D33A0 ?deleteSection@CodeDocument@juce@@QEAAXAEBVPosition@12@0@Z
       5598 15DD 004D3330 ?deleteSection@CodeDocument@juce@@QEAAXHH@Z
       5599 15DE 004808C0 ?deleteSelected@FileSearchPathListComponent@juce@@AEAAXXZ
       5600 15DF 00223670 ?deleteSysExMessages@MidiMessageSequence@juce@@QEAAXXZ
       5601 15E0 00303050 ?deleteTemporaryFile@TemporaryFile@juce@@QEBA_NXZ
       5602 15E1 002C8F40 ?deleteValue@WindowsRegistry@juce@@SA_NAEBVString@2@W4WoW64Mode@12@@Z
       5603 15E2 004CDC00 ?deleteWhitespaceBackwardsToTabStop@CodeEditorComponent@juce@@QEAA_NXZ
       5604 15E3 00073510 ?delimitedStringToVarArray@ValueTreePropertyWithDefault@juce@@CA?AV?$Array@Vvar@juce@@VDummyCriticalSection@2@$0A@@2@VStringRef@2@0@Z
       5605 15E4 0032C640 ?deliverBroadcastMessage@MessageManager@juce@@QEAAXAEBVString@2@@Z
       5606 15E5 00329BF0 ?deliverDataInt@InterprocessConnection@juce@@AEAAXAEBVMemoryBlock@2@@Z
       5607 15E6 007BF030 ?deprecationAssertiontriggered@AudioPluginInstance@juce@@0_NA
       5608 15E7 0032C590 ?deregisterBroadcastListener@MessageManager@juce@@QEAAXPEAVActionListener@2@@Z
       5609 15E8 00392200 ?desaturate@Image@juce@@QEAAXXZ
       5610 15E9 0001FCA0 ?desaturate@PixelARGB@juce@@QEAAXXZ
       5611 15EA 00005960 ?desaturate@PixelAlpha@juce@@QEAAXXZ
       5612 15EB 0001FDD0 ?desaturate@PixelRGB@juce@@QEAAXXZ
       5613 15EC 003071E0 ?descriptionOfSizeInBytes@File@juce@@SA?AVString@2@_J@Z
       5614 15ED 004CF300 ?deselectAll@CodeEditorComponent@juce@@QEAAXXZ
       5615 15EE 00486870 ?deselectAllFiles@FileBrowserComponent@juce@@QEAAXXZ
       5616 15EF 00482000 ?deselectAllFiles@FileListComponent@juce@@UEAAXXZ
       5617 15F0 004802B0 ?deselectAllFiles@FileTreeComponent@juce@@UEAAXXZ
       5618 15F1 00411570 ?deselectAllRecursively@TreeViewItem@juce@@AEAAXPEAV12@@Z
       5619 15F2 00427B20 ?deselectAllRows@ListBox@juce@@QEAAXXZ
       5620 15F3 00427E00 ?deselectRow@ListBox@juce@@QEAAXH@Z
       5621 15F4 004D8590 ?detach@OpenGLContext@juce@@QEAAXXZ
       5622 15F5 00005960 ?didModifyProperty@DynamicObject@juce@@EEAAXAEBVIdentifier@2@AEBV?$optional@Vvar@juce@@@std@@@Z
       5623 15F6 002315C0 ?disableDenormalisedNumberSupport@FloatVectorOperations@juce@@SAX_N@Z
       5624 15F7 002A8C00 ?disableNonMainBuses@AudioProcessor@juce@@QEAA_NXZ
       5625 15F8 0022DF10 ?disabled@AudioChannelSet@juce@@SA?AV12@XZ
       5626 15F9 0032A5C0 ?disconnect@InterprocessConnection@juce@@QEAAXHW4Notify@12@@Z
       5627 15FA 002A4A90 ?disconnectNode@AudioProcessorGraph@juce@@QEAA_NUNodeID@12@W4UpdateKind@12@@Z
       5628 15FB 0022C750 ?discreteChannels@AudioChannelSet@juce@@SA?AV12@H@Z
       5629 15FC 0040C700 ?dismiss@CallOutBox@juce@@QEAAXXZ
       5630 15FD 0043B4D0 ?dismissAllActiveMenus@PopupMenu@juce@@SA_NXZ
       5631 15FE 0040AC30 ?dismissPendingTextInput@ComponentPeer@juce@@EEAAXXZ
       5632 15FF 0032B300 ?dispatchPendingMessages@ChangeBroadcaster@juce@@QEAAXXZ
       5633 1600 00403F30 ?displayTip@TooltipWindow@juce@@QEAAXV?$Point@H@2@AEBVString@2@@Z
       5634 1601 00403B00 ?displayTipInternal@TooltipWindow@juce@@AEAAXV?$Point@H@2@AEBVString@2@W4ShownManually@12@@Z
       5635 1602 00300CF0 ?divideBy@BigInteger@juce@@QEAAXAEBV12@AEAV12@@Z
       5636 1603 00327A80 ?doPlatformSpecificInitialisation@MessageManager@juce@@CAXXZ
       5637 1604 003279D0 ?doPlatformSpecificShutdown@MessageManager@juce@@CAXXZ
       5638 1605 00076F10 ?doesLossOfFocusDiscardChanges@Label@juce@@QEBA_NXZ
       5639 1606 002AC0C0 ?doesPluginStillExist@AudioPluginFormatManager@juce@@QEBA_NAEBVPluginDescription@2@@Z
       5640 1607 005D2720 ?downKey@KeyPress@juce@@2HB
       5641 1608 002C93E0 ?downloadToFile@URL@juce@@QEAA?AV?$unique_ptr@VDownloadTask@URL@juce@@U?$default_delete@VDownloadTask@URL@juce@@@std@@@std@@AEBVFile@2@AEBVDownloadTaskOptions@12@@Z
       5642 1609 002BEB50 ?downloadToFile@URL@juce@@QEAA?AV?$unique_ptr@VDownloadTask@URL@juce@@U?$default_delete@VDownloadTask@URL@juce@@@std@@@std@@AEBVFile@2@VString@2@PEAUDownloadTaskListener@12@_N@Z
       5643 160A 00439170 ?dragComponent@ComponentDragger@juce@@QEAAXPEAVComponent@2@AEBVMouseEvent@2@PEAVComponentBoundsConstrainer@2@@Z
       5644 160B 004387E0 ?dragOperationEnded@DragAndDropContainer@juce@@MEAAXAEBVSourceDetails@DragAndDropTarget@2@@Z
       5645 160C 004387F0 ?dragOperationStarted@DragAndDropContainer@juce@@MEAAXAEBVSourceDetails@DragAndDropTarget@2@@Z
       5646 160D 00355450 ?draw@AttributedString@juce@@QEBAXAEAVGraphics@2@AEBV?$Rectangle@M@2@@Z
       5647 160E 0048DF80 ?draw@Drawable@juce@@QEBAXAEAVGraphics@2@MAEBVAffineTransform@2@@Z
       5648 160F 00343E90 ?draw@GlyphArrangement@juce@@QEBAXAEBVGraphics@2@@Z
       5649 1610 00343AC0 ?draw@GlyphArrangement@juce@@QEBAXAEBVGraphics@2@VAffineTransform@2@@Z
       5650 1611 00348390 ?draw@PositionedGlyph@juce@@QEBAXAEAVGraphics@2@@Z
       5651 1612 003482D0 ?draw@PositionedGlyph@juce@@QEBAXAEAVGraphics@2@VAffineTransform@2@@Z
       5652 1613 003485A0 ?draw@ShapedText@juce@@QEBAXAEBVGraphics@2@VAffineTransform@2@@Z
       5653 1614 003A4510 ?draw@TextLayout@juce@@QEBAXAEAVGraphics@2@V?$Rectangle@M@2@@Z
       5654 1615 0040FAA0 ?draw@TreeViewItem@juce@@AEAAXAEAVGraphics@2@H_N@Z
       5655 1616 00461AD0 ?drawAlertBox@LookAndFeel_V2@juce@@UEAAXAEAVGraphics@2@AEAVAlertWindow@2@AEBV?$Rectangle@H@2@AEAVTextLayout@2@@Z
       5656 1617 00448980 ?drawAlertBox@LookAndFeel_V4@juce@@UEAAXAEAVGraphics@2@AEAVAlertWindow@2@AEBV?$Rectangle@H@2@AEAVTextLayout@2@@Z
       5657 1618 00394740 ?drawArrow@Graphics@juce@@QEBAXV?$Line@M@2@MMM@Z
       5658 1619 0048DC20 ?drawAt@Drawable@juce@@QEBAXAEAVGraphics@2@MMM@Z
       5659 161A 00451DB0 ?drawBevel@LookAndFeel_V2@juce@@SAXAEAVGraphics@2@HHHHHAEBVColour@2@1_N2@Z
       5660 161B 002B1FF0 ?drawBlackKey@MPEKeyboardComponent@juce@@EEAAXHAEAVGraphics@2@V?$Rectangle@M@2@@Z
       5661 161C 002B2890 ?drawBlackKey@MidiKeyboardComponent@juce@@EEAAXHAEAVGraphics@2@V?$Rectangle@M@2@@Z
       5662 161D 002B2B50 ?drawBlackNote@MidiKeyboardComponent@juce@@UEAAXHAEAVGraphics@2@V?$Rectangle@M@2@_N2VColour@2@@Z
       5663 161E 0045F600 ?drawBubble@LookAndFeel_V2@juce@@UEAAXAEAVGraphics@2@AEAVBubbleComponent@2@AEBV?$Point@M@2@AEBV?$Rectangle@M@2@@Z
       5664 161F 00467930 ?drawButtonBackground@LookAndFeel_V1@juce@@UEAAXAEAVGraphics@2@AEAVButton@2@AEBVColour@2@_N3@Z
       5665 1620 004633F0 ?drawButtonBackground@LookAndFeel_V2@juce@@UEAAXAEAVGraphics@2@AEAVButton@2@AEBVColour@2@_N3@Z
       5666 1621 0044EA50 ?drawButtonBackground@LookAndFeel_V3@juce@@UEAAXAEAVGraphics@2@AEAVButton@2@AEBVColour@2@_N3@Z
       5667 1622 00449990 ?drawButtonBackground@LookAndFeel_V4@juce@@UEAAXAEAVGraphics@2@AEAVButton@2@AEBVColour@2@_N3@Z
       5668 1623 00463060 ?drawButtonText@LookAndFeel_V2@juce@@UEAAXAEAVGraphics@2@AEAVTextButton@2@_N2@Z
       5669 1624 00453C90 ?drawCallOutBoxBackground@LookAndFeel_V2@juce@@UEAAXAEAVCallOutBox@2@AEAVGraphics@2@AEBVPath@2@AEAVImage@2@@Z
       5670 1625 00442810 ?drawCallOutBoxBackground@LookAndFeel_V4@juce@@UEAAXAEAVCallOutBox@2@AEAVGraphics@2@AEBVPath@2@AEAVImage@2@@Z
       5671 1626 002B7DC0 ?drawChannel@AudioThumbnail@juce@@UEAAXAEAVGraphics@2@AEBV?$Rectangle@H@2@NNHM@Z
       5672 1627 002B7CC0 ?drawChannels@AudioThumbnail@juce@@UEAAXAEAVGraphics@2@AEBV?$Rectangle@H@2@NNM@Z
       5673 1628 00447A70 ?drawCircularProgressBar@LookAndFeel_V4@juce@@CAXAEAVGraphics@2@AEBVProgressBar@2@AEBVString@2@@Z
       5674 1629 004221D0 ?drawColumnHeader@TableHeaderComponent@juce@@AEAAXAEAVGraphics@2@AEAVLookAndFeel@2@AEBUColumnInfo@12@@Z
       5675 162A 004654C0 ?drawComboBox@LookAndFeel_V1@juce@@UEAAXAEAVGraphics@2@HH_NHHHHAEAVComboBox@2@@Z
       5676 162B 0045C9A0 ?drawComboBox@LookAndFeel_V2@juce@@UEAAXAEAVGraphics@2@HH_NHHHHAEAVComboBox@2@@Z
       5677 162C 0044CBA0 ?drawComboBox@LookAndFeel_V3@juce@@UEAAXAEAVGraphics@2@HH_NHHHHAEAVComboBox@2@@Z
       5678 162D 004455C0 ?drawComboBox@LookAndFeel_V4@juce@@UEAAXAEAVGraphics@2@HH_NHHHHAEAVComboBox@2@@Z
       5679 162E 0045BED0 ?drawComboBoxTextWhenNothingSelected@LookAndFeel_V2@juce@@UEAAXAEAVGraphics@2@AEAVComboBox@2@AEAVLabel@2@@Z
       5680 162F 00459080 ?drawConcertinaPanelHeader@LookAndFeel_V2@juce@@UEAAXAEAVGraphics@2@AEBV?$Rectangle@H@2@_N2AEAVConcertinaPanel@2@AEAVComponent@2@@Z
       5681 1630 0044F030 ?drawConcertinaPanelHeader@LookAndFeel_V3@juce@@UEAAXAEAVGraphics@2@AEBV?$Rectangle@H@2@_N2AEAVConcertinaPanel@2@AEAVComponent@2@@Z
       5682 1631 00443630 ?drawConcertinaPanelHeader@LookAndFeel_V4@juce@@UEAAXAEAVGraphics@2@AEBV?$Rectangle@H@2@_N2AEAVConcertinaPanel@2@AEAVComponent@2@@Z
       5683 1632 0041A5C0 ?drawContent@TextEditor@juce@@AEAAXAEAVGraphics@2@@Z
       5684 1633 004644F0 ?drawCornerResizer@LookAndFeel_V1@juce@@UEAAXAEAVGraphics@2@HH_N1@Z
       5685 1634 00458CF0 ?drawCornerResizer@LookAndFeel_V2@juce@@UEAAXAEAVGraphics@2@HH_N1@Z
       5686 1635 00393D20 ?drawDashedLine@Graphics@juce@@QEBAXV?$Line@M@2@PEBMHMH@Z
       5687 1636 00458640 ?drawDocumentWindowTitleBar@LookAndFeel_V2@juce@@UEAAXAEAVDocumentWindow@2@AEAVGraphics@2@HHHHPEBVImage@2@_N@Z
       5688 1637 00449E80 ?drawDocumentWindowTitleBar@LookAndFeel_V4@juce@@UEAAXAEAVDocumentWindow@2@AEAVGraphics@2@HHHHPEBVImage@2@_N@Z
       5689 1638 00462500 ?drawDrawableButton@LookAndFeel_V2@juce@@UEAAXAEAVGraphics@2@AEAVDrawableButton@2@_N2@Z
       5690 1639 00394940 ?drawEllipse@Graphics@juce@@QEBAXMMMMM@Z
       5691 163A 003A3270 ?drawEllipse@Graphics@juce@@QEBAXV?$Rectangle@M@2@M@Z
       5692 163B 00022A50 ?drawEllipse@LowLevelGraphicsContext@juce@@UEAAXAEBV?$Rectangle@M@2@M@Z
       5693 163C 00453630 ?drawFileBrowserRow@LookAndFeel_V2@juce@@UEAAXAEAVGraphics@2@HHAEBVFile@2@AEBVString@2@PEAVImage@2@22_N4HAEAVDirectoryContentsDisplayComponent@2@@Z
       5694 163D 00446C50 ?drawFileBrowserRow@LookAndFeel_V4@juce@@UEAAXAEAVGraphics@2@HHAEBVFile@2@AEBVString@2@PEAVImage@2@22_N4HAEAVDirectoryContentsDisplayComponent@2@@Z
       5695 163E 003A4CD0 ?drawFittedText@Graphics@juce@@QEBAXAEBVString@2@HHHHVJustification@2@HM@Z
       5696 163F 003954D0 ?drawFittedText@Graphics@juce@@QEBAXAEBVString@2@V?$Rectangle@H@2@VJustification@2@HM@Z
       5697 1640 00341060 ?drawForImage@DropShadow@juce@@QEBAXAEAVGraphics@2@AEBVImage@2@@Z
       5698 1641 00340CC0 ?drawForPath@DropShadow@juce@@QEBAXAEAVGraphics@2@AEBVPath@2@@Z
       5699 1642 00340590 ?drawForRectangle@DropShadow@juce@@QEBAXAEAVGraphics@2@AEBV?$Rectangle@H@2@@Z
       5700 1643 0044FC80 ?drawGlassLozenge@LookAndFeel_V2@juce@@SAXAEAVGraphics@2@MMMMAEBVColour@2@MM_N222@Z
       5701 1644 00450860 ?drawGlassPointer@LookAndFeel_V2@juce@@SAXAEAVGraphics@2@MMMAEBVColour@2@MH@Z
       5702 1645 004511E0 ?drawGlassSphere@LookAndFeel_V2@juce@@SAXAEAVGraphics@2@MMMAEBVColour@2@M@Z
       5703 1646 00031DA0 ?drawGlyph@?$StackBasedLowLevelGraphicsContext@VSoftwareRendererSavedState@RenderingHelpers@juce@@@RenderingHelpers@juce@@IEAAXGAEBVAffineTransform@3@@Z
       5704 1647 00343ED0 ?drawGlyphUnderline@GlyphArrangement@juce@@AEBAXAEBVGraphics@2@HVAffineTransform@2@@Z
       5705 1648 00032670 ?drawGlyphs@?$StackBasedLowLevelGraphicsContext@VSoftwareRendererSavedState@RenderingHelpers@juce@@@RenderingHelpers@juce@@UEAAXV?$Span@$$CBG$0?0@3@V?$Span@$$CBV?$Point@M@juce@@$0?0@3@AEBVAffineTransform@3@@Z
       5706 1649 00456D30 ?drawGroupComponentOutline@LookAndFeel_V2@juce@@UEAAXAEAVGraphics@2@HHAEBVString@2@AEBVJustification@2@AEAVGroupComponent@2@@Z
       5707 164A 00394100 ?drawHorizontalLine@Graphics@juce@@QEBAXHMM@Z
       5708 164B 000328B0 ?drawImage@?$StackBasedLowLevelGraphicsContext@VSoftwareRendererSavedState@RenderingHelpers@juce@@@RenderingHelpers@juce@@UEAAXAEBVImage@3@AEBVAffineTransform@3@@Z
       5709 164C 00393990 ?drawImage@Graphics@juce@@QEBAXAEBVImage@2@HHHHHHHH_N@Z
       5710 164D 00393BE0 ?drawImage@Graphics@juce@@QEBAXAEBVImage@2@V?$Rectangle@M@2@VRectanglePlacement@2@_N@Z
       5711 164E 00393C70 ?drawImageAt@Graphics@juce@@QEBAXAEBVImage@2@HH_N@Z
       5712 164F 00458E80 ?drawImageButton@LookAndFeel_V2@juce@@UEAAXAEAVGraphics@2@PEAVImage@2@HHHHAEBVColour@2@MAEAVImageButton@2@@Z
       5713 1650 003938F0 ?drawImageTransformed@Graphics@juce@@QEBAXAEBVImage@2@AEBVAffineTransform@2@_N@Z
       5714 1651 00393B00 ?drawImageWithin@Graphics@juce@@QEBAXAEBVImage@2@HHHHVRectanglePlacement@2@_N@Z
       5715 1652 002B2490 ?drawKeyboardBackground@MPEKeyboardComponent@juce@@EEAAXAEAVGraphics@2@V?$Rectangle@M@2@@Z
       5716 1653 002B36E0 ?drawKeyboardBackground@MidiKeyboardComponent@juce@@EEAAXAEAVGraphics@2@V?$Rectangle@M@2@@Z
       5717 1654 00452470 ?drawKeymapChangeButton@LookAndFeel_V2@juce@@UEAAXAEAVGraphics@2@HHAEAVButton@2@AEBVString@2@@Z
       5718 1655 0044B8E0 ?drawKeymapChangeButton@LookAndFeel_V3@juce@@UEAAXAEAVGraphics@2@HHAEAVButton@2@AEBVString@2@@Z
       5719 1656 0045BB10 ?drawLabel@LookAndFeel_V2@juce@@UEAAXAEAVGraphics@2@AEAVLabel@2@@Z
       5720 1657 00454670 ?drawLasso@LookAndFeel_V2@juce@@UEAAXAEAVGraphics@2@AEAVComponent@2@@Z
       5721 1658 00452890 ?drawLevelMeter@LookAndFeel_V2@juce@@UEAAXAEAVGraphics@2@HHM@Z
       5722 1659 004431F0 ?drawLevelMeter@LookAndFeel_V4@juce@@UEAAXAEAVGraphics@2@HHM@Z
       5723 165A 00032820 ?drawLine@?$StackBasedLowLevelGraphicsContext@VSoftwareRendererSavedState@RenderingHelpers@juce@@@RenderingHelpers@juce@@UEAAXAEBV?$Line@M@3@@Z
       5724 165B 003940A0 ?drawLine@Graphics@juce@@QEBAXMMMM@Z
       5725 165C 00394040 ?drawLine@Graphics@juce@@QEBAXMMMMM@Z
       5726 165D 003940E0 ?drawLine@Graphics@juce@@QEBAXV?$Line@M@2@@Z
       5727 165E 00394020 ?drawLine@Graphics@juce@@QEBAXV?$Line@M@2@M@Z
       5728 165F 00022810 ?drawLineWithThickness@LowLevelGraphicsContext@juce@@UEAAXAEBV?$Line@M@2@M@Z
       5729 1660 00448090 ?drawLinearProgressBar@LookAndFeel_V4@juce@@CAXAEAVGraphics@2@AEBVProgressBar@2@HHNAEBVString@2@@Z
       5730 1661 004647B0 ?drawLinearSlider@LookAndFeel_V1@juce@@UEAAXAEAVGraphics@2@HHHHMMMW4SliderStyle@Slider@2@AEAV52@@Z
       5731 1662 0045AB60 ?drawLinearSlider@LookAndFeel_V2@juce@@UEAAXAEAVGraphics@2@HHHHMMMW4SliderStyle@Slider@2@AEAV52@@Z
       5732 1663 0044C5D0 ?drawLinearSlider@LookAndFeel_V3@juce@@UEAAXAEAVGraphics@2@HHHHMMMW4SliderStyle@Slider@2@AEAV52@@Z
       5733 1664 004447D0 ?drawLinearSlider@LookAndFeel_V4@juce@@UEAAXAEAVGraphics@2@HHHHMMMW4SliderStyle@Slider@2@AEAV52@@Z
       5734 1665 0045B590 ?drawLinearSliderBackground@LookAndFeel_V2@juce@@UEAAXAEAVGraphics@2@HHHHMMMW4SliderStyle@Slider@2@AEAV52@@Z
       5735 1666 0044C070 ?drawLinearSliderBackground@LookAndFeel_V3@juce@@UEAAXAEAVGraphics@2@HHHHMMMW4SliderStyle@Slider@2@AEAV52@@Z
       5736 1667 0045B510 ?drawLinearSliderOutline@LookAndFeel_V2@juce@@UEAAXAEAVGraphics@2@HHHHW4SliderStyle@Slider@2@AEAV52@@Z
       5737 1668 0045AFB0 ?drawLinearSliderThumb@LookAndFeel_V2@juce@@UEAAXAEAVGraphics@2@HHHHMMMW4SliderStyle@Slider@2@AEAV52@@Z
       5738 1669 00465E80 ?drawMenuBarBackground@LookAndFeel_V1@juce@@UEAAXAEAVGraphics@2@HH_NAEAVMenuBarComponent@2@@Z
       5739 166A 0045DB20 ?drawMenuBarBackground@LookAndFeel_V2@juce@@UEAAXAEAVGraphics@2@HH_NAEAVMenuBarComponent@2@@Z
       5740 166B 0044BDC0 ?drawMenuBarBackground@LookAndFeel_V3@juce@@UEAAXAEAVGraphics@2@HH_NAEAVMenuBarComponent@2@@Z
       5741 166C 00445DC0 ?drawMenuBarBackground@LookAndFeel_V4@juce@@UEAAXAEAVGraphics@2@HH_NAEAVMenuBarComponent@2@@Z
       5742 166D 0045D820 ?drawMenuBarItem@LookAndFeel_V2@juce@@UEAAXAEAVGraphics@2@HHHAEBVString@2@_N22AEAVMenuBarComponent@2@@Z
       5743 166E 00445BC0 ?drawMenuBarItem@LookAndFeel_V4@juce@@UEAAXAEAVGraphics@2@HHHAEBVString@2@_N22AEAVMenuBarComponent@2@@Z
       5744 166F 003960A0 ?drawMultiLineText@Graphics@juce@@QEBAXAEBVString@2@HHHVJustification@2@M@Z
       5745 1670 00443C20 ?drawPointer@LookAndFeel_V4@juce@@QEAAXAEAVGraphics@2@MMMAEBVColour@2@H@Z
       5746 1671 004B60D0 ?drawPopupMenuBackground@LookAndFeelMethods@PopupMenu@juce@@UEAAXAEAVGraphics@3@HH@Z
       5747 1672 00465EC0 ?drawPopupMenuBackground@LookAndFeel_V1@juce@@UEAAXAEAVGraphics@2@HH@Z
       5748 1673 0045F0B0 ?drawPopupMenuBackground@LookAndFeel_V2@juce@@UEAAXAEAVGraphics@2@HH@Z
       5749 1674 0044BFB0 ?drawPopupMenuBackground@LookAndFeel_V3@juce@@UEAAXAEAVGraphics@2@HH@Z
       5750 1675 0045F0A0 ?drawPopupMenuBackgroundWithOptions@LookAndFeel_V2@juce@@UEAAXAEAVGraphics@2@HHAEBVOptions@PopupMenu@2@@Z
       5751 1676 0045D7B0 ?drawPopupMenuColumnSeparatorWithOptions@LookAndFeel_V2@juce@@UEAAXAEAVGraphics@2@AEBV?$Rectangle@H@2@AEBVOptions@PopupMenu@2@@Z
       5752 1677 004B60C0 ?drawPopupMenuItem@LookAndFeelMethods@PopupMenu@juce@@UEAAXAEAVGraphics@3@AEBV?$Rectangle@H@3@_N2222AEBVString@3@3PEBVDrawable@3@PEBVColour@3@@Z
       5753 1678 0045DEE0 ?drawPopupMenuItem@LookAndFeel_V2@juce@@UEAAXAEAVGraphics@2@AEBV?$Rectangle@H@2@_N2222AEBVString@2@3PEBVDrawable@2@PEBVColour@2@@Z
       5754 1679 004461E0 ?drawPopupMenuItem@LookAndFeel_V4@juce@@UEAAXAEAVGraphics@2@AEBV?$Rectangle@H@2@_N2222AEBVString@2@3PEBVDrawable@2@PEBVColour@2@@Z
       5755 167A 00004FB0 ?drawPopupMenuItem@PopupMenu@juce@@QEAAHAEAVGraphics@2@HH_N1111AEBVString@2@2PEAVImage@2@PEBVColour@2@@Z
       5756 167B 0045DE10 ?drawPopupMenuItemWithOptions@LookAndFeel_V2@juce@@UEAAXAEAVGraphics@2@AEBV?$Rectangle@H@2@_NAEBUItem@PopupMenu@2@AEBVOptions@62@@Z
       5757 167C 004B60B0 ?drawPopupMenuSectionHeader@LookAndFeelMethods@PopupMenu@juce@@UEAAXAEAVGraphics@3@AEBV?$Rectangle@H@3@AEBVString@3@@Z
       5758 167D 0045DCA0 ?drawPopupMenuSectionHeader@LookAndFeel_V2@juce@@UEAAXAEAVGraphics@2@AEBV?$Rectangle@H@2@AEBVString@2@@Z
       5759 167E 0045DC90 ?drawPopupMenuSectionHeaderWithOptions@LookAndFeel_V2@juce@@UEAAXAEAVGraphics@2@AEBV?$Rectangle@H@2@AEBVString@2@AEBVOptions@PopupMenu@2@@Z
       5760 167F 004B60A0 ?drawPopupMenuUpDownArrow@LookAndFeelMethods@PopupMenu@juce@@UEAAXAEAVGraphics@3@HH_N@Z
       5761 1680 0045EB50 ?drawPopupMenuUpDownArrow@LookAndFeel_V2@juce@@UEAAXAEAVGraphics@2@HH_N@Z
       5762 1681 0045EB30 ?drawPopupMenuUpDownArrowWithOptions@LookAndFeel_V2@juce@@UEAAXAEAVGraphics@2@HH_NAEBVOptions@PopupMenu@2@@Z
       5763 1682 00466EA0 ?drawProgressBar@LookAndFeel_V1@juce@@UEAAXAEAVGraphics@2@AEAVProgressBar@2@HHNAEBVString@2@@Z
       5764 1683 004611D0 ?drawProgressBar@LookAndFeel_V2@juce@@UEAAXAEAVGraphics@2@AEAVProgressBar@2@HHNAEBVString@2@@Z
       5765 1684 00448760 ?drawProgressBar@LookAndFeel_V4@juce@@UEAAXAEAVGraphics@2@AEAVProgressBar@2@HHNAEBVString@2@@Z
       5766 1685 00454100 ?drawPropertyComponentBackground@LookAndFeel_V2@juce@@UEAAXAEAVGraphics@2@HHAEAVPropertyComponent@2@@Z
       5767 1686 00442C90 ?drawPropertyComponentBackground@LookAndFeel_V4@juce@@UEAAXAEAVGraphics@2@HHAEAVPropertyComponent@2@@Z
       5768 1687 00453F50 ?drawPropertyComponentLabel@LookAndFeel_V2@juce@@UEAAXAEAVGraphics@2@HHAEAVPropertyComponent@2@@Z
       5769 1688 00442AC0 ?drawPropertyComponentLabel@LookAndFeel_V4@juce@@UEAAXAEAVGraphics@2@HHAEAVPropertyComponent@2@@Z
       5770 1689 00454180 ?drawPropertyPanelSectionHeader@LookAndFeel_V2@juce@@UEAAXAEAVGraphics@2@AEBVString@2@_NHH@Z
       5771 168A 00442D10 ?drawPropertyPanelSectionHeader@LookAndFeel_V4@juce@@UEAAXAEAVGraphics@2@AEBVString@2@_NHH@Z
       5772 168B 00394A30 ?drawRect@Graphics@juce@@QEBAXHHHHH@Z
       5773 168C 00394AD0 ?drawRect@Graphics@juce@@QEBAXMMMMM@Z
       5774 168D 003949F0 ?drawRect@Graphics@juce@@QEBAXV?$Rectangle@H@2@H@Z
       5775 168E 003A32B0 ?drawRect@Graphics@juce@@QEBAXV?$Rectangle@M@2@M@Z
       5776 168F 000224C0 ?drawRect@LowLevelGraphicsContext@juce@@UEAAXAEBV?$Rectangle@M@2@M@Z
       5777 1690 00458AE0 ?drawResizableFrame@LookAndFeel_V2@juce@@UEAAXAEAVGraphics@2@HHAEBV?$BorderSize@H@2@@Z
       5778 1691 00458A90 ?drawResizableWindowBorder@LookAndFeel_V2@juce@@UEAAXAEAVGraphics@2@HHAEBV?$BorderSize@H@2@AEAVResizableWindow@2@@Z
       5779 1692 00459E40 ?drawRotarySlider@LookAndFeel_V2@juce@@UEAAXAEAVGraphics@2@HHHHMMMAEAVSlider@2@@Z
       5780 1693 00444300 ?drawRotarySlider@LookAndFeel_V4@juce@@UEAAXAEAVGraphics@2@HHHHMMMAEAVSlider@2@@Z
       5781 1694 00394880 ?drawRoundedRectangle@Graphics@juce@@QEBAXMMMMMM@Z
       5782 1695 00394860 ?drawRoundedRectangle@Graphics@juce@@QEBAXV?$Rectangle@M@2@MM@Z
       5783 1696 000228A0 ?drawRoundedRectangle@LowLevelGraphicsContext@juce@@UEAAXAEBV?$Rectangle@M@2@MM@Z
       5784 1697 00465F70 ?drawScrollbar@LookAndFeel_V1@juce@@UEAAXAEAVGraphics@2@AEAVScrollBar@2@HHHH_NHH22@Z
       5785 1698 0045FC40 ?drawScrollbar@LookAndFeel_V2@juce@@UEAAXAEAVGraphics@2@AEAVScrollBar@2@HHHH_NHH22@Z
       5786 1699 0044F3A0 ?drawScrollbar@LookAndFeel_V3@juce@@UEAAXAEAVGraphics@2@AEAVScrollBar@2@HHHH_NHH22@Z
       5787 169A 004478A0 ?drawScrollbar@LookAndFeel_V4@juce@@UEAAXAEAVGraphics@2@AEAVScrollBar@2@HHHH_NHH22@Z
       5788 169B 00466570 ?drawScrollbarButton@LookAndFeel_V1@juce@@UEAAXAEAVGraphics@2@AEAVScrollBar@2@HHH_N22@Z
       5789 169C 004604F0 ?drawScrollbarButton@LookAndFeel_V2@juce@@UEAAXAEAVGraphics@2@AEAVScrollBar@2@HHH_N22@Z
       5790 169D 00451A00 ?drawShinyButtonShape@LookAndFeel_V2@juce@@AEAAXAEAVGraphics@2@MMMMMAEBVColour@2@M_N222@Z
       5791 169E 00396900 ?drawSingleLineText@Graphics@juce@@QEBAXAEBVString@2@HHVJustification@2@@Z
       5792 169F 00460E20 ?drawSpinningWaitAnimation@LookAndFeel_V2@juce@@UEAAXAEAVGraphics@2@AEBVColour@2@HHHH@Z
       5793 16A0 00457A70 ?drawStretchableLayoutResizerBar@LookAndFeel_V2@juce@@UEAAXAEAVGraphics@2@HH_N11@Z
       5794 16A1 0044F6F0 ?drawStretchableLayoutResizerBar@LookAndFeel_V3@juce@@UEAAXAEAVGraphics@2@HH_N11@Z
       5795 16A2 004427B0 ?drawStretchableLayoutResizerBar@LookAndFeel_V4@juce@@UEAAXAEAVGraphics@2@HH_N11@Z
       5796 16A3 00455B50 ?drawTabAreaBehindFrontButton@LookAndFeel_V2@juce@@UEAAXAEAVTabbedButtonBar@2@AEAVGraphics@2@HH@Z
       5797 16A4 0044DA80 ?drawTabAreaBehindFrontButton@LookAndFeel_V3@juce@@UEAAXAEAVTabbedButtonBar@2@AEAVGraphics@2@HH@Z
       5798 16A5 00455E00 ?drawTabButton@LookAndFeel_V2@juce@@UEAAXAEAVTabBarButton@2@AEAVGraphics@2@_N2@Z
       5799 16A6 0044DD20 ?drawTabButton@LookAndFeel_V3@juce@@UEAAXAEAVTabBarButton@2@AEAVGraphics@2@_N2@Z
       5800 16A7 00455F50 ?drawTabButtonText@LookAndFeel_V2@juce@@UEAAXAEAVTabBarButton@2@AEAVGraphics@2@_N2@Z
       5801 16A8 00455DF0 ?drawTabbedButtonBarBackground@LookAndFeel_V2@juce@@UEAAXAEAVTabbedButtonBar@2@AEAVGraphics@2@@Z
       5802 16A9 00454E10 ?drawTableHeaderBackground@LookAndFeel_V2@juce@@UEAAXAEAVGraphics@2@AEAVTableHeaderComponent@2@@Z
       5803 16AA 0044E880 ?drawTableHeaderBackground@LookAndFeel_V3@juce@@UEAAXAEAVGraphics@2@AEAVTableHeaderComponent@2@@Z
       5804 16AB 00454760 ?drawTableHeaderColumn@LookAndFeel_V2@juce@@UEAAXAEAVGraphics@2@AEAVTableHeaderComponent@2@AEBVString@2@HHH_N3H@Z
       5805 16AC 003A3380 ?drawText@Graphics@juce@@QEBAXAEBVString@2@HHHHVJustification@2@_N@Z
       5806 16AD 003958A0 ?drawText@Graphics@juce@@QEBAXAEBVString@2@V?$Rectangle@H@2@VJustification@2@_N@Z
       5807 16AE 003A3420 ?drawText@Graphics@juce@@QEBAXAEBVString@2@V?$Rectangle@M@2@VJustification@2@_N@Z
       5808 16AF 00465DE0 ?drawTextEditorOutline@LookAndFeel_V1@juce@@UEAAXAEAVGraphics@2@HHAEAVTextEditor@2@@Z
       5809 16B0 0045D4B0 ?drawTextEditorOutline@LookAndFeel_V2@juce@@UEAAXAEAVGraphics@2@HHAEAVTextEditor@2@@Z
       5810 16B1 0044D970 ?drawTextEditorOutline@LookAndFeel_V3@juce@@UEAAXAEAVGraphics@2@HHAEAVTextEditor@2@@Z
       5811 16B2 00447450 ?drawTextEditorOutline@LookAndFeel_V4@juce@@UEAAXAEAVGraphics@2@HHAEAVTextEditor@2@@Z
       5812 16B3 004672A0 ?drawTickBox@LookAndFeel_V1@juce@@UEAAXAEAVGraphics@2@AEAVComponent@2@MMMM_N222@Z
       5813 16B4 00462A80 ?drawTickBox@LookAndFeel_V2@juce@@UEAAXAEAVGraphics@2@AEAVComponent@2@MMMM_N222@Z
       5814 16B5 00449520 ?drawTickBox@LookAndFeel_V4@juce@@UEAAXAEAVGraphics@2@AEAVComponent@2@MMMM_N222@Z
       5815 16B6 00467050 ?drawToggleButton@LookAndFeel_V1@juce@@UEAAXAEAVGraphics@2@AEAVToggleButton@2@_N2@Z
       5816 16B7 004627F0 ?drawToggleButton@LookAndFeel_V2@juce@@UEAAXAEAVGraphics@2@AEAVToggleButton@2@_N2@Z
       5817 16B8 00449790 ?drawToggleButton@LookAndFeel_V4@juce@@UEAAXAEAVGraphics@2@AEAVToggleButton@2@_N2@Z
       5818 16B9 004594F0 ?drawTooltip@LookAndFeel_V2@juce@@UEAAXAEAVGraphics@2@AEBVString@2@HH@Z
       5819 16BA 00443910 ?drawTooltip@LookAndFeel_V4@juce@@UEAAXAEAVGraphics@2@AEBVString@2@HH@Z
       5820 16BB 0045F980 ?drawTreeviewPlusMinusBox@LookAndFeel_V2@juce@@UEAAXAEAVGraphics@2@AEBV?$Rectangle@M@2@VColour@2@_N3@Z
       5821 16BC 0044D490 ?drawTreeviewPlusMinusBox@LookAndFeel_V3@juce@@UEAAXAEAVGraphics@2@AEBV?$Rectangle@M@2@VColour@2@_N3@Z
       5822 16BD 002B5240 ?drawUpDownButton@KeyboardComponentBase@juce@@UEAAXAEAVGraphics@2@HH_N11@Z
       5823 16BE 00394150 ?drawVerticalLine@Graphics@juce@@QEBAXHMM@Z
       5824 16BF 002B2160 ?drawWhiteKey@MPEKeyboardComponent@juce@@EEAAXHAEAVGraphics@2@V?$Rectangle@M@2@@Z
       5825 16C0 002B2970 ?drawWhiteKey@MidiKeyboardComponent@juce@@EEAAXHAEAVGraphics@2@V?$Rectangle@M@2@@Z
       5826 16C1 002B3020 ?drawWhiteNote@MidiKeyboardComponent@juce@@UEAAXHAEAVGraphics@2@V?$Rectangle@M@2@_N2VColour@2@3@Z
       5827 16C2 0048DBB0 ?drawWithin@Drawable@juce@@QEBAXAEAVGraphics@2@V?$Rectangle@M@2@VRectanglePlacement@2@M@Z
       5828 16C3 0030CAA0 ?dropLastCharacters@String@juce@@QEBA?AV12@H@Z
       5829 16C4 00321760 ?dropOldTransactionsIfTooLarge@UndoManager@juce@@AEAAXXZ
       5830 16C5 00352A00 ?dupeInternalIfShared@Font@juce@@AEAAXXZ
       5831 16C6 00393090 ?duplicateIfShared@Image@juce@@QEAAXXZ
       5832 16C7 00480880 ?editSelected@FileSearchPathListComponent@juce@@AEAAXXZ
       5833 16C8 00429550 ?editorAboutToBeHidden@Label@juce@@MEAAXPEAVTextEditor@2@@Z
       5834 16C9 002A8530 ?editorBeingDeleted@AudioProcessor@juce@@QEAAXPEAVAudioProcessorEditor@2@@Z
       5835 16CA 00005960 ?editorHidden@Listener@Label@juce@@UEAAXPEAV23@AEAVTextEditor@3@@Z
       5836 16CB 002A53B0 ?editorResized@AudioProcessorEditor@juce@@AEAAX_N@Z
       5837 16CC 00429630 ?editorShown@Label@juce@@MEAAXPEAVTextEditor@2@@Z
       5838 16CD 00005960 ?editorShown@Listener@Label@juce@@UEAAXPEAV23@AEAVTextEditor@3@@Z
       5839 16CE 004CABD0 ?editorViewportPositionChanged@CodeEditorComponent@juce@@UEAAXXZ
       5840 16CF 004D6190 ?emitEvent@WebComboBoxRelay@juce@@QEAAXAEBVvar@2@@Z
       5841 16D0 004D5D30 ?emitEvent@WebSliderRelay@juce@@QEAAXAEBVvar@2@@Z
       5842 16D1 004D5550 ?emitEvent@WebToggleButtonRelay@juce@@QEAAXAEBVvar@2@@Z
       5843 16D2 004C2080 ?emitEventIfBrowserIsVisible@WebBrowserComponent@juce@@QEAAXAEBVIdentifier@2@AEBVvar@2@@Z
       5844 16D3 002AB0C0 ?enableAllBuses@AudioProcessor@juce@@QEAA_NXZ
       5845 16D4 00231600 ?enableFlushToZeroMode@FloatVectorOperations@juce@@SAX_N@Z
       5846 16D5 00221910 ?enableLegacyMode@MPEInstrument@juce@@QEAAXHV?$Range@H@2@@Z
       5847 16D6 0021DE90 ?enableLegacyMode@MPESynthesiserBase@juce@@QEAAXHV?$Range@H@2@@Z
       5848 16D7 004DA8D0 ?enableScissorTest@OpenGLHelpers@juce@@SAXV?$Rectangle@H@2@@Z
       5849 16D8 004372B0 ?enableUnboundedMouseMovement@MouseInputSource@juce@@QEBAX_N0@Z
       5850 16D9 004AECD0 ?enablementChanged@Button@juce@@MEAAXXZ
       5851 16DA 0042B580 ?enablementChanged@ComboBox@juce@@UEAAXXZ
       5852 16DB 004BCA40 ?enablementChanged@Component@juce@@UEAAXXZ
       5853 16DC 004A18B0 ?enablementChanged@DrawableButton@juce@@UEAAXXZ
       5854 16DD 00477220 ?enablementChanged@GroupComponent@juce@@UEAAXXZ
       5855 16DE 004288C0 ?enablementChanged@Label@juce@@MEAAXXZ
       5856 16DF 0042E740 ?enablementChanged@PropertyComponent@juce@@UEAAXXZ
       5857 16E0 00425760 ?enablementChanged@Slider@juce@@UEAAXXZ
       5858 16E1 0041E550 ?enablementChanged@TextEditor@juce@@UEAAXXZ
       5859 16E2 0049F0E0 ?enablementChanged@ToolbarButton@juce@@UEAAXXZ
       5860 16E3 00412D90 ?enablementChanged@TreeView@juce@@UEAAXXZ
       5861 16E4 0059ADF8 ?encoderName@OggVorbisAudioFormat@juce@@2QEBDEB
       5862 16E5 0031D5C0 ?encrypt@BlowFish@juce@@QEBAHPEAX_K1@Z
       5863 16E6 0031DC00 ?encrypt@BlowFish@juce@@QEBAXAEAI0@Z
       5864 16E7 0031D730 ?encrypt@BlowFish@juce@@QEBAXAEAVMemoryBlock@2@@Z
       5865 16E8 00005D10 ?end@AudioFormatManager@juce@@QEAAPEAPEAVAudioFormat@2@XZ
       5866 16E9 00005D10 ?end@AudioFormatManager@juce@@QEBAPEBQEAVAudioFormat@2@XZ
       5867 16EA 0029B720 ?end@AudioProcessorParameterGroup@juce@@QEBAPEBQEBVAudioProcessorParameterNode@12@XZ
       5868 16EB 00021870 ?end@GlyphArrangement@juce@@QEBAPEBVPositionedGlyph@2@XZ
       5869 16EC 00004FB0 ?end@KnownPluginList@juce@@QEAAPEAPEAVPluginDescription@2@XZ
       5870 16ED 00004FB0 ?end@KnownPluginList@juce@@QEBAPEBQEAVPluginDescription@2@XZ
       5871 16EE 00005900 ?end@MemoryBlock@juce@@QEAAPEADXZ
       5872 16EF 00005900 ?end@MemoryBlock@juce@@QEBAPEBDXZ
       5873 16F0 00009DB0 ?end@MidiBuffer@juce@@QEBA?AVMidiBufferIterator@2@XZ
       5874 16F1 00224510 ?end@MidiMessageSequence@juce@@QEAAPEAPEAVMidiEventHolder@12@XZ
       5875 16F2 002244F0 ?end@MidiMessageSequence@juce@@QEBAPEBQEAVMidiEventHolder@12@XZ
       5876 16F3 00006030 ?end@NamedValueSet@juce@@QEBAPEBUNamedValue@12@XZ
       5877 16F4 000056C0 ?end@String@juce@@QEBA?AVCharPointer_UTF8@2@XZ
       5878 16F5 00005D10 ?end@StringArray@juce@@QEAAPEAVString@2@XZ
       5879 16F6 00005D10 ?end@StringArray@juce@@QEBAPEBVString@2@XZ
       5880 16F7 00021B50 ?end@TextLayout@juce@@QEAA?AV?$DereferencingIterator@PEBQEAVLine@TextLayout@juce@@@12@XZ
       5881 16F8 00021B50 ?end@TextLayout@juce@@QEBA?AV?$DereferencingIterator@PEBQEBVLine@TextLayout@juce@@@12@XZ
       5882 16F9 00326670 ?end@ValueTree@juce@@QEBA?AUIterator@12@XZ
       5883 16FA 002A69D0 ?endChangeGesture@AudioProcessorParameter@juce@@QEAAXXZ
       5884 16FB 004212B0 ?endDrag@TableHeaderComponent@juce@@AEAAXH@Z
       5885 16FC 005D271C ?endKey@KeyPress@juce@@2HB
       5886 16FD 00492250 ?endModal@ModalComponentManager@juce@@QEAAXVKey@12@PEAVComponent@2@H@Z
       5887 16FE 00224FD0 ?endOfTrack@MidiMessage@juce@@SA?AV12@XZ
       5888 16FF 002A7300 ?endParameterChangeGesture@AudioProcessor@juce@@QEAAXH@Z
       5889 1700 002DE7C0 ?endTest@UnitTestRunner@juce@@AEAAXXZ
       5890 1701 000329C0 ?endTransparencyLayer@?$StackBasedLowLevelGraphicsContext@VSoftwareRendererSavedState@RenderingHelpers@juce@@@RenderingHelpers@juce@@UEAAXXZ
       5891 1702 00396FF0 ?endTransparencyLayer@Graphics@juce@@QEAAXXZ
       5892 1703 002EA480 ?endsWith@String@juce@@QEBA_NVStringRef@2@@Z
       5893 1704 002EA640 ?endsWithChar@String@juce@@QEBA_NI@Z
       5894 1705 0030F3F0 ?endsWithIgnoreCase@String@juce@@QEBA_NVStringRef@2@@Z
       5895 1706 002F16D0 ?ensureBuffered@BufferedInputStream@juce@@AEAA_NXZ
       5896 1707 00301F90 ?ensureSize@BigInteger@juce@@AEAAPEAI_K@Z
       5897 1708 00313C50 ?ensureSize@MemoryBlock@juce@@QEAAX_K_N@Z
       5898 1709 0022A3C0 ?ensureSize@MidiBuffer@juce@@QEAAX_K@Z
       5899 170A 002362A0 ?ensureStorageAllocated@MidiMessageCollector@juce@@QEAAX_K@Z
       5900 170B 002E6F40 ?ensureStorageAllocated@StringArray@juce@@QEAAXH@Z
       5901 170C 00342F20 ?ensureStorageAllocated@TextLayout@juce@@QEAAXH@Z
       5902 170D 003199A0 ?enter@CriticalSection@juce@@QEBAXXZ
       5903 170E 00005960 ?enter@DummyCriticalSection@juce@@QEBAXXZ
       5904 170F 002C5BF0 ?enter@InterProcessLock@juce@@QEAA_NH@Z
       5905 1710 0032C330 ?enter@Lock@MessageManager@juce@@QEBAXXZ
       5906 1711 003188A0 ?enter@SpinLock@juce@@QEBAXXZ
       5907 1712 004BC400 ?enterModalState@Component@juce@@QEAAX_NPEAVCallback@ModalComponentManager@2@0@Z
       5908 1713 00318D80 ?enterRead@ReadWriteLock@juce@@QEBAXXZ
       5909 1714 00318A40 ?enterWrite@ReadWriteLock@juce@@QEBAXXZ
       5910 1715 002DD8F0 ?equals@var@juce@@QEBA_NAEBV12@@Z
       5911 1716 00313FB0 ?equalsIgnoreCase@String@juce@@QEBA_NAEBV12@@Z
       5912 1717 002ED550 ?equalsIgnoreCase@String@juce@@QEBA_NPEBD@Z
       5913 1718 002ED580 ?equalsIgnoreCase@String@juce@@QEBA_NPEB_W@Z
       5914 1719 002ED530 ?equalsIgnoreCase@String@juce@@QEBA_NVStringRef@2@@Z
       5915 171A 0030DC10 ?equalsWithSameType@var@juce@@QEBA_NAEBV12@@Z
       5916 171B 005D2A1C ?escapeKey@KeyPress@juce@@2HB
       5917 171C 004095E0 ?escapeKeyPressed@DialogWindow@juce@@UEAA_NXZ
       5918 171D 0041D740 ?escapePressed@TextEditor@juce@@MEAAXXZ
       5919 171E 002DB850 ?escapeString@JSON@juce@@SA?AVString@2@VStringRef@2@@Z
       5920 171F 00245EE0 ?estimateOggFileQuality@OggVorbisAudioFormat@juce@@QEAAHAEBVFile@2@@Z
       5921 1720 002FD1A0 ?evaluate@Expression@juce@@QEBANAEBVScope@12@@Z
       5922 1721 002FD130 ?evaluate@Expression@juce@@QEBANAEBVScope@12@AEAVString@2@@Z
       5923 1722 002FD200 ?evaluate@Expression@juce@@QEBANXZ
       5924 1723 00317FF0 ?evaluateFunction@Scope@Expression@juce@@UEBANAEBVString@3@PEBNH@Z
       5925 1724 004C1A90 ?evaluateJavascript@WebBrowserComponent@juce@@QEAAXAEBVString@2@V?$function@$$A6AXVEvaluationResult@WebBrowserComponent@juce@@@Z@std@@@Z
       5926 1725 00032C80 ?excludeClipRectangle@?$StackBasedLowLevelGraphicsContext@VSoftwareRendererSavedState@RenderingHelpers@juce@@@RenderingHelpers@juce@@UEAAXAEBV?$Rectangle@H@3@@Z
       5927 1726 00397200 ?excludeClipRegion@Graphics@juce@@QEAAXV?$Rectangle@H@2@@Z
       5928 1727 003A5920 ?excludeRectangle@EdgeTable@juce@@QEAAXV?$Rectangle@H@2@@Z
       5929 1728 0032C280 ?exclusiveTryAcquire@Lock@MessageManager@juce@@AEBA_N_N@Z
       5930 1729 004D7D00 ?execute@OpenGLContext@juce@@AEAAXV?$ReferenceCountedObjectPtr@UAsyncWorker@OpenGLContext@juce@@@2@_N@Z
       5931 172A 0030D8E0 ?exists@File@juce@@QEBA_NXZ
       5932 172B 0032C450 ?existsAndIsCurrentThread@MessageManager@juce@@SA_NXZ
       5933 172C 0032C470 ?existsAndIsLockedByCurrentThread@MessageManager@juce@@SA_NXZ
       5934 172D 0030C710 ?existsAsFile@File@juce@@QEBA_NXZ
       5935 172E 00319990 ?exit@CriticalSection@juce@@QEBAXXZ
       5936 172F 00005960 ?exit@DummyCriticalSection@juce@@QEBAXXZ
       5937 1730 002C5B60 ?exit@InterProcessLock@juce@@QEAAXXZ
       5938 1731 0032BE70 ?exit@Lock@MessageManager@juce@@QEBAXXZ
       5939 1732 00006BE0 ?exit@SpinLock@juce@@QEBAXXZ
       5940 1733 0040F380 ?exitAlert@AlertWindow@juce@@AEAAXPEAVButton@2@@Z
       5941 1734 00498BE0 ?exitModalState@Component@juce@@QEAAXH@Z
       5942 1735 00318B50 ?exitRead@ReadWriteLock@juce@@QEBAXXZ
       5943 1736 0032BAA0 ?exitSignalSent@MessageManagerLock@juce@@EEAAXXZ
       5944 1737 00318900 ?exitWrite@ReadWriteLock@juce@@QEBAXXZ
       5945 1738 002D7140 ?expandEntity@XmlDocument@juce@@AEAA?AVString@2@AEBV32@@Z
       5946 1739 002D64F0 ?expandExternalEntity@XmlDocument@juce@@AEAA?AVString@2@AEBV32@@Z
       5947 173A 00479500 ?expandPanelFully@ConcertinaPanel@juce@@QEAA_NPEAVComponent@2@_N@Z
       5948 173B 002DF3A0 ?expect@UnitTest@juce@@QEAAX_NAEBVString@2@@Z
       5949 173C 002FE8D0 ?exponentModulo@BigInteger@juce@@QEAAXAEBV12@0@Z
       5950 173D 002FDDB0 ?extendedEuclidean@BigInteger@juce@@QEAAXAEBV12@0AEAV12@1@Z
       5951 173E 002238F0 ?extractMidiChannelMessages@MidiMessageSequence@juce@@QEBAXHAEAV12@_N@Z
       5952 173F 00223840 ?extractSysExMessages@MidiMessageSequence@juce@@QEBAXAEAV12@@Z
       5953 1740 0047C340 ?fadeIn@ComponentAnimator@juce@@QEAAXPEAVComponent@2@H@Z
       5954 1741 0047C460 ?fadeOut@ComponentAnimator@juce@@QEAAXPEAVComponent@2@H@Z
       5955 1742 002FB070 ?fail@Result@juce@@SA?AV12@AEBVString@2@@Z
       5956 1743 00318FA0 ?failed@Result@juce@@QEBA_NXZ
       5957 1744 00006700 ?failedToOpen@FileInputStream@juce@@QEBA_NXZ
       5958 1745 00006700 ?failedToOpen@FileOutputStream@juce@@QEBA_NXZ
       5959 1746 005D2718 ?fastForwardKey@KeyPress@juce@@2HB
       5960 1747 004854A0 ?fileClicked@FileBrowserComponent@juce@@UEAAXAEBVFile@2@AEBVMouseEvent@2@@Z
       5961 1748 004830C0 ?fileClicked@FileChooserDialogBox@juce@@EEAAXAEBVFile@2@AEBVMouseEvent@2@@Z
       5962 1749 00485350 ?fileDoubleClicked@FileBrowserComponent@juce@@UEAAXAEBVFile@2@@Z
       5963 174A 004830D0 ?fileDoubleClicked@FileChooserDialogBox@juce@@EEAAXAEBVFile@2@@Z
       5964 174B 004B97B0 ?fileDragEnter@FileDragAndDropTarget@juce@@UEAAXAEBVStringArray@2@HH@Z
       5965 174C 0047F020 ?fileDragEnter@FilenameComponent@juce@@UEAAXAEBVStringArray@2@HH@Z
       5966 174D 00412120 ?fileDragEnter@TreeView@juce@@UEAAXAEBVStringArray@2@HH@Z
       5967 174E 004B9790 ?fileDragExit@FileDragAndDropTarget@juce@@UEAAXAEBVStringArray@2@@Z
       5968 174F 0047EFD0 ?fileDragExit@FilenameComponent@juce@@UEAAXAEBVStringArray@2@@Z
       5969 1750 00412010 ?fileDragExit@TreeView@juce@@UEAAXAEBVStringArray@2@@Z
       5970 1751 004B97A0 ?fileDragMove@FileDragAndDropTarget@juce@@UEAAXAEBVStringArray@2@HH@Z
       5971 1752 00412030 ?fileDragMove@TreeView@juce@@UEAAXAEBVStringArray@2@HH@Z
       5972 1753 002C28B0 ?fileFromFileSchemeURL@URL@juce@@CA?AVFile@2@AEBV12@@Z
       5973 1754 0030A590 ?fileMatches@DirectoryIterator@juce@@CA_NAEBVStringArray@2@AEBVString@2@@Z
       5974 1755 0005BB00 ?filePosToSample@MemoryMappedAudioFormatReader@juce@@IEBA_J_J@Z
       5975 1756 00480CA0 ?filesDropped@FileSearchPathListComponent@juce@@UEAAXAEBVStringArray@2@HH@Z
       5976 1757 0047F070 ?filesDropped@FilenameComponent@juce@@UEAAXAEBVStringArray@2@HH@Z
       5977 1758 0029C6B0 ?filesDropped@PluginListComponent@juce@@EEAAXAEBVStringArray@2@HH@Z
       5978 1759 00411F20 ?filesDropped@TreeView@juce@@UEAAXAEBVStringArray@2@HH@Z
       5979 175A 004B3370 ?filesDropped@TreeViewItem@juce@@UEAAXAEBVStringArray@2@H@Z
       5980 175B 0000DA20 ?fill@?$FloatVectorOperationsBase@MH@juce@@SAXPEAMMH@Z
       5981 175C 0000DDA0 ?fill@?$FloatVectorOperationsBase@M_K@juce@@SAXPEAMM_K@Z
       5982 175D 0000E2A0 ?fill@?$FloatVectorOperationsBase@NH@juce@@SAXPEANNH@Z
       5983 175E 0000E860 ?fill@?$FloatVectorOperationsBase@N_K@juce@@SAXPEANN_K@Z
       5984 175F 003A4C00 ?fillAll@Graphics@juce@@QEBAXVColour@2@@Z
       5985 1760 00394C10 ?fillAll@Graphics@juce@@QEBAXXZ
       5986 1761 00022480 ?fillAll@LowLevelGraphicsContext@juce@@UEAAXXZ
       5987 1762 002FBF30 ?fillBitsRandomly@Random@juce@@QEAAXAEAVBigInteger@2@HH@Z
       5988 1763 002FC080 ?fillBitsRandomly@Random@juce@@QEAAXPEAX_K@Z
       5989 1764 003941A0 ?fillCheckerBoard@Graphics@juce@@QEBAXV?$Rectangle@M@2@MMVColour@2@1@Z
       5990 1765 003949A0 ?fillEllipse@Graphics@juce@@QEBAXMMMM@Z
       5991 1766 003A3290 ?fillEllipse@Graphics@juce@@QEBAXV?$Rectangle@M@2@@Z
       5992 1767 00022C50 ?fillEllipse@LowLevelGraphicsContext@juce@@UEAAXAEBV?$Rectangle@M@2@@Z
       5993 1768 002A40C0 ?fillInPluginDescription@AudioGraphIOProcessor@AudioProcessorGraph@juce@@UEBAXAEAVPluginDescription@3@@Z
       5994 1769 000328D0 ?fillPath@?$StackBasedLowLevelGraphicsContext@VSoftwareRendererSavedState@RenderingHelpers@juce@@@RenderingHelpers@juce@@UEAAXAEBVPath@3@AEBVAffineTransform@3@@Z
       5995 176A 00394BA0 ?fillPath@Graphics@juce@@QEBAXAEBVPath@2@@Z
       5996 176B 003A3210 ?fillPath@Graphics@juce@@QEBAXAEBVPath@2@AEBVAffineTransform@2@@Z
       5997 176C 00032910 ?fillRect@?$StackBasedLowLevelGraphicsContext@VSoftwareRendererSavedState@RenderingHelpers@juce@@@RenderingHelpers@juce@@UEAAXAEBV?$Rectangle@H@3@_N@Z
       5998 176D 000328F0 ?fillRect@?$StackBasedLowLevelGraphicsContext@VSoftwareRendererSavedState@RenderingHelpers@juce@@@RenderingHelpers@juce@@UEAAXAEBV?$Rectangle@M@3@@Z
       5999 176E 00395140 ?fillRect@Graphics@juce@@QEBAXHHHH@Z
       6000 176F 003A3330 ?fillRect@Graphics@juce@@QEBAXMMMM@Z
       6001 1770 00395180 ?fillRect@Graphics@juce@@QEBAXV?$Rectangle@H@2@@Z
       6002 1771 003A3310 ?fillRect@Graphics@juce@@QEBAXV?$Rectangle@M@2@@Z
       6003 1772 004DAF20 ?fillRect@OpenGLGraphicsContextCustomShader@juce@@QEBAXAEAVLowLevelGraphicsContext@2@V?$Rectangle@H@2@@Z
       6004 1773 000328E0 ?fillRectList@?$StackBasedLowLevelGraphicsContext@VSoftwareRendererSavedState@RenderingHelpers@juce@@@RenderingHelpers@juce@@UEAAXAEBV?$RectangleList@M@3@@Z
       6005 1774 00394C30 ?fillRectList@Graphics@juce@@QEBAXAEBV?$RectangleList@H@2@@Z
       6006 1775 003A32F0 ?fillRectList@Graphics@juce@@QEBAXAEBV?$RectangleList@M@2@@Z
       6007 1776 00458AA0 ?fillResizableWindowBackground@LookAndFeel_V2@juce@@UEAAXAEAVGraphics@2@HHAEBV?$BorderSize@H@2@AEAVResizableWindow@2@@Z
       6008 1777 003948E0 ?fillRoundedRectangle@Graphics@juce@@QEBAXMMMMM@Z
       6009 1778 003A32D0 ?fillRoundedRectangle@Graphics@juce@@QEBAXV?$Rectangle@M@2@M@Z
       6010 1779 00022990 ?fillRoundedRectangle@LowLevelGraphicsContext@juce@@UEAAXAEBV?$Rectangle@M@2@M@Z
       6011 177A 00456500 ?fillTabButtonShape@LookAndFeel_V2@juce@@UEAAXAEAVTabBarButton@2@AEAVGraphics@2@AEBVPath@2@_N3@Z
       6012 177B 0045D760 ?fillTextEditorBackground@LookAndFeel_V2@juce@@UEAAXAEAVGraphics@2@HHAEAVTextEditor@2@@Z
       6013 177C 00447580 ?fillTextEditorBackground@LookAndFeel_V4@juce@@UEAAXAEAVGraphics@2@HHAEAVTextEditor@2@@Z
       6014 177D 00311500 ?fillWith@MemoryBlock@juce@@QEAAXE@Z
       6015 177E 0041E100 ?filterNewText@LengthAndCharacterRestriction@TextEditor@juce@@UEAA?AVString@3@AEAV23@AEBV43@@Z
       6016 177F 002C96D0 ?findAllAddresses@IPAddress@juce@@SAXAEAV?$Array@VIPAddress@juce@@VDummyCriticalSection@2@$0A@@2@_N@Z
       6017 1780 002C97D0 ?findAllAddresses@MACAddress@juce@@SAXAEAV?$Array@VMACAddress@juce@@VDummyCriticalSection@2@$0A@@2@@Z
       6018 1781 002291D0 ?findAllKeySigEvents@MidiFile@juce@@QEBAXAEAVMidiMessageSequence@2@@Z
       6019 1782 00229210 ?findAllTempoEvents@MidiFile@juce@@QEBAXAEAVMidiMessageSequence@2@@Z
       6020 1783 002291F0 ?findAllTimeSigEvents@MidiFile@juce@@QEBAXAEAVMidiMessageSequence@2@@Z
       6021 1784 00340280 ?findAllTypefaceNames@Font@juce@@SA?AVStringArray@2@XZ
       6022 1785 003400B0 ?findAllTypefaceStyles@Font@juce@@SA?AVStringArray@2@AEBVString@2@@Z
       6023 1786 0031AD40 ?findBestCommonDivisor@RSAKey@juce@@CA?AVBigInteger@2@AEBV32@0@Z
       6024 1787 0030D580 ?findChildFiles@File@juce@@QEBA?AV?$Array@VFile@juce@@VDummyCriticalSection@2@$0A@@2@H_NAEBVString@2@W4FollowSymlinks@12@@Z
       6025 1788 00306430 ?findChildFiles@File@juce@@QEBAHAEAV?$Array@VFile@juce@@VDummyCriticalSection@2@$0A@@2@H_NAEBVString@2@W4FollowSymlinks@12@@Z
       6026 1789 00303450 ?findChildFiles@FileSearchPath@juce@@QEBA?AV?$Array@VFile@juce@@VDummyCriticalSection@2@$0A@@2@H_NAEBVString@2@@Z
       6027 178A 00303370 ?findChildFiles@FileSearchPath@juce@@QEBAHAEAV?$Array@VFile@juce@@VDummyCriticalSection@2@$0A@@2@H_NAEBVString@2@@Z
       6028 178B 00498FD0 ?findChildWithID@Component@juce@@QEBAPEAV12@VStringRef@2@@Z
       6029 178C 004BC090 ?findColour@Component@juce@@QEBA?AVColour@2@H_N@Z
       6030 178D 004B2F70 ?findColour@LookAndFeel@juce@@QEBA?AVColour@2@H@Z
       6031 178E 003A1060 ?findColourForName@Colours@juce@@YA?AVColour@2@AEBVString@2@V32@@Z
       6032 178F 0049CA10 ?findCommandForKeyPress@KeyPressMappingSet@juce@@QEBAHAEBVKeyPress@2@@Z
       6033 1790 004916A0 ?findComponentAt@Desktop@juce@@QEBAPEAVComponent@2@V?$Point@H@2@@Z
       6034 1791 00004FB0 ?findControlAtPoint@Component@juce@@UEBA?AW4WindowControlKind@12@V?$Point@M@2@@Z
       6035 1792 004080D0 ?findControlAtPoint@DocumentWindow@juce@@UEBA?AW4WindowControlKind@Component@2@V?$Point@M@2@@Z
       6036 1793 0040AC50 ?findCurrentTextInputTarget@ComponentPeer@juce@@QEAAPEAVTextInputTarget@2@XZ
       6037 1794 0049DEF0 ?findDefaultComponentTarget@ApplicationCommandManager@juce@@SAPEAVApplicationCommandTarget@2@XZ
       6038 1795 0048E3C0 ?findDisplayForPoint@Displays@juce@@QEBAAEBUDisplay@12@V?$Point@H@2@_N@Z
       6039 1796 0048E3F0 ?findDisplayForRect@Displays@juce@@QEBAAEBUDisplay@12@V?$Rectangle@H@2@_N@Z
       6040 1797 004A7180 ?findDisplays@Displays@juce@@AEAAXM@Z
       6041 1798 0030D160 ?findFileSystemRoots@File@juce@@SAXAEAV?$Array@VFile@juce@@VDummyCriticalSection@2@$0A@@2@@Z
       6042 1799 0049DA60 ?findFirstTargetParentComponent@ApplicationCommandTarget@juce@@QEAAPEAV12@XZ
       6043 179A 00493A00 ?findFocusContainer@Component@juce@@QEBAPEAV12@XZ
       6044 179B 00351220 ?findFonts@Font@juce@@SAXAEAV?$Array@VFont@juce@@VDummyCriticalSection@2@$0A@@2@@Z
       6045 179C 002AC180 ?findFormatForDescription@AudioPluginFormatManager@juce@@AEBAPEAVAudioPluginFormat@2@AEBVPluginDescription@2@AEAVString@2@@Z
       6046 179D 00290240 ?findFormatForFileExtension@AudioFormatManager@juce@@QEBAPEAVAudioFormat@2@AEBVString@2@@Z
       6047 179E 0021D220 ?findFreeVoice@MPESynthesiser@juce@@MEBAPEAVMPESynthesiserVoice@2@UMPENote@2@_N@Z
       6048 179F 00216710 ?findFreeVoice@Synthesiser@juce@@MEBAPEAVSynthesiserVoice@2@PEAVSynthesiserSound@2@HH_N@Z
       6049 17A0 00343630 ?findGlyphIndexAt@GlyphArrangement@juce@@QEBAHMM@Z
       6050 17A1 002FF490 ?findGreatestCommonDivisor@BigInteger@juce@@QEBA?AV12@V12@@Z
       6051 17A2 003903F0 ?findImageFormatForFileExtension@ImageFileFormat@juce@@SAPEAV12@AEBVFile@2@@Z
       6052 17A3 00390460 ?findImageFormatForStream@ImageFileFormat@juce@@SAPEAV12@AEAVInputStream@2@@Z
       6053 17A4 004134A0 ?findItemFromIdentifierString@TreeView@juce@@QEBAPEAVTreeViewItem@2@AEBVString@2@@Z
       6054 17A5 00410550 ?findItemFromIdentifierString@TreeViewItem@juce@@AEAAPEAV12@AEBVString@2@@Z
       6055 17A6 004939D0 ?findKeyboardFocusContainer@Component@juce@@QEBAPEAV12@XZ
       6056 17A7 004D2190 ?findLineContaining@CodeDocument@juce@@QEBAXAEBVPosition@12@AEAV312@1@Z
       6057 17A8 0000DD80 ?findMaximum@?$FloatVectorOperationsBase@MH@juce@@SAMPEBMH@Z
       6058 17A9 0000E1B0 ?findMaximum@?$FloatVectorOperationsBase@M_K@juce@@SAMPEBM_K@Z
       6059 17AA 0000E740 ?findMaximum@?$FloatVectorOperationsBase@NH@juce@@SANPEBNH@Z
       6060 17AB 0000EC60 ?findMaximum@?$FloatVectorOperationsBase@N_K@juce@@SANPEBN_K@Z
       6061 17AC 0000DD50 ?findMinAndMax@?$FloatVectorOperationsBase@MH@juce@@SA?AV?$Range@M@2@PEBMH@Z
       6062 17AD 0000E0B0 ?findMinAndMax@?$FloatVectorOperationsBase@M_K@juce@@SA?AV?$Range@M@2@PEBM_K@Z
       6063 17AE 0000E610 ?findMinAndMax@?$FloatVectorOperationsBase@NH@juce@@SA?AV?$Range@N@2@PEBNH@Z
       6064 17AF 0000EB90 ?findMinAndMax@?$FloatVectorOperationsBase@N_K@juce@@SA?AV?$Range@N@2@PEBN_K@Z
       6065 17B0 0000DD70 ?findMinimum@?$FloatVectorOperationsBase@MH@juce@@SAMPEBMH@Z
       6066 17B1 0000E0D0 ?findMinimum@?$FloatVectorOperationsBase@M_K@juce@@SAMPEBM_K@Z
       6067 17B2 0000E630 ?findMinimum@?$FloatVectorOperationsBase@NH@juce@@SANPEBNH@Z
       6068 17B3 0000EBB0 ?findMinimum@?$FloatVectorOperationsBase@N_K@juce@@SANPEBN_K@Z
       6069 17B4 002AE660 ?findMostSuitableLayout@AudioProcessorPlayer@juce@@AEBA?AUNumChannels@12@AEBVAudioProcessor@2@@Z
       6070 17B5 00301A30 ?findNextClearBit@BigInteger@juce@@QEBAHH@Z
       6071 17B6 00229F10 ?findNextSamplePosition@MidiBuffer@juce@@QEBA?AVMidiBufferIterator@2@H@Z
       6072 17B7 00315A00 ?findNextSetBit@BigInteger@juce@@QEBAHH@Z
       6073 17B8 002B7A10 ?findOldestThumb@AudioThumbnailCache@juce@@AEBAHXZ
       6074 17B9 00438820 ?findParentDragContainerFor@DragAndDropContainer@juce@@SAPEAV12@PEAVComponent@2@@Z
       6075 17BA 002D4270 ?findParentElementOf@XmlElement@juce@@QEAAPEAV12@PEBV12@@Z
       6076 17BB 002FC900 ?findReferencedSymbols@Expression@juce@@QEBAXAEAV?$Array@USymbol@Expression@juce@@VDummyCriticalSection@3@$0A@@2@AEBVScope@12@@Z
       6077 17BC 00350BD0 ?findSuitableFontForText@Font@juce@@QEBA?AV12@AEBVString@2@0@Z
       6078 17BD 0033FC00 ?findSystemTypeface@Typeface@juce@@SA?AV?$ReferenceCountedObjectPtr@VTypeface@juce@@@2@XZ
       6079 17BE 0049E1B0 ?findTargetForComponent@ApplicationCommandManager@juce@@SAPEAVApplicationCommandTarget@2@PEAVComponent@2@@Z
       6080 17BF 0047C6A0 ?findTaskFor@ComponentAnimator@juce@@AEBAPEAVAnimationTask@12@PEAVComponent@2@@Z
       6081 17C0 002B7AC0 ?findThumbFor@AudioThumbnailCache@juce@@AEBAPEAVThumbnailCacheEntry@12@_J@Z
       6082 17C1 004D22C0 ?findTokenContaining@CodeDocument@juce@@QEBAXAEBVPosition@12@AEAV312@1@Z
       6083 17C2 0023ACE0 ?findType@AudioDeviceManager@juce@@AEAAPEAVAudioIODeviceType@2@AEBVString@2@0@Z
       6084 17C3 0023ADC0 ?findType@AudioDeviceManager@juce@@AEAAPEAVAudioIODeviceType@2@AEBVString@2@@Z
       6085 17C4 0021CF80 ?findVoiceToSteal@MPESynthesiser@juce@@MEBAPEAVMPESynthesiserVoice@2@UMPENote@2@@Z
       6086 17C5 00216490 ?findVoiceToSteal@Synthesiser@juce@@MEBAPEAVSynthesiserVoice@2@PEAVSynthesiserSound@2@HH@Z
       6087 17C6 004D29F0 ?findWordBreakAfter@CodeDocument@juce@@QEBA?AVPosition@12@AEBV312@@Z
       6088 17C7 00416950 ?findWordBreakAfter@TextEditor@juce@@AEBAHH@Z
       6089 17C8 004D2570 ?findWordBreakBefore@CodeDocument@juce@@QEBA?AVPosition@12@AEBV312@@Z
       6090 17C9 004167F0 ?findWordBreakBefore@TextEditor@juce@@AEBAHH@Z
       6091 17CA 00483710 ?finished@FileChooser@juce@@AEAAXAEBV?$Array@VURL@juce@@VDummyCriticalSection@2@$0A@@2@@Z
       6092 17CB 00311580 ?finishedRead@AbstractFifo@juce@@QEAAXH@Z
       6093 17CC 00311620 ?finishedWrite@AbstractFifo@juce@@QEAAXH@Z
       6094 17CD 0046F340 ?fitComponentsIntoSpace@StretchableLayoutManager@juce@@AEAAHHHHH@Z
       6095 17CE 004A2A80 ?flashButtonState@Button@juce@@AEAAXXZ
       6096 17CF 00427BC0 ?flipRowSelection@ListBox@juce@@QEAAXH@Z
       6097 17D0 00227AC0 ?floatValueToMidiByte@MidiMessage@juce@@SAEM@Z
       6098 17D1 0028DD80 ?flush@AudioFormatWriter@juce@@UEAA_NXZ
       6099 17D2 00303C30 ?flush@FileOutputStream@juce@@UEAAXXZ
       6100 17D3 002CC2C0 ?flush@GZIPCompressorOutputStream@juce@@UEAAXXZ
       6101 17D4 002F0F90 ?flush@MemoryOutputStream@juce@@UEAAXXZ
       6102 17D5 00303C70 ?flushBuffer@FileOutputStream@juce@@AEAA_NXZ
       6103 17D6 00219810 ?flushBuffers@ResamplingAudioSource@juce@@QEAAXXZ
       6104 17D7 002F79C0 ?flushInternal@FileOutputStream@juce@@AEAAXXZ
       6105 17D8 00293440 ?flushParameterValuesToValueTree@AudioProcessorValueTreeState@juce@@AEAA_NXZ
       6106 17D9 004AED70 ?focusGained@Button@juce@@MEAAXW4FocusChangeType@Component@2@@Z
       6107 17DA 004C8E90 ?focusGained@CodeEditorComponent@juce@@UEAAXW4FocusChangeType@Component@2@@Z
       6108 17DB 0042AED0 ?focusGained@ComboBox@juce@@UEAAXW4FocusChangeType@Component@2@@Z
       6109 17DC 004BC760 ?focusGained@Component@juce@@UEAAXW4FocusChangeType@12@@Z
       6110 17DD 00428900 ?focusGained@Label@juce@@MEAAXW4FocusChangeType@Component@2@@Z
       6111 17DE 00418950 ?focusGained@TextEditor@juce@@UEAAXW4FocusChangeType@Component@2@@Z
       6112 17DF 004BC750 ?focusGainedWithDirection@Component@juce@@UEAAXW4FocusChangeType@12@W4FocusChangeDirection@12@@Z
       6113 17E0 004C1A70 ?focusGainedWithDirection@WebBrowserComponent@juce@@UEAAXW4FocusChangeType@Component@2@W4FocusChangeDirection@42@@Z
       6114 17E1 004AED20 ?focusLost@Button@juce@@MEAAXW4FocusChangeType@Component@2@@Z
       6115 17E2 004C8E70 ?focusLost@CodeEditorComponent@juce@@UEAAXW4FocusChangeType@Component@2@@Z
       6116 17E3 0042AE90 ?focusLost@ComboBox@juce@@UEAAXW4FocusChangeType@Component@2@@Z
       6117 17E4 004BC740 ?focusLost@Component@juce@@UEAAXW4FocusChangeType@12@@Z
       6118 17E5 002B1250 ?focusLost@MPEKeyboardComponent@juce@@UEAAXW4FocusChangeType@Component@2@@Z
       6119 17E6 002B39E0 ?focusLost@MidiKeyboardComponent@juce@@UEAAXW4FocusChangeType@Component@2@@Z
       6120 17E7 00418840 ?focusLost@TextEditor@juce@@UEAAXW4FocusChangeType@Component@2@@Z
       6121 17E8 004BC730 ?focusOfChildComponentChanged@Component@juce@@UEAAXW4FocusChangeType@12@@Z
       6122 17E9 00424750 ?focusOfChildComponentChanged@Slider@juce@@UEAAXW4FocusChangeType@Component@2@@Z
       6123 17EA 00402EC0 ?focusOfChildComponentChanged@TopLevelWindow@juce@@MEAAXW4FocusChangeType@Component@2@@Z
       6124 17EB 003A7EF0 ?followedBy@AffineTransform@juce@@QEBA?AV12@AEBV12@@Z
       6125 17EC 0043BA80 ?forSubmenu@Options@PopupMenu@juce@@QEBA?AV123@XZ
       6126 17ED 004096E0 ?forceDisplayUpdate@ComponentPeer@juce@@KAXXZ
       6127 17EE 004371D0 ?forceMouseCursorUpdate@MouseInputSource@juce@@QEAAXXZ
       6128 17EF 004C4490 ?forgetRecentFileNatively@RecentlyOpenedFilesList@juce@@SAXAEBVFile@2@@Z
       6129 17F0 003108F0 ?formatted@Time@juce@@QEBA?AVString@2@AEBV32@@Z
       6130 17F1 002E91D0 ?formattedRaw@String@juce@@CA?AV12@PEBDZZ
       6131 17F2 00222B40 ?from14BitInt@MPEValue@juce@@SA?AV12@H@Z
       6132 17F3 00222B50 ?from7BitInt@MPEValue@juce@@SA?AV12@H@Z
       6133 17F4 0022F100 ?fromAbbreviatedString@AudioChannelSet@juce@@SA?AV12@AEBVString@2@@Z
       6134 17F5 002FB2E0 ?fromBase64Encoding@MemoryBlock@juce@@QEAA_NVStringRef@2@@Z
       6135 17F6 00312060 ?fromFirstOccurrenceOf@String@juce@@QEBA?AV12@VStringRef@2@_N1@Z
       6136 17F7 003A2E70 ?fromFloatRGBA@Colour@juce@@SA?AV12@MMMM@Z
       6137 17F8 003A2D50 ?fromHSL@Colour@juce@@SA?AV12@MMMM@Z
       6138 17F9 003A2DC0 ?fromHSV@Colour@juce@@SA?AV12@MMMM@Z
       6139 17FA 002E0020 ?fromISO8601@Time@juce@@SA?AV12@VStringRef@2@@Z
       6140 17FB 002EA140 ?fromLastOccurrenceOf@String@juce@@QEBA?AV12@VStringRef@2@_N1@Z
       6141 17FC 002E6F70 ?fromLines@StringArray@juce@@SA?AV12@VStringRef@2@@Z
       6142 17FD 003A3040 ?fromRGB@Colour@juce@@SA?AV12@EEE@Z
       6143 17FE 003A3000 ?fromRGBA@Colour@juce@@SA?AV12@EEEE@Z
       6144 17FF 00222AD0 ?fromSignedFloat@MPEValue@juce@@SA?AV12@M@Z
       6145 1800 003A1EC0 ?fromString@Colour@juce@@SA?AV12@VStringRef@2@@Z
       6146 1801 00350600 ?fromString@Font@juce@@SA?AV12@AEBVString@2@@Z
       6147 1802 002DBD60 ?fromString@JSON@juce@@SA?AVvar@2@VStringRef@2@@Z
       6148 1803 003A02E0 ?fromTargetPoints@AffineTransform@juce@@SA?AV12@MMMMMM@Z
       6149 1804 003A3B90 ?fromTargetPoints@AffineTransform@juce@@SA?AV12@MMMMMMMMMMMM@Z
       6150 1805 00310190 ?fromTokens@StringArray@juce@@SA?AV12@VStringRef@2@00@Z
       6151 1806 00319420 ?fromTokens@StringArray@juce@@SA?AV12@VStringRef@2@_N@Z
       6152 1807 0000B270 ?fromType@FrameRate@AudioPlayHead@juce@@CA?AV123@W4FrameRateType@23@@Z
       6153 1808 0031A7D0 ?fromUTF32@MD5@juce@@SA?AV12@VStringRef@2@@Z
       6154 1809 00311CC0 ?fromUTF8@String@juce@@SA?AV12@PEBDH@Z
       6155 180A 00222B10 ?fromUnsignedFloat@MPEValue@juce@@SA?AV12@M@Z
       6156 180B 0022B6A0 ?fromWaveChannelMask@AudioChannelSet@juce@@SA?AV12@H@Z
       6157 180C 003243E0 ?fromXml@ValueTree@juce@@SA?AV12@AEBVString@2@@Z
       6158 180D 00324480 ?fromXml@ValueTree@juce@@SA?AV12@AEBVXmlElement@2@@Z
       6159 180E 00224CC0 ?fullFrame@MidiMessage@juce@@SA?AV12@HHHHW4SmpteTimecodeType@12@@Z
       6160 180F 002FCDD0 ?function@Expression@juce@@SA?AV12@AEBVString@2@AEBV?$Array@VExpression@juce@@VDummyCriticalSection@2@$0A@@2@@Z
       6161 1810 002E63B0 ?garbageCollect@StringPool@juce@@QEAAXXZ
       6162 1811 002E64C0 ?garbageCollectIfNeeded@StringPool@juce@@AEAAXXZ
       6163 1812 00222BC0 ?generate@MidiRPNGenerator@juce@@SA?AVMidiBuffer@2@HHH_N0@Z
       6164 1813 00222D80 ?generate@MidiRPNGenerator@juce@@SA?AVMidiBuffer@2@UMidiRPNMessage@2@@Z
       6165 1814 0007F020 ?get@AudioParameterBool@juce@@QEBA_NXZ
       6166 1815 0007DF50 ?get@AudioParameterFloat@juce@@QEBAMXZ
       6167 1816 0007E8B0 ?get@AudioParameterInt@juce@@QEBAHXZ
       6168 1817 00072800 ?get@ValueTreePropertyWithDefault@juce@@QEBA?AVvar@2@XZ
       6169 1818 00004FF0 ?getAAXClientExtensions@AudioProcessor@juce@@UEAAAEAUAAXClientExtensions@2@XZ
       6170 1819 003A2C50 ?getARGB@Colour@juce@@QEBAIXZ
       6171 181A 00230270 ?getAbbreviatedChannelTypeName@AudioChannelSet@juce@@SA?AVString@2@W4ChannelType@12@@Z
       6172 181B 00492550 ?getAccessibilityHandler@Component@juce@@QEAAPEAVAccessibilityHandler@2@XZ
       6173 181C 004B33B0 ?getAccessibilityName@TreeViewItem@juce@@UEAA?AVString@2@XZ
       6174 181D 00485CC0 ?getActionVerb@FileBrowserComponent@juce@@UEBA?AVString@2@XZ
       6175 181E 004A4E10 ?getActions@AccessibilityHandler@juce@@QEBAAEBVAccessibilityActions@2@XZ
       6176 181F 00320EF0 ?getActionsInCurrentTransaction@UndoManager@juce@@QEBAXAEAV?$Array@PEBVUndoableAction@juce@@VDummyCriticalSection@2@$0A@@2@@Z
       6177 1820 0046DE20 ?getActiveArea@TabBarButton@juce@@QEBA?AV?$Rectangle@H@2@XZ
       6178 1821 00475130 ?getActiveDocument@MultiDocumentPanel@juce@@QEBAPEAVComponent@2@XZ
       6179 1822 002A84C0 ?getActiveEditor@AudioProcessor@juce@@QEBAPEAVAudioProcessorEditor@2@XZ
       6180 1823 00402400 ?getActiveTopLevelWindow@TopLevelWindow@juce@@SAPEAV12@XZ
       6181 1824 00226210 ?getAfterTouchValue@MidiMessage@juce@@QEBAHXZ
       6182 1825 00461AC0 ?getAlertBoxWindowFlags@LookAndFeel_V2@juce@@UEAAHXZ
       6183 1826 00077BF0 ?getAlertType@AlertWindow@juce@@QEBA?AW4MessageBoxIconType@2@XZ
       6184 1827 00075260 ?getAlertWindow@ThreadWithProgressWindow@juce@@QEBAPEAVAlertWindow@2@XZ
       6185 1828 004619E0 ?getAlertWindowButtonHeight@LookAndFeel_V2@juce@@UEAAHXZ
       6186 1829 00448970 ?getAlertWindowButtonHeight@LookAndFeel_V4@juce@@UEAAHXZ
       6187 182A 00461760 ?getAlertWindowFont@LookAndFeel_V2@juce@@UEAA?AVFont@2@XZ
       6188 182B 004487F0 ?getAlertWindowFont@LookAndFeel_V4@juce@@UEAA?AVFont@2@XZ
       6189 182C 004617E0 ?getAlertWindowMessageFont@LookAndFeel_V2@juce@@UEAA?AVFont@2@XZ
       6190 182D 00448870 ?getAlertWindowMessageFont@LookAndFeel_V4@juce@@UEAA?AVFont@2@XZ
       6191 182E 00461860 ?getAlertWindowTitleFont@LookAndFeel_V2@juce@@UEAA?AVFont@2@XZ
       6192 182F 004488F0 ?getAlertWindowTitleFont@LookAndFeel_V4@juce@@UEAA?AVFont@2@XZ
       6193 1830 002F1A10 ?getAllAddresses@IPAddress@juce@@SA?AV?$Array@VIPAddress@juce@@VDummyCriticalSection@2@$0A@@2@_N@Z
       6194 1831 002F8D70 ?getAllAddresses@MACAddress@juce@@SA?AV?$Array@VMACAddress@juce@@VDummyCriticalSection@2@$0A@@2@XZ
       6195 1832 002DF460 ?getAllCategories@UnitTest@juce@@SA?AVStringArray@2@XZ
       6196 1833 0007BD90 ?getAllChanged@ChangeDetails@AudioProcessorListener@juce@@SA?AU123@XZ
       6197 1834 004CAB30 ?getAllCommands@CodeEditorComponent@juce@@UEAAXAEAV?$Array@HVDummyCriticalSection@juce@@$0A@@2@@Z
       6198 1835 004A3C40 ?getAllCommands@JUCEApplication@juce@@UEAAXAEAV?$Array@HVDummyCriticalSection@juce@@$0A@@2@@Z
       6199 1836 004BAA00 ?getAllComponents@FocusTraverser@juce@@UEAA?AV?$vector@PEAVComponent@juce@@V?$allocator@PEAVComponent@juce@@@std@@@std@@PEAVComponent@2@@Z
       6200 1837 004B99D0 ?getAllComponents@KeyboardFocusTraverser@juce@@UEAA?AV?$vector@PEAVComponent@juce@@V?$allocator@PEAVComponent@juce@@@std@@@std@@PEAVComponent@2@@Z
       6201 1838 004D3800 ?getAllContent@CodeDocument@juce@@QEBA?AVString@2@XZ
       6202 1839 00004FF0 ?getAllFilenames@RecentlyOpenedFilesList@juce@@QEBAAEBVStringArray@2@XZ
       6203 183A 00004FF0 ?getAllKeys@StringPairArray@juce@@QEBAAEBVStringArray@2@XZ
       6204 183B 00005F30 ?getAllProperties@PropertySet@juce@@QEAAAEAVStringPairArray@2@XZ
       6205 183C 00310C70 ?getAllSubText@XmlElement@juce@@QEBA?AVString@2@XZ
       6206 183D 002DF660 ?getAllTests@UnitTest@juce@@SAAEAV?$Array@PEAVUnitTest@juce@@VDummyCriticalSection@2@$0A@@2@XZ
       6207 183E 00075350 ?getAllText@AccessibilityTextInterface@juce@@QEBA?AVString@2@XZ
       6208 183F 002A66C0 ?getAllValueStrings@AudioProcessorParameter@juce@@UEBA?AVStringArray@2@XZ
       6209 1840 00005D30 ?getAllValues@StringPairArray@juce@@QEBAAEBVStringArray@2@XZ
       6210 1841 00079EF0 ?getAllowedOrigin@Options@WebBrowserComponent@juce@@QEBA@XZ
       6211 1842 0001FA40 ?getAlpha@Colour@juce@@QEBAEXZ
       6212 1843 004988B0 ?getAlpha@Component@juce@@QEBAMXZ
       6213 1844 0001FA40 ?getAlpha@PixelARGB@juce@@QEBAEXZ
       6214 1845 0001FA70 ?getAlpha@PixelAlpha@juce@@QEBAEXZ
       6215 1846 0001FD90 ?getAlpha@PixelRGB@juce@@QEBAEXZ
       6216 1847 002ABB60 ?getAlternateDisplayNames@AudioProcessor@juce@@UEBA?AVStringArray@2@XZ
       6217 1848 0022C8F0 ?getAmbisonicOrder@AudioChannelSet@juce@@QEBAHXZ
       6218 1849 0022B5F0 ?getAmbisonicOrderForNumChannels@AudioChannelSet@juce@@SAHHH@Z
       6219 184A 002C3030 ?getAnchorString@URL@juce@@QEBA?AVString@2@XZ
       6220 184B 00074150 ?getAnimator@Desktop@juce@@QEAAAEAVComponentAnimator@2@XZ
       6221 184C 00078030 ?getAppStyle@ComponentPeer@juce@@QEBA?AW4Style@12@XZ
       6222 184D 00079E70 ?getAppleWkWebViewOptions@Options@WebBrowserComponent@juce@@QEBA@XZ
       6223 184E 00005AD0 ?getApplicationReturnValue@JUCEApplicationBase@juce@@QEBAHXZ
       6224 184F 002E2480 ?getApproximateDescription@RelativeTime@juce@@QEBA?AVString@2@XZ
       6225 1850 002E15D0 ?getApproximateMillisecondCounter@Time@juce@@SAIXZ
       6226 1851 002B7EA0 ?getApproximateMinMax@AudioThumbnail@juce@@UEBAXNNHAEAM0@Z
       6227 1852 002B8030 ?getApproximatePeak@AudioThumbnail@juce@@UEBAMXZ
       6228 1853 00499850 ?getApproximateScaleFactorForComponent@Component@juce@@SAMPEBV12@@Z
       6229 1854 0040A280 ?getAreaCoveredBy@ComponentPeer@juce@@QEBA?AV?$Rectangle@H@2@AEBVComponent@2@@Z
       6230 1855 0030DC50 ?getArray@var@juce@@QEBAPEAV?$Array@Vvar@juce@@VDummyCriticalSection@2@$0A@@2@XZ
       6231 1856 003A6F00 ?getAscent@Font@juce@@QEBAMXZ
       6232 1857 00351780 ?getAscentInPoints@Font@juce@@QEBAMXZ
       6233 1858 00076000 ?getAssociatedComponent@MessageBoxOptions@juce@@QEBAPEAVComponent@2@XZ
       6234 1859 004D7FD0 ?getAssociatedObject@OpenGLContext@juce@@QEBAPEAVReferenceCountedObject@2@PEBD@Z
       6235 185A 00429980 ?getAttachedComponent@Label@juce@@QEBAPEAVComponent@2@XZ
       6236 185B 000210F0 ?getAttribute@AttributedString@juce@@QEBAAEBVAttribute@12@H@Z
       6237 185C 002D4870 ?getAttribute@XmlElement@juce@@AEBAPEAUXmlAttributeNode@12@VStringRef@2@@Z
       6238 185D 002D4910 ?getAttributeName@XmlElement@juce@@QEBAAEBVString@2@H@Z
       6239 185E 002D48D0 ?getAttributeValue@XmlElement@juce@@QEBAAEBVString@2@H@Z
       6240 185F 00024B20 ?getAudioCallbackLock@AudioDeviceManager@juce@@QEAAAEAVCriticalSection@2@XZ
       6241 1860 0005C300 ?getAudioData@SamplerSound@juce@@QEBAPEAV?$AudioBuffer@M@2@XZ
       6242 1861 0023ACB0 ?getAudioDeviceSetup@AudioDeviceManager@juce@@QEBA?AUAudioDeviceSetup@12@XZ
       6243 1862 0023AC90 ?getAudioDeviceSetup@AudioDeviceManager@juce@@QEBAXAEAUAudioDeviceSetup@12@@Z
       6244 1863 00005920 ?getAudioFormatReader@AudioFormatReaderSource@juce@@QEBAPEAVAudioFormatReader@2@XZ
       6245 1864 00024A80 ?getAudioProcessor@AudioProcessorEditor@juce@@QEBAPEAVAudioProcessor@2@XZ
       6246 1865 004DF990 ?getAudioVolume@VideoComponent@juce@@QEBAMXZ
       6247 1866 0023E2B0 ?getAvailableDeviceTypes@AudioDeviceManager@juce@@QEAAAEBV?$OwnedArray@VAudioIODeviceType@juce@@VDummyCriticalSection@2@@2@XZ
       6248 1867 002400C0 ?getAvailableDevices@MidiInput@juce@@SA?AV?$Array@UMidiDeviceInfo@juce@@VDummyCriticalSection@2@$0A@@2@XZ
       6249 1868 0023FAC0 ?getAvailableDevices@MidiOutput@juce@@SA?AV?$Array@UMidiDeviceInfo@juce@@VDummyCriticalSection@2@$0A@@2@XZ
       6250 1869 003525F0 ?getAvailableStyles@Font@juce@@QEBA?AVStringArray@2@XZ
       6251 186A 000072F0 ?getBackend@Options@WebBrowserComponent@juce@@QEBA@XZ
       6252 186B 00078300 ?getBackgroundColour@MultiDocumentPanel@juce@@QEBA?AVColour@2@XZ
       6253 186C 00405990 ?getBackgroundColour@ResizableWindow@juce@@QEBA?AVColour@2@XZ
       6254 186D 000072F0 ?getBaseRate@FrameRate@AudioPlayHead@juce@@QEBAHXZ
       6255 186E 0001F9A0 ?getBaselineY@PositionedGlyph@juce@@QEBAMXZ
       6256 186F 0046E1D0 ?getBestTabLength@TabBarButton@juce@@UEAAHH@Z
       6257 1870 0049F710 ?getBestWidthForHeight@TextButton@juce@@QEAAHH@Z
       6258 1871 002DE000 ?getBinaryData@var@juce@@QEBAPEAVMemoryBlock@2@XZ
       6259 1872 002C93D0 ?getBinaryValue@WindowsRegistry@juce@@SAIAEBVString@2@AEAVMemoryBlock@2@W4WoW64Mode@12@@Z
       6260 1873 00301CD0 ?getBitRange@BigInteger@juce@@QEBA?AV12@HH@Z
       6261 1874 002FB910 ?getBitRange@MemoryBlock@juce@@QEBAH_K0@Z
       6262 1875 00301C50 ?getBitRangeAsInt@BigInteger@juce@@QEBAIHH@Z
       6263 1876 000210D0 ?getBitsPerSample@AudioFormatWriter@juce@@QEBAHXZ
       6264 1877 002B5F90 ?getBlackNoteLength@KeyboardComponentBase@juce@@QEBAMXZ
       6265 1878 0009D090 ?getBlackNoteLengthProportion@KeyboardComponentBase@juce@@QEBAMXZ
       6266 1879 0009D0B0 ?getBlackNoteWidth@KeyboardComponentBase@juce@@QEBAMXZ
       6267 187A 0009D0A0 ?getBlackNoteWidthProportion@KeyboardComponentBase@juce@@QEBAMXZ
       6268 187B 002A1290 ?getBlacklistedFiles@KnownPluginList@juce@@QEBAAEBVStringArray@2@XZ
       6269 187C 0028D4D0 ?getBlockContaining@BufferingAudioReader@juce@@AEBAPEAUBufferedBlock@12@_J@Z
       6270 187D 00073FB0 ?getBlockSize@AudioProcessor@juce@@QEBAHXZ
       6271 187E 0001FA70 ?getBlue@Colour@juce@@QEBAEXZ
       6272 187F 0001FA70 ?getBlue@PixelARGB@juce@@QEBAEXZ
       6273 1880 00004FE0 ?getBlue@PixelAlpha@juce@@QEBAEXZ
       6274 1881 0001FA70 ?getBlue@PixelRGB@juce@@QEBAEXZ
       6275 1882 0030E270 ?getBoolAttribute@XmlElement@juce@@QEBA_NVStringRef@2@_N@Z
       6276 1883 0030AFF0 ?getBoolValue@PropertySet@juce@@QEBA_NVStringRef@2@_N@Z
       6277 1884 0041C420 ?getBorder@TextEditor@juce@@QEBA?AV?$BorderSize@H@2@XZ
       6278 1885 0040CA30 ?getBorderSize@CallOutBox@juce@@QEBAHXZ
       6279 1886 00076EB0 ?getBorderSize@Label@juce@@QEBA?AV?$BorderSize@H@2@XZ
       6280 1887 004741F0 ?getBorderThickness@ResizableBorderComponent@juce@@QEBA?AV?$BorderSize@H@2@XZ
       6281 1888 00406410 ?getBorderThickness@ResizableWindow@juce@@UEBA?AV?$BorderSize@H@2@XZ
       6282 1889 00074000 ?getBottom@Component@juce@@QEBAHXZ
       6283 188A 000215F0 ?getBottom@PositionedGlyph@juce@@QEBAMXZ
       6284 188B 002F3DE0 ?getBoundPort@DatagramSocket@juce@@QEBAHXZ
       6285 188C 003295B0 ?getBoundPort@InterprocessConnectionServer@juce@@QEBAHXZ
       6286 188D 002F4650 ?getBoundPort@StreamingSocket@juce@@QEBAHXZ
       6287 188E 00076B90 ?getBoundingBox@DrawableComposite@juce@@QEBA?AV?$Parallelogram@M@2@XZ
       6288 188F 00076BE0 ?getBoundingBox@DrawableImage@juce@@QEBA?AV?$Parallelogram@M@2@XZ
       6289 1890 00076B90 ?getBoundingBox@DrawableText@juce@@QEBA?AV?$Parallelogram@M@2@XZ
       6290 1891 003A96D0 ?getBoundingBox@GlyphArrangement@juce@@QEBA?AV?$Rectangle@M@2@HH_N@Z
       6291 1892 00434660 ?getBoundingBox@RelativeParallelogram@juce@@SA?AV?$Rectangle@M@2@PEBV?$Point@M@2@@Z
       6292 1893 000203A0 ?getBounds@BitmapData@Image@juce@@QEBA?AV?$Rectangle@H@3@XZ
       6293 1894 00074010 ?getBounds@Component@juce@@QEBA?AV?$Rectangle@H@2@XZ
       6294 1895 003A7840 ?getBounds@Image@juce@@QEBA?AV?$Rectangle@H@2@XZ
       6295 1896 0039F010 ?getBounds@Path@juce@@QEBA?AV?$Rectangle@M@2@XZ
       6296 1897 00021650 ?getBounds@PositionedGlyph@juce@@QEBA?AV?$Rectangle@M@2@XZ
       6297 1898 00434FC0 ?getBounds@RelativeParallelogram@juce@@QEBA?BV?$Rectangle@M@2@PEAVScope@Expression@2@@Z
       6298 1899 004975D0 ?getBoundsInParent@Component@juce@@QEBA?AV?$Rectangle@H@2@XZ
       6299 189A 003A95B0 ?getBoundsTransformed@Path@juce@@QEBA?AV?$Rectangle@M@2@AEBVAffineTransform@2@@Z
       6300 189B 003A2AB0 ?getBrightness@Colour@juce@@QEBAMXZ
       6301 189C 0047A960 ?getBuilder@TypeHandler@ComponentBuilder@juce@@QEBAPEAV23@XZ
       6302 189D 0007C030 ?getBus@AudioProcessor@juce@@QEAAPEAVBus@12@_NH@Z
       6303 189E 0007C030 ?getBus@AudioProcessor@juce@@QEBAPEBVBus@12@_NH@Z
       6304 189F 0007C010 ?getBusCount@AudioProcessor@juce@@QEBAH_N@Z
       6305 18A0 002AB3E0 ?getBusesLayout@AudioProcessor@juce@@QEBA?AUBusesLayout@12@XZ
       6306 18A1 0040F250 ?getButton@AlertWindow@juce@@QEBAPEAVButton@2@AEBVString@2@@Z
       6307 18A2 0040F310 ?getButton@AlertWindow@juce@@QEBAPEAVButton@2@H@Z
       6308 18A3 004C5C60 ?getButtonSize@PreferencesPanel@juce@@QEBAHXZ
       6309 18A4 00074F10 ?getButtonText@Button@juce@@QEBAAEBVString@2@XZ
       6310 18A5 000778F0 ?getButtonText@MessageBoxOptions@juce@@QEBA?AVString@2@H@Z
       6311 18A6 00004FB0 ?getBypassParameter@AudioProcessor@juce@@UEBAPEAVAudioProcessorParameter@2@XZ
       6312 18A7 002ED820 ?getByteOffsetOfEnd@String@juce@@AEBA_KXZ
       6313 18A8 00004FF0 ?getBytes@MACAddress@juce@@QEBAPEBEXZ
       6314 18A9 002F7350 ?getBytesFreeOnVolume@File@juce@@QEBA_JXZ
       6315 18AA 00074060 ?getCachedComponentImage@Component@juce@@QEBAPEAVCachedComponentImage@2@XZ
       6316 18AB 004D81A0 ?getCachedImage@OpenGLContext@juce@@AEBAPEAVCachedImage@12@XZ
       6317 18AC 00453C80 ?getCallOutBoxBorderSize@LookAndFeel_V2@juce@@UEAAHAEBVCallOutBox@2@@Z
       6318 18AD 00453C70 ?getCallOutBoxCornerSize@LookAndFeel_V2@juce@@UEAAMAEBVCallOutBox@2@@Z
       6319 18AE 0032B0F0 ?getCallback@MultiTimer@juce@@AEBAPEAVTimer@2@H@Z
       6320 18AF 0000AA20 ?getCallbackLock@AudioProcessor@juce@@QEBAAEBVCriticalSection@2@XZ
       6321 18B0 00079790 ?getCaretPos@CodeEditorComponent@juce@@QEBA?AVPosition@CodeDocument@2@XZ
       6322 18B1 00075280 ?getCaretPosition@CodeEditorComponent@juce@@UEBAHXZ
       6323 18B2 0041D1D0 ?getCaretPosition@TextEditor@juce@@UEBAHXZ
       6324 18B3 00074AB0 ?getCaretRectangle@TextInputTarget@juce@@QEBA?AV?$Rectangle@H@2@XZ
       6325 18B4 00079850 ?getCaretRectangleForCharIndex@CodeEditorComponent@juce@@UEBA?AV?$Rectangle@H@2@H@Z
       6326 18B5 0041CE00 ?getCaretRectangleForCharIndex@TextEditor@juce@@UEBA?AV?$Rectangle@H@2@H@Z
       6327 18B6 002A68B0 ?getCategory@AudioProcessorParameter@juce@@UEBA?AW4Category@12@XZ
       6328 18B7 0029B0D0 ?getCategory@AudioProcessorParameterWithID@juce@@UEBA?AW4Category@AudioProcessorParameter@2@XZ
       6329 18B8 00005D30 ?getCategory@UnitTest@juce@@QEBAAEBVString@2@XZ
       6330 18B9 004203B0 ?getCellComponent@TableListBox@juce@@QEBAPEAVComponent@2@HH@Z
       6331 18BA 004A4DE0 ?getCellInterface@AccessibilityHandler@juce@@QEBAPEAVAccessibilityCellInterface@2@XZ
       6332 18BB 00420490 ?getCellPosition@TableListBox@juce@@QEBA?AV?$Rectangle@H@2@HH_N@Z
       6333 18BC 004B4FF0 ?getCellTooltip@TableListBoxModel@juce@@UEAA?AVString@2@HH@Z
       6334 18BD 00226530 ?getChannel@MidiMessage@juce@@QEBAHXZ
       6335 18BE 002B6720 ?getChannelAsPath@AudioVisualiserComponent@juce@@QEAAXAEAVPath@2@PEBV?$Range@M@2@HH@Z
       6336 18BF 0007C060 ?getChannelCountOfBus@AudioProcessor@juce@@QEBAH_NH@Z
       6337 18C0 0022E0B0 ?getChannelIndexForType@AudioChannelSet@juce@@QEBAHW4ChannelType@12@@Z
       6338 18C1 002AA1E0 ?getChannelIndexInProcessBlockBuffer@AudioProcessor@juce@@QEBAH_NHH@Z
       6339 18C2 0028F0A0 ?getChannelLayout@AudioFormatReader@juce@@UEAA?AVAudioChannelSet@2@XZ
       6340 18C3 002AB360 ?getChannelLayoutOfBus@AudioProcessor@juce@@QEBA?AVAudioChannelSet@2@_NH@Z
       6341 18C4 00226180 ?getChannelPressureValue@MidiMessage@juce@@QEBAHXZ
       6342 18C5 0022F430 ?getChannelTypeFromAbbreviation@AudioChannelSet@juce@@SA?AW4ChannelType@12@AEBVString@2@@Z
       6343 18C6 00230C40 ?getChannelTypeName@AudioChannelSet@juce@@SA?AVString@2@W4ChannelType@12@@Z
       6344 18C7 0022DF60 ?getChannelTypes@AudioChannelSet@juce@@QEBA?AV?$Array@W4ChannelType@AudioChannelSet@juce@@VDummyCriticalSection@3@$0A@@2@XZ
       6345 18C8 004CE9E0 ?getCharIndexForPoint@CodeEditorComponent@juce@@UEBAHV?$Point@H@2@@Z
       6346 18C9 0041BD90 ?getCharIndexForPoint@TextEditor@juce@@UEBAHV?$Point@H@2@@Z
       6347 18CA 000056B0 ?getCharPointer@Identifier@juce@@QEBA?AVCharPointer_UTF8@2@XZ
       6348 18CB 000056B0 ?getCharPointer@String@juce@@QEBA?AVCharPointer_UTF8@2@XZ
       6349 18CC 00416CA0 ?getCharPosition@TextEditor@juce@@AEBAXHAEAV?$Point@M@2@AEAM@Z
       6350 18CD 00079740 ?getCharWidth@CodeEditorComponent@juce@@QEBAMXZ
       6351 18CE 004D3CC0 ?getCharacter@Position@CodeDocument@juce@@QEBAIXZ
       6352 18CF 00005AD0 ?getCharacter@PositionedGlyph@juce@@QEBAIXZ
       6353 18D0 004D6DB0 ?getCharacterBounds@CodeEditorComponent@juce@@QEBA?AV?$Rectangle@H@2@AEBVPosition@CodeDocument@2@@Z
       6354 18D1 00004FF0 ?getChecksumDataArray@MD5@juce@@QEBAPEBEXZ
       6355 18D2 003256D0 ?getChild@ValueTree@juce@@QEBA?AV12@H@Z
       6356 18D3 004A43E0 ?getChildAt@AccessibilityHandler@juce@@QEAAPEAV12@V?$Point@H@2@@Z
       6357 18D4 002D4690 ?getChildByAttribute@XmlElement@juce@@QEBAPEAV12@VStringRef@2@0@Z
       6358 18D5 00316460 ?getChildByName@XmlElement@juce@@QEBAPEAV12@VStringRef@2@@Z
       6359 18D6 00499080 ?getChildComponent@Component@juce@@QEBAPEAV12@H@Z
       6360 18D7 002D4720 ?getChildElement@XmlElement@juce@@QEBAPEAV12@H@Z
       6361 18D8 002D3FA0 ?getChildElementAllSubText@XmlElement@juce@@QEBA?AVString@2@VStringRef@2@AEBV32@@Z
       6362 18D9 002D4240 ?getChildElementsAsArray@XmlElement@juce@@AEBAXPEAPEAV12@@Z
       6363 18DA 003073E0 ?getChildFile@File@juce@@QEBA?AV12@VStringRef@2@@Z
       6364 18DB 004A4350 ?getChildFocus@AccessibilityHandler@juce@@QEAAPEAV12@XZ
       6365 18DC 000070E0 ?getChildIterator@XmlElement@juce@@QEBA?AV?$Iterator@UGetNextElement@XmlElement@juce@@@12@XZ
       6366 18DD 002C2270 ?getChildURL@URL@juce@@QEBA?AV12@AEBVString@2@@Z
       6367 18DE 00325340 ?getChildWithName@ValueTree@juce@@QEBA?AV12@AEBVIdentifier@2@@Z
       6368 18DF 00324BD0 ?getChildWithProperty@ValueTree@juce@@QEBA?AV12@AEBVIdentifier@2@AEBVvar@2@@Z
       6369 18E0 00007B80 ?getChildWithTagNameIterator@XmlElement@juce@@QEBA?AV?$Iterator@UGetNextElementWithTagName@XmlElement@juce@@@12@VStringRef@2@@Z
       6370 18E1 004A4780 ?getChildren@AccessibilityHandler@juce@@QEBA?AV?$vector@PEAVAccessibilityHandler@juce@@V?$allocator@PEAVAccessibilityHandler@juce@@@std@@@std@@XZ
       6371 18E2 0005B880 ?getChildren@Component@juce@@QEBAAEBV?$Array@PEAVComponent@juce@@VDummyCriticalSection@2@$0A@@2@XZ
       6372 18E3 0042F730 ?getChoices@ChoicePropertyComponent@juce@@QEBAAEBVStringArray@2@XZ
       6373 18E4 00074FC0 ?getClickingTogglesState@Button@juce@@QEBA_NXZ
       6374 18E5 00076E20 ?getClicksOutsideDismissVirtualKeyboard@TextEditor@juce@@QEBA_NXZ
       6375 18E6 002E3E80 ?getClient@TimeSliceThread@juce@@QEBAPEAVTimeSliceClient@2@H@Z
       6376 18E7 00032E80 ?getClipBounds@?$StackBasedLowLevelGraphicsContext@VSoftwareRendererSavedState@RenderingHelpers@juce@@@RenderingHelpers@juce@@UEBA?AV?$Rectangle@H@3@XZ
       6377 18E8 003A31E0 ?getClipBounds@Graphics@juce@@QEBA?AV?$Rectangle@H@2@XZ
       6378 18E9 003931E0 ?getClippedImage@Image@juce@@QEBA?AV12@AEBV?$Rectangle@H@2@@Z
       6379 18EA 0039CA70 ?getClippedLine@Path@juce@@QEBA?AV?$Line@M@2@V32@_N@Z
       6380 18EB 002FA6C0 ?getClockSeqAndReserved@Uuid@juce@@QEBAEXZ
       6381 18EC 002FA6B0 ?getClockSeqLow@Uuid@juce@@QEBAEXZ
       6382 18ED 004080C0 ?getCloseButton@DocumentWindow@juce@@QEBAPEAVButton@2@XZ
